 game_shader_dx9

 Timestamp is 56fc2ef6 (Wed Mar 30 21:54:30 2016)

 Preferred load address is 10000000

 Start         Length     Name                   Class
 0001:00000000 00117efbH .textbss                DATA
 0002:00000000 000376f4H .text                   CODE
 0002:00037700 00030d3aH .text$di                CODE
 0002:00068440 001df455H .text$mn                CODE
 0002:002478a0 0000121dH .text$yc                CODE
 0002:00248ac0 00004557H .text$yd                CODE
 0003:00000000 00000104H .CRT$XCA                DATA
 0003:00000104 00002114H .CRT$XCU                DATA
 0003:00002218 00000104H .CRT$XCZ                DATA
 0003:0000231c 00000104H .CRT$XIA                DATA
 0003:00002420 00000118H .CRT$XIC                DATA
 0003:00002538 00000104H .CRT$XIZ                DATA
 0003:0000263c 00000104H .CRT$XPA                DATA
 0003:00002740 00000109H .CRT$XPX                DATA
 0003:0000284c 00000104H .CRT$XPXA               DATA
 0003:00002950 00000104H .CRT$XPZ                DATA
 0003:00002a54 00000104H .CRT$XTA                DATA
 0003:00002b58 00000104H .CRT$XTZ                DATA
 0003:00002c60 00036a50H .rdata                  DATA
 0003:000396b0 00000194H .rdata$debug            DATA
 0003:00039844 00003de1H .rdata$r                DATA
 0003:0003d628 00000104H .rtc$IAA                DATA
 0003:0003d72c 000002e0H .rtc$IMZ                DATA
 0003:0003da0c 00000104H .rtc$IZZ                DATA
 0003:0003db10 00000104H .rtc$TAA                DATA
 0003:0003dc14 000002e0H .rtc$TMZ                DATA
 0003:0003def4 00000104H .rtc$TZZ                DATA
 0003:0003dff8 00000a12H .xdata$x                DATA
 0003:0003ea10 0000018cH .edata                  DATA
 0004:00000000 00002f17H .data                   DATA
 0004:00002f18 00005ed3H .data$r                 DATA
 0004:00008e00 0002199cH .bss                    DATA
 0005:00000000 00000264H .idata$5                DATA
 0005:00000264 00000028H .idata$2                DATA
 0005:0000028c 00000014H .idata$3                DATA
 0005:000002a0 00000264H .idata$4                DATA
 0005:00000504 00000a38H .idata$6                DATA
 0006:00000000 00000109H ValveDBG                DATA

  Address         Publics by Value              Rva+Base       Lib:Object

 0000:00000000       ___safe_se_handler_table   00000000     <absolute>
 0000:00000000       __except_list              00000000     <absolute>
 0000:00000000       ___guard_fids_table        00000000     <absolute>
 0000:00000000       ___safe_se_handler_count   00000000     <absolute>
 0000:00000000       ___guard_fids_count        00000000     <absolute>
 0000:00000000       ___guard_flags             00000000     <absolute>
 0000:00000000       ___ImageBase               10000000     <linker-defined>
 0001:00000000       __enc$textbss$begin        10001000     <linker-defined>
 0001:00117efb       __enc$textbss$end          10118efb     <linker-defined>
 0002:00014250       ?FloatMakePositive@@YAMM@Z 1012d250 f i mathlib:vmatrix.obj
 0002:00014260       _acosf                     1012d260 f i mathlib:vmatrix.obj
 0002:00014270       _atan2f                    1012d270 f i mathlib:vmatrix.obj
 0002:00014280       _cosf                      1012d280 f i mathlib:vmatrix.obj
 0002:00014290       _sinf                      1012d290 f i mathlib:vmatrix.obj
 0002:000142a0       _sqrtf                     1012d2a0 f i mathlib:vmatrix.obj
 0002:000142b0       _tanf                      1012d2b0 f i mathlib:vmatrix.obj
 0002:000142c0       ?acos@@YAMM@Z              1012d2c0 f i mathlib:vmatrix.obj
 0002:000142d0       ?cos@@YAMM@Z               1012d2d0 f i mathlib:vmatrix.obj
 0002:000142e0       ?sin@@YAMM@Z               1012d2e0 f i mathlib:vmatrix.obj
 0002:000142f0       ?sqrt@@YAMM@Z              1012d2f0 f i mathlib:vmatrix.obj
 0002:00014300       ?FastSqrt@@YAMM@Z          1012d300 f i mathlib:vmatrix.obj
 0002:00014330       ?LengthSqr@Vector@@QBEMXZ  1012d330 f i mathlib:vmatrix.obj
 0002:00014350       ?Init@Vector@@QAEXMMM@Z    1012d350 f i mathlib:vmatrix.obj
 0002:00014380       ?VectorCopy@@YAXABVVector@@AAV1@@Z 1012d380 f i mathlib:vmatrix.obj
 0002:000143a0       ??XVector@@QAEAAV0@M@Z     1012d3a0 f i mathlib:vmatrix.obj
 0002:000143e0       ?VectorSubtract@@YAXABVVector@@0AAV1@@Z 1012d3e0 f i mathlib:vmatrix.obj
 0002:00014430       ?VectorMultiply@@YAXABVVector@@MAAV1@@Z 1012d430 f i mathlib:vmatrix.obj
 0002:00014480       ?DotProduct@@YAMABVVector@@0@Z 1012d480 f i mathlib:vmatrix.obj
 0002:000144b0       ?Dot@Vector@@QBEMABV1@@Z   1012d4b0 f i mathlib:vmatrix.obj
 0002:000144e0       ?VectorLength@@YAMABVVector@@@Z 1012d4e0 f i mathlib:vmatrix.obj
 0002:00014540       ?Length@Vector@@QBEMXZ     1012d540 f i mathlib:vmatrix.obj
 0002:000145a0       ??GVector@@QBE?AV0@XZ      1012d5a0 f i mathlib:vmatrix.obj
 0002:000145e0       ??DVector@@QBE?AV0@M@Z     1012d5e0 f i mathlib:vmatrix.obj
 0002:00014630       ?Cross@Vector@@QBE?AV1@ABV1@@Z 1012d630 f i mathlib:vmatrix.obj
 0002:000146b0       ??AQAngle@@QAEAAMH@Z       1012d6b0 f i mathlib:vmatrix.obj
 0002:000146c0       ??AQAngle@@QBEMH@Z         1012d6c0 f i mathlib:vmatrix.obj
 0002:000146d0       ??0VPlane@@QAE@XZ          1012d6d0 f i mathlib:vmatrix.obj
 0002:000146e0       ?GetPointOnPlane@VPlane@@QBE?AVVector@@XZ 1012d6e0 f i mathlib:vmatrix.obj
 0002:00014730       ?Vector4DCopy@@YAXABVVector4D@@AAV1@@Z 1012d730 f i mathlib:vmatrix.obj
 0002:00014760       ?Base@matrix3x4_t@@QBEPBMXZ 1012d760 f i mathlib:vmatrix.obj
 0002:00014770       ?VectorMAInline@@YAXABVVector@@M0AAV1@@Z 1012d770 f i mathlib:vmatrix.obj
 0002:000147d0       ?VectorMA@@YAXABVVector@@M0AAV1@@Z 1012d7d0 f i mathlib:vmatrix.obj
 0002:00014830       ?SinCos@@YAXMPAM0@Z        1012d830 f i mathlib:vmatrix.obj
 0002:00014850       ?Init@VMatrix@@QAEXMMMMMMMMMMMMMMMM@Z 1012d850 f i mathlib:vmatrix.obj
 0002:00014930       ?SetForward@VMatrix@@QAEXABVVector@@@Z 1012d930 f i mathlib:vmatrix.obj
 0002:00014950       ?SetLeft@VMatrix@@QAEXABVVector@@@Z 1012d950 f i mathlib:vmatrix.obj
 0002:00014970       ?SetUp@VMatrix@@QAEXABVVector@@@Z 1012d970 f i mathlib:vmatrix.obj
 0002:00014990       ?GetBasisVectors@VMatrix@@QBEXAAVVector@@00@Z 1012d990 f i mathlib:vmatrix.obj
 0002:00014a00       ?SetBasisVectors@VMatrix@@QAEXABVVector@@00@Z 1012da00 f i mathlib:vmatrix.obj
 0002:00014a60       ?GetTranslation@VMatrix@@QBEAAVVector@@AAV2@@Z 1012da60 f i mathlib:vmatrix.obj
 0002:00014a80       ?SetTranslation@VMatrix@@QAEXABVVector@@@Z 1012da80 f i mathlib:vmatrix.obj
 0002:00014aa0       ?As3x4@VMatrix@@QAEAAUmatrix3x4_t@@XZ 1012daa0 f i mathlib:vmatrix.obj
 0002:00014ab0       ?CopyFrom3x4@VMatrix@@QAEXABUmatrix3x4_t@@@Z 1012dab0 f i mathlib:vmatrix.obj
 0002:00014b30       ?Set3x4@VMatrix@@QBEXAAUmatrix3x4_t@@@Z 1012db30 f i mathlib:vmatrix.obj
 0002:00014b90       ?MatrixSetColumn@@YAXAAVVMatrix@@HABVVector@@@Z 1012db90 f i mathlib:vmatrix.obj
 0002:00014bc0       ?SetupMatrixProjection@@YA?AVVMatrix@@ABVVector@@ABVVPlane@@@Z 1012dbc0 f   mathlib:vmatrix.obj
 0002:00014d80       ??4VMatrix@@QAEAAV0@ABV0@@Z 1012dd80 f   mathlib:vmatrix.obj
 0002:00014e00       ??8VMatrix@@QBE_NABV0@@Z   1012de00 f   mathlib:vmatrix.obj
 0002:00014ed0       ?MatrixMul@VMatrix@@QBEXABV1@AAV1@@Z 1012ded0 f   mathlib:vmatrix.obj
 0002:000156c0       ??DVMatrix@@QBE?AV0@ABV0@@Z 1012e6c0 f   mathlib:vmatrix.obj
 0002:000156e0       ?MatrixInverseGeneral@@YA_NABVVMatrix@@AAV1@@Z 1012e6e0 f   mathlib:vmatrix.obj
 0002:00015ac0       ?GetScale@VMatrix@@QBE?AVVector@@XZ 1012eac0 f   mathlib:vmatrix.obj
 0002:00015bd0       ?NormalizeBasisVectors@VMatrix@@QBE?AV1@XZ 1012ebd0 f   mathlib:vmatrix.obj
 0002:00015d30       ?IsRotationMatrix@VMatrix@@QBE_NXZ 1012ed30 f   mathlib:vmatrix.obj
 0002:00015f60       ?SetupMatrixOrgAngles@VMatrix@@QAEXABVVector@@ABVQAngle@@@Z 1012ef60 f   mathlib:vmatrix.obj
 0002:00016180       ?MatrixSetIdentity@@YAXAAVVMatrix@@@Z 1012f180 f   mathlib:vmatrix.obj
 0002:00016200       ?MatrixFromAngles@@YAXABVQAngle@@AAVVMatrix@@@Z 1012f200 f   mathlib:vmatrix.obj
 0002:00016220       ?MatrixToAngles@@YAXABVVMatrix@@AAVQAngle@@@Z 1012f220 f   mathlib:vmatrix.obj
 0002:000163b0       ?Swap@@YAXAAM0@Z           1012f3b0 f i mathlib:vmatrix.obj
 0002:000163d0       ?MatrixTranspose@@YAXABVVMatrix@@AAV1@@Z 1012f3d0 f   mathlib:vmatrix.obj
 0002:000164d0       ?MatrixCopy@@YAXABVVMatrix@@AAV1@@Z 1012f4d0 f   mathlib:vmatrix.obj
 0002:000164f0       ?MatrixMultiply@@YAXABVVMatrix@@0AAV1@@Z 1012f4f0 f   mathlib:vmatrix.obj
 0002:000169f0       ?Vector4DMultiply@@YAXABVVMatrix@@ABVVector4D@@AAV2@@Z 1012f9f0 f   mathlib:vmatrix.obj
 0002:00016b60       ?Vector4DMultiplyPosition@@YAXABVVMatrix@@ABVVector@@AAVVector4D@@@Z 1012fb60 f   mathlib:vmatrix.obj
 0002:00016cb0       ?Vector3DMultiply@@YAXABVVMatrix@@ABVVector@@AAV2@@Z 1012fcb0 f   mathlib:vmatrix.obj
 0002:00016db0       ?Vector3DMultiplyPositionProjective@@YAXABVVMatrix@@ABVVector@@AAV2@@Z 1012fdb0 f   mathlib:vmatrix.obj
 0002:00016f40       ?Vector3DMultiplyProjective@@YAXABVVMatrix@@ABVVector@@AAV2@@Z 1012ff40 f   mathlib:vmatrix.obj
 0002:000170f0       ?Vector4DMultiplyTranspose@@YAXABVVMatrix@@ABVVector4D@@AAV2@@Z 101300f0 f   mathlib:vmatrix.obj
 0002:00017270       ?Vector3DMultiplyTranspose@@YAXABVVMatrix@@ABVVector@@AAV2@@Z 10130270 f   mathlib:vmatrix.obj
 0002:00017370       ?MatrixTransformPlane@@YAXABVVMatrix@@ABUcplane_t@@AAU2@@Z 10130370 f   mathlib:vmatrix.obj
 0002:000174f0       ?MatrixBuildTranslation@@YAXAAVVMatrix@@MMM@Z 101304f0 f   mathlib:vmatrix.obj
 0002:00017580       ?MatrixBuildTranslation@@YAXAAVVMatrix@@ABVVector@@@Z 10130580 f   mathlib:vmatrix.obj
 0002:00017620       ?MatrixBuildRotationAboutAxis@@YAXAAVVMatrix@@ABVVector@@M@Z 10130620 f   mathlib:vmatrix.obj
 0002:00017670       ?MatrixBuildRotation@@YAXAAVVMatrix@@ABVVector@@1@Z 10130670 f   mathlib:vmatrix.obj
 0002:00017990       ?MatrixBuildRotateZ@@YAXAAVVMatrix@@M@Z 10130990 f   mathlib:vmatrix.obj
 0002:00017a70       ?MatrixBuildScale@@YAXAAVVMatrix@@MMM@Z 10130a70 f   mathlib:vmatrix.obj
 0002:00017b00       ?MatrixBuildScale@@YAXAAVVMatrix@@ABVVector@@@Z 10130b00 f   mathlib:vmatrix.obj
 0002:00017bf0       ?CalculateAABBFromProjectionMatrixInverse@@YAXABVVMatrix@@PAVVector@@1@Z 10130bf0 f   mathlib:vmatrix.obj
 0002:00017e50       ?CalculateAABBFromProjectionMatrix@@YAXABVVMatrix@@PAVVector@@1@Z 10130e50 f   mathlib:vmatrix.obj
 0002:00017fc0       ?FrustumPlanesFromMatrix@@YAXABVVMatrix@@AAVFrustum_t@@@Z 10130fc0 f   mathlib:vmatrix.obj
 0002:00018990       ?MatrixBuildOrtho@@YAXAAVVMatrix@@NNNNNN@Z 10131990 f   mathlib:vmatrix.obj
 0002:00018ac0       ?MatrixBuildPerspectiveX@@YAXAAVVMatrix@@NNNN@Z 10131ac0 f   mathlib:vmatrix.obj
 0002:00018c00       ?MatrixBuildPerspectiveOffCenterX@@YAXAAVVMatrix@@NNNNNNNN@Z 10131c00 f   mathlib:vmatrix.obj
 0002:00018e50       ?DistToSqr@Vector@@QBEMABV1@@Z 10131e50 f i mathlib:vmatrix.obj
 0002:00018e80       ??0VMatrix@@QAE@MMMMMMMMMMMMMMMM@Z 10131e80 f i mathlib:vmatrix.obj
 0002:00018f70       ?TransformPlane@VMatrix@@QBEXABVVPlane@@AAV2@@Z 10131f70 f i mathlib:vmatrix.obj
 0002:000190f0       ?Identity@VMatrix@@QAEXXZ  101320f0 f i mathlib:vmatrix.obj
 0002:00019170       ?SetupMatrixIdentity@@YA?AVVMatrix@@XZ 10132170 f   mathlib:vmatrix.obj
 0002:000191f0       ?SetupMatrixTranslation@@YA?AVVMatrix@@ABVVector@@@Z 101321f0 f   mathlib:vmatrix.obj
 0002:00019270       ?SetupMatrixScale@@YA?AVVMatrix@@ABVVector@@@Z 10132270 f   mathlib:vmatrix.obj
 0002:000192f0       ?SetupMatrixReflection@@YA?AVVMatrix@@ABVVPlane@@@Z 101322f0 f   mathlib:vmatrix.obj
 0002:000195f0       ?SetupMatrixAxisRot@@YA?AVVMatrix@@ABVVector@@M@Z 101325f0 f   mathlib:vmatrix.obj
 0002:000197b0       ?SetupMatrixAxisToAxisRot@@YA?AVVMatrix@@ABVVector@@0@Z 101327b0 f   mathlib:vmatrix.obj
 0002:00019a60       ?SetupMatrixAngles@@YA?AVVMatrix@@ABVQAngle@@@Z 10132a60 f   mathlib:vmatrix.obj
 0002:00019a80       ?SetupMatrixOrgAngles@@YA?AVVMatrix@@ABVVector@@ABVQAngle@@@Z 10132a80 f   mathlib:vmatrix.obj
 0002:00019aa0       ?InverseGeneral@VMatrix@@QBE_NAAV1@@Z 10132aa0 f   mathlib:vmatrix.obj
 0002:00019ac0       ?MatrixInverseTR@@YAXABVVMatrix@@AAV1@@Z 10132ac0 f   mathlib:vmatrix.obj
 0002:00019bf0       ?InverseTR@VMatrix@@QBEXAAV1@@Z 10132bf0 f   mathlib:vmatrix.obj
 0002:00019c10       ?MatrixInverseTranspose@@YAXABVVMatrix@@AAV1@@Z 10132c10 f   mathlib:vmatrix.obj
 0002:00019c40       ?MatrixInverseTranspose@@YAXABUmatrix3x4_t@@AAU1@@Z 10132c40 f   mathlib:vmatrix.obj
 0002:00019d60       ?InverseTR@VMatrix@@QBE?AV1@XZ 10132d60 f   mathlib:vmatrix.obj
 0002:00019d80       ?Scale@VMatrix@@QAE?AV1@ABVVector@@@Z 10132d80 f   mathlib:vmatrix.obj
 0002:00019ea0       ?Transpose@VMatrix@@QBE?AV1@XZ 10132ea0 f   mathlib:vmatrix.obj
 0002:00019f20       ?Transpose3x3@VMatrix@@QBE?AV1@XZ 10132f20 f   mathlib:vmatrix.obj
 0002:00019fa0       ??DVMatrix@@QBE?AVVPlane@@ABV1@@Z 10132fa0 f   mathlib:vmatrix.obj
 0002:00019fc0       ?MatrixBuildPerspective@@YAXAAVVMatrix@@MMMM@Z 10132fc0 f   mathlib:vmatrix.obj
 0002:0001a290       ?CalculateSphereFromProjectionMatrixInverse@@YAXABVVMatrix@@PAVVector@@PAM@Z 10133290 f   mathlib:vmatrix.obj
 0002:0001a500       ?CalculateSphereFromProjectionMatrix@@YAXABVVMatrix@@PAVVector@@PAM@Z 10133500 f   mathlib:vmatrix.obj
 0002:0001a540       ?PlaneIntersection@@YA_NABVVPlane@@00AAVVector@@@Z 10133540 f   mathlib:vmatrix.obj
 0002:0001a6b0       _asinf                     101336b0 f i mathlib:mathlib_base.obj
 0002:0001a6c0       _atanf                     101336c0 f i mathlib:mathlib_base.obj
 0002:0001a6d0       _expf                      101336d0 f i mathlib:mathlib_base.obj
 0002:0001a700       _logf                      10133700 f i mathlib:mathlib_base.obj
 0002:0001a710       ?asin@@YAMM@Z              10133710 f i mathlib:mathlib_base.obj
 0002:0001a720       ?atan@@YAMM@Z              10133720 f i mathlib:mathlib_base.obj
 0002:0001a730       ?atan2@@YAMMM@Z            10133730 f i mathlib:mathlib_base.obj
 0002:0001a740       ?exp@@YAMM@Z               10133740 f i mathlib:mathlib_base.obj
 0002:0001a770       ?log@@YAMM@Z               10133770 f i mathlib:mathlib_base.obj
 0002:0001a780       ?tan@@YAMM@Z               10133780 f i mathlib:mathlib_base.obj
 0002:0001a790       ?FastRSqrtFast@@YAMM@Z     10133790 f i mathlib:mathlib_base.obj
 0002:0001a7c0       ?FastRSqrt@@YAMM@Z         101337c0 f i mathlib:mathlib_base.obj
 0002:0001a810       ??0Vector2D@@QAE@XZ        10133810 f i mathlib:mathlib_base.obj
 0002:0001a820       ?Vector2DSubtract@@YAXABVVector2D@@0AAV1@@Z 10133820 f i mathlib:mathlib_base.obj
 0002:0001a860       ?MulAdd@Vector2D@@QAEXABV1@0M@Z 10133860 f i mathlib:mathlib_base.obj
 0002:0001a8b0       ?DotProduct2D@@YAMABVVector2D@@0@Z 101338b0 f i mathlib:mathlib_base.obj
 0002:0001a8d0       ?Dot@Vector2D@@QBEMABV1@@Z 101338d0 f i mathlib:mathlib_base.obj
 0002:0001a8f0       ?Vector2DLength@@YAMABVVector2D@@@Z 101338f0 f i mathlib:mathlib_base.obj
 0002:0001a940       ?LengthSqr@Vector2D@@QBEMXZ 10133940 f i mathlib:mathlib_base.obj
 0002:0001a960       ?Length@Vector2D@@QBEMXZ   10133960 f i mathlib:mathlib_base.obj
 0002:0001a9b0       ?DistTo@Vector2D@@QBEMABV1@@Z 101339b0 f i mathlib:mathlib_base.obj
 0002:0001aa10       ?DistToSqr@Vector2D@@QBEMABV1@@Z 10133a10 f i mathlib:mathlib_base.obj
 0002:0001aa30       ??ZVector@@QAEAAV0@ABV0@@Z 10133a30 f i mathlib:mathlib_base.obj
 0002:0001aa70       ?VectorAdd@@YAXABVVector@@0AAV1@@Z 10133a70 f i mathlib:mathlib_base.obj
 0002:0001aac0       ?VectorScale@@YAXABVVector@@MAAV1@@Z 10133ac0 f i mathlib:mathlib_base.obj
 0002:0001ab10       ?VectorDivide@@YAXABVVector@@MAAV1@@Z 10133b10 f i mathlib:mathlib_base.obj
 0002:0001ab60       ?MulAdd@Vector@@QAEXABV1@0M@Z 10133b60 f i mathlib:mathlib_base.obj
 0002:0001abc0       ?VectorLerp@@YAXABVVector@@0MAAV1@@Z 10133bc0 f i mathlib:mathlib_base.obj
 0002:0001ac40       ?DotProductAbs@@YAMABVVector@@PBM@Z 10133c40 f i mathlib:mathlib_base.obj
 0002:0001ac70       ?DistTo@Vector@@QBEMABV1@@Z 10133c70 f i mathlib:mathlib_base.obj
 0002:0001ace0       ??HVector@@QBE?AV0@ABV0@@Z 10133ce0 f i mathlib:mathlib_base.obj
 0002:0001ad30       ??GVector@@QBE?AV0@ABV0@@Z 10133d30 f i mathlib:mathlib_base.obj
 0002:0001ad80       ??KVector@@QBE?AV0@M@Z     10133d80 f i mathlib:mathlib_base.obj
 0002:0001add0       ??D@YA?AVVector@@MABV0@@Z  10133dd0 f i mathlib:mathlib_base.obj
 0002:0001ae20       ?CrossProduct@@YA?AVVector@@ABV1@0@Z 10133e20 f i mathlib:mathlib_base.obj
 0002:0001aea0       ??0Quaternion@@QAE@MMMM@Z  10133ea0 f i mathlib:mathlib_base.obj
 0002:0001aee0       ?Init@Quaternion@@QAEXMMMM@Z 10133ee0 f i mathlib:mathlib_base.obj
 0002:0001af20       ??AQuaternion@@QAEAAMH@Z   10133f20 f i mathlib:mathlib_base.obj
 0002:0001af30       ??AQuaternion@@QBEMH@Z     10133f30 f i mathlib:mathlib_base.obj
 0002:0001af40       ?Init@RadianEuler@@QAEXMMM@Z 10133f40 f i mathlib:mathlib_base.obj
 0002:0001af70       ??0QAngle@@QAE@MMM@Z       10133f70 f i mathlib:mathlib_base.obj
 0002:0001afa0       ??4QAngle@@QAEAAV0@ABV0@@Z 10133fa0 f i mathlib:mathlib_base.obj
 0002:0001afc0       ?VectorNormalizeFast@@YAXAAVVector@@@Z 10133fc0 f i mathlib:mathlib_base.obj
 0002:0001b080       ??Amatrix3x4_t@@QAEPAMH@Z  10134080 f i mathlib:mathlib_base.obj
 0002:0001b090       ??Amatrix3x4_t@@QBEPBMH@Z  10134090 f i mathlib:mathlib_base.obj
 0002:0001b0a0       ?DotProduct@@YAMPBM0@Z     101340a0 f i mathlib:mathlib_base.obj
 0002:0001b0d0       ?VectorScale@@YAXPBMMPAM@Z 101340d0 f i mathlib:mathlib_base.obj
 0002:0001b120       ?anglemod@@YAMM@Z          10134120 f i mathlib:mathlib_base.obj
 0002:0001b150       ?RemapVal@@YAMMMMMM@Z      10134150 f i mathlib:mathlib_base.obj
 0002:0001b210       ?Floor2Int@@YAHM@Z         10134210 f i mathlib:mathlib_base.obj
 0002:0001b250       ?Init@VPlane@@QAEXABVVector@@M@Z 10134250 f i mathlib:mathlib_base.obj
 0002:0001b280       ?StoreAlignedSIMD@@YAXPIAMABT__m128@@@Z 10134280 f i mathlib:mathlib_base.obj
 0002:0001b2a0       ?StoreUnalignedSIMD@@YAXPIAMABT__m128@@@Z 101342a0 f i mathlib:mathlib_base.obj
 0002:0001b2c0       ?LoadAlignedSIMD@@YA?AT__m128@@PBX@Z 101342c0 f i mathlib:mathlib_base.obj
 0002:0001b2e0       ?AndSIMD@@YA?AT__m128@@ABT1@0@Z 101342e0 f i mathlib:mathlib_base.obj
 0002:0001b300       ?AndNotSIMD@@YA?AT__m128@@ABT1@0@Z 10134300 f i mathlib:mathlib_base.obj
 0002:0001b320       ?OrSIMD@@YA?AT__m128@@ABT1@0@Z 10134320 f i mathlib:mathlib_base.obj
 0002:0001b340       ?LoadUnalignedSIMD@@YA?AT__m128@@PBX@Z 10134340 f i mathlib:mathlib_base.obj
 0002:0001b360       ?SubFloat@@YAMABT__m128@@H@Z 10134360 f i mathlib:mathlib_base.obj
 0002:0001b370       ?SubFloat@@YAAAMAAT__m128@@H@Z 10134370 f i mathlib:mathlib_base.obj
 0002:0001b380       ?MaskedAssign@@YA?AT__m128@@ABT1@00@Z 10134380 f i mathlib:mathlib_base.obj
 0002:0001b3b0       ?SplatXSIMD@@YA?AT__m128@@ABT1@@Z 101343b0 f i mathlib:mathlib_base.obj
 0002:0001b3d0       ?SplatYSIMD@@YA?AT__m128@@ABT1@@Z 101343d0 f i mathlib:mathlib_base.obj
 0002:0001b3f0       ?SplatZSIMD@@YA?AT__m128@@ABT1@@Z 101343f0 f i mathlib:mathlib_base.obj
 0002:0001b410       ?AddSIMD@@YA?AT__m128@@ABT1@0@Z 10134410 f i mathlib:mathlib_base.obj
 0002:0001b430       ?MulSIMD@@YA?AT__m128@@ABT1@0@Z 10134430 f i mathlib:mathlib_base.obj
 0002:0001b450       ?TestSignSIMD@@YAHABT__m128@@@Z 10134450 f i mathlib:mathlib_base.obj
 0002:0001b470       ?IsAnyNegative@@YA_NABT__m128@@@Z 10134470 f i mathlib:mathlib_base.obj
 0002:0001b490       ?CmpLtSIMD@@YA?AT__m128@@ABT1@0@Z 10134490 f i mathlib:mathlib_base.obj
 0002:0001b4b0       ?TransposeSIMD@@YAXAAT__m128@@000@Z 101344b0 f i mathlib:mathlib_base.obj
 0002:0001b530       ?fabs@@YA?AT__m128@@ABT1@@Z 10134530 f i mathlib:mathlib_base.obj
 0002:0001b550       ?_sqrtf@@YAMM@Z            10134550 f   mathlib:mathlib_base.obj
 0002:0001b560       ?_rsqrtf@@YAMM@Z           10134560 f   mathlib:mathlib_base.obj
 0002:0001b570       ?VectorNormalize@@YAMAAVVector@@@Z 10134570 f   mathlib:mathlib_base.obj
 0002:0001b600       ?_VectorNormalizeFast@@YIXAAVVector@@@Z 10134600 f   mathlib:mathlib_base.obj
 0002:0001b680       ?_InvRSquared@@YAMPBM@Z    10134680 f   mathlib:mathlib_base.obj
 0002:0001b6e0       ?InitSinCosTable@@YAXXZ    101346e0 f   mathlib:mathlib_base.obj
 0002:0001b720       ?VectorsEqual@@YAHPBM0@Z   10134720 f   mathlib:mathlib_base.obj
 0002:0001b770       ?MatrixAngles@@YAXABUmatrix3x4_t@@PAM@Z 10134770 f   mathlib:mathlib_base.obj
 0002:0001b900       ?VectorTransform@@YAXPBMABUmatrix3x4_t@@PAM@Z 10134900 f   mathlib:mathlib_base.obj
 0002:0001b9d0       ?VectorITransform@@YAXPBMABUmatrix3x4_t@@PAM@Z 101349d0 f   mathlib:mathlib_base.obj
 0002:0001baa0       ?VectorRotate@@YAXPBMABUmatrix3x4_t@@PAM@Z 10134aa0 f   mathlib:mathlib_base.obj
 0002:0001bb60       ?VectorIRotate@@YAXPBMABUmatrix3x4_t@@PAM@Z 10134b60 f   mathlib:mathlib_base.obj
 0002:0001bc20       ?MatrixCopy@@YAXABUmatrix3x4_t@@AAU1@@Z 10134c20 f   mathlib:mathlib_base.obj
 0002:0001bc80       ?MatricesAreEqual@@YA_NABUmatrix3x4_t@@0M@Z 10134c80 f   mathlib:mathlib_base.obj
 0002:0001bcf0       ?MatrixGetColumn@@YAXABUmatrix3x4_t@@HAAVVector@@@Z 10134cf0 f   mathlib:mathlib_base.obj
 0002:0001bd20       ?MatrixSetColumn@@YAXABVVector@@HAAUmatrix3x4_t@@@Z 10134d20 f   mathlib:mathlib_base.obj
 0002:0001bd50       ?VectorCompare@@YAHPBM0@Z  10134d50 f   mathlib:mathlib_base.obj
 0002:0001bda0       ?CrossProduct@@YAXPBM0PAM@Z 10134da0 f   mathlib:mathlib_base.obj
 0002:0001be20       ?Q_log2@@YAII@Z            10134e20 f   mathlib:mathlib_base.obj
 0002:0001be40       ?MatrixVectors@@YAXABUmatrix3x4_t@@PAVVector@@11@Z 10134e40 f   mathlib:mathlib_base.obj
 0002:0001bed0       ?VectorVectors@@YAXABVVector@@AAV1@1@Z 10134ed0 f   mathlib:mathlib_base.obj
 0002:0001c110       ?VectorMatrix@@YAXABVVector@@AAUmatrix3x4_t@@@Z 10135110 f   mathlib:mathlib_base.obj
 0002:0001c1c0       ?VectorAngles@@YAXPBMPAM@Z 101351c0 f   mathlib:mathlib_base.obj
 0002:0001c330       ?ConcatRotations@@YAXQAY02$$CBM0QAY02M@Z 10135330 f   mathlib:mathlib_base.obj
 0002:0001c520       ?ConcatTransforms_Aligned@@YAXABVmatrix3x4a_t@@0AAV1@@Z 10135520 f   mathlib:mathlib_base.obj
 0002:0001c620       ?ConcatTransforms@@YAXABUmatrix3x4_t@@0AAU1@@Z 10135620 f   mathlib:mathlib_base.obj
 0002:0001c720       ?FloorDivMod@@YAXNNPAH0@Z  10135720 f   mathlib:mathlib_base.obj
 0002:0001c910       ?GreatestCommonDivisor@@YAHHH@Z 10135910 f   mathlib:mathlib_base.obj
 0002:0001c950       ?IsDenormal@@YA_NABM@Z     10135950 f   mathlib:mathlib_base.obj
 0002:0001c980       ?SignbitsForPlane@@YAHPAUcplane_t@@@Z 10135980 f   mathlib:mathlib_base.obj
 0002:0001c9b0       ?BoxOnPlaneSide@@YAHPBM0PBUcplane_t@@@Z 101359b0 f   mathlib:mathlib_base.obj
 0002:0001cd60       ?AngleVectors@@YAXABVQAngle@@PAVVector@@@Z 10135d60 f   mathlib:mathlib_base.obj
 0002:0001ce30       ?AngleVectors@@YAXABVQAngle@@PAVVector@@11@Z 10135e30 f   mathlib:mathlib_base.obj
 0002:0001d030       ?AngleVectorsTranspose@@YAXABVQAngle@@PAVVector@@11@Z 10136030 f   mathlib:mathlib_base.obj
 0002:0001d220       ?VectorAngles@@YAXABVVector@@AAVQAngle@@@Z 10136220 f   mathlib:mathlib_base.obj
 0002:0001d390       ?VectorAngles@@YAXABVVector@@0AAVQAngle@@@Z 10136390 f   mathlib:mathlib_base.obj
 0002:0001d610       ?SetIdentityMatrix@@YAXAAUmatrix3x4_t@@@Z 10136610 f   mathlib:mathlib_base.obj
 0002:0001d650       ?SetScaleMatrix@@YAXMMMAAUmatrix3x4_t@@@Z 10136650 f   mathlib:mathlib_base.obj
 0002:0001d6c0       ?MatrixBuildRotationAboutAxis@@YAXABVVector@@MAAUmatrix3x4_t@@@Z 101366c0 f   mathlib:mathlib_base.obj
 0002:0001d890       ?MatrixTranspose@@YAXAAUmatrix3x4_t@@@Z 10136890 f   mathlib:mathlib_base.obj
 0002:0001d8e0       ?MatrixTranspose@@YAXABUmatrix3x4_t@@AAU1@@Z 101368e0 f   mathlib:mathlib_base.obj
 0002:0001d950       ?AngleMatrix@@YAXABVQAngle@@AAUmatrix3x4_t@@@Z 10136950 f   mathlib:mathlib_base.obj
 0002:0001db30       ?AngleIMatrix@@YAXABVQAngle@@AAUmatrix3x4_t@@@Z 10136b30 f   mathlib:mathlib_base.obj
 0002:0001dd10       ?ClearBounds@@YAXAAVVector@@0@Z 10136d10 f   mathlib:mathlib_base.obj
 0002:0001dd60       ?AddPointToBounds@@YAXABVVector@@AAV1@1@Z 10136d60 f   mathlib:mathlib_base.obj
 0002:0001dde0       ?AreBoundsValid@@YA_NABVVector@@0@Z 10136de0 f   mathlib:mathlib_base.obj
 0002:0001de20       ?IsPointInBounds@@YA_NABVVector@@00@Z 10136e20 f   mathlib:mathlib_base.obj
 0002:0001de70       ?SolveQuadratic@@YA_NMMMAAM0@Z 10136e70 f   mathlib:mathlib_base.obj
 0002:0001df80       ?SolveInverseQuadratic@@YA_NMMMMMMAAM00@Z 10136f80 f   mathlib:mathlib_base.obj
 0002:0001e110       ?SolveInverseReciprocalQuadratic@@YA_NMMMMMMAAM00@Z 10137110 f   mathlib:mathlib_base.obj
 0002:0001e2f0       ?VectorYawRotate@@YAXABVVector@@MAAV1@@Z 101372f0 f   mathlib:mathlib_base.obj
 0002:0001e3f0       ?Bias@@YAMMM@Z             101373f0 f   mathlib:mathlib_base.obj
 0002:0001e450       ?Gain@@YAMMM@Z             10137450 f   mathlib:mathlib_base.obj
 0002:0001e530       ?SmoothCurve@@YAMM@Z       10137530 f   mathlib:mathlib_base.obj
 0002:0001e550       ?MovePeak@@YAMMM@Z         10137550 f i mathlib:mathlib_base.obj
 0002:0001e5a0       ?SmoothCurve_Tweak@@YAMMMM@Z 101375a0 f   mathlib:mathlib_base.obj
 0002:0001e640       ?QuaternionAlign@@YAXABVQuaternion@@0AAV1@@Z 10137640 f   mathlib:mathlib_base.obj
 0002:0001e7b0       ?QuaternionSlerpNoAlign@@YAXABVQuaternion@@0MAAV1@@Z 101377b0 f   mathlib:mathlib_base.obj
 0002:0001ea80       ?QuaternionConjugate@@YAXABVQuaternion@@AAV1@@Z 10137a80 f   mathlib:mathlib_base.obj
 0002:0001ead0       ?QuaternionNormalize@@YAMAAVQuaternion@@@Z 10137ad0 f   mathlib:mathlib_base.obj
 0002:0001eba0       ?QuaternionScale@@YAXABVQuaternion@@MAAV1@@Z 10137ba0 f   mathlib:mathlib_base.obj
 0002:0001ece0       ?QuaternionAdd@@YAXABVQuaternion@@0AAV1@@Z 10137ce0 f   mathlib:mathlib_base.obj
 0002:0001ed60       ?QuaternionDotProduct@@YAMABVQuaternion@@0@Z 10137d60 f   mathlib:mathlib_base.obj
 0002:0001ed90       ?QuaternionMult@@YAXABVQuaternion@@0AAV1@@Z 10137d90 f   mathlib:mathlib_base.obj
 0002:0001ef20       ?QuaternionExp@@YAXABVQuaternion@@AAV1@@Z 10137f20 f   mathlib:mathlib_base.obj
 0002:0001f020       ?QuaternionLn@@YAXABVQuaternion@@AAV1@@Z 10138020 f   mathlib:mathlib_base.obj
 0002:0001f150       ?QuaternionAverageExponential@@YAXAAVQuaternion@@HPBV1@PBM@Z 10138150 f   mathlib:mathlib_base.obj
 0002:0001f6e0       ?QuaternionMatrix@@YAXABVQuaternion@@AAUmatrix3x4_t@@@Z 101386e0 f   mathlib:mathlib_base.obj
 0002:0001f900       ?QuaternionAxisAngle@@YAXABVQuaternion@@AAVVector@@AAM@Z 10138900 f   mathlib:mathlib_base.obj
 0002:0001f9f0       ?AxisAngleQuaternion@@YAXABVVector@@MAAVQuaternion@@@Z 101389f0 f   mathlib:mathlib_base.obj
 0002:0001faa0       ?AngleQuaternion@@YAXABVRadianEuler@@AAVQuaternion@@@Z 10138aa0 f   mathlib:mathlib_base.obj
 0002:0001fc20       ?AngleQuaternion@@YAXABVQAngle@@AAVQuaternion@@@Z 10138c20 f   mathlib:mathlib_base.obj
 0002:0001fdc0       ?Spline_Normalize@@YAXABVVector@@000AAV1@1@Z 10138dc0 f   mathlib:mathlib_base.obj
 0002:0001ff30       ?Catmull_Rom_Spline@@YAXABVVector@@000MAAV1@@Z 10138f30 f   mathlib:mathlib_base.obj
 0002:000202e0       ?Catmull_Rom_Spline_Tangent@@YAXABVVector@@000MAAV1@@Z 101392e0 f   mathlib:mathlib_base.obj
 0002:00020650       ?Catmull_Rom_Spline_Integral@@YAXABVVector@@000MAAV1@@Z 10139650 f   mathlib:mathlib_base.obj
 0002:00020b50       ?Catmull_Rom_Spline_Integral@@YAXABVVector@@000AAV1@@Z 10139b50 f   mathlib:mathlib_base.obj
 0002:00020ca0       ?Catmull_Rom_Spline_Normalize@@YAXABVVector@@000MAAV1@@Z 10139ca0 f   mathlib:mathlib_base.obj
 0002:00020ee0       ?Catmull_Rom_Spline_Integral_Normalize@@YAXABVVector@@000MAAV1@@Z 10139ee0 f   mathlib:mathlib_base.obj
 0002:00021120       ?Catmull_Rom_Spline_NormalizeX@@YAXABVVector@@000MAAV1@@Z 1013a120 f   mathlib:mathlib_base.obj
 0002:00021190       ?Hermite_Spline@@YAXABVVector@@000MAAV1@@Z 1013a190 f   mathlib:mathlib_base.obj
 0002:00021320       ?Hermite_Spline@@YAMMMMMM@Z 1013a320 f   mathlib:mathlib_base.obj
 0002:000213d0       ?Hermite_SplineBasis@@YAXMQAM@Z 1013a3d0 f   mathlib:mathlib_base.obj
 0002:00021460       ?Hermite_Spline@@YAXABVVector@@00MAAV1@@Z 1013a460 f   mathlib:mathlib_base.obj
 0002:00021550       ?Hermite_Spline@@YAMMMMM@Z 1013a550 f   mathlib:mathlib_base.obj
 0002:00021600       ?Hermite_Spline@@YAXABVQuaternion@@00MAAV1@@Z 1013a600 f   mathlib:mathlib_base.obj
 0002:000217b0       ?Kochanek_Bartels_Spline@@YAXMMMABVVector@@000MAAV1@@Z 1013a7b0 f   mathlib:mathlib_base.obj
 0002:00021ce0       ?Kochanek_Bartels_Spline_NormalizeX@@YAXMMMABVVector@@000MAAV1@@Z 1013ace0 f   mathlib:mathlib_base.obj
 0002:00021d70       ?Cubic_Spline@@YAXABVVector@@000MAAV1@@Z 1013ad70 f   mathlib:mathlib_base.obj
 0002:00021f00       ?Cubic_Spline_NormalizeX@@YAXABVVector@@000MAAV1@@Z 1013af00 f   mathlib:mathlib_base.obj
 0002:000220c0       ?BSpline@@YAXABVVector@@000MAAV1@@Z 1013b0c0 f   mathlib:mathlib_base.obj
 0002:00022490       ?BSpline_NormalizeX@@YAXABVVector@@000MAAV1@@Z 1013b490 f   mathlib:mathlib_base.obj
 0002:00022500       ?Parabolic_Spline@@YAXABVVector@@000MAAV1@@Z 1013b500 f   mathlib:mathlib_base.obj
 0002:00022740       ?Parabolic_Spline_NormalizeX@@YAXABVVector@@000MAAV1@@Z 1013b740 f   mathlib:mathlib_base.obj
 0002:000229d0       ?CubicBasis0@@YAMM@Z       1013b9d0 f   mathlib:mathlib_base.obj
 0002:000229e0       ?CubicBasis1@@YAMM@Z       1013b9e0 f   mathlib:mathlib_base.obj
 0002:00022a00       ?CubicBasis2@@YAMM@Z       1013ba00 f   mathlib:mathlib_base.obj
 0002:00022a20       ?CubicBasis3@@YAMM@Z       1013ba20 f   mathlib:mathlib_base.obj
 0002:00022a30       ?RangeCompressor@@YAMMMMM@Z 1013ba30 f   mathlib:mathlib_base.obj
 0002:00022ba0       ?CalcSqrDistanceToAABB@@YAMABVVector@@00@Z 1013bba0 f   mathlib:mathlib_base.obj
 0002:00022cb0       ?CalcClosestPointOnAABB@@YAXABVVector@@00AAV1@@Z 1013bcb0 f   mathlib:mathlib_base.obj
 0002:00022d50       ?CalcSqrDistAndClosestPointOnAABB@@YAXABVVector@@00AAV1@AAM@Z 1013bd50 f   mathlib:mathlib_base.obj
 0002:00022ea0       ?CalcClosestPointToLineT@@YAMABVVector@@00AAV1@@Z 1013bea0 f   mathlib:mathlib_base.obj
 0002:00022fa0       ?CalcClosestPointOnLine@@YAXABVVector@@00AAV1@PAM@Z 1013bfa0 f   mathlib:mathlib_base.obj
 0002:00023040       ?CalcDistanceToLine@@YAMABVVector@@00PAM@Z 1013c040 f   mathlib:mathlib_base.obj
 0002:00023120       ?CalcClosestPointOnLineSegment@@YAXABVVector@@00AAV1@PAM@Z 1013c120 f   mathlib:mathlib_base.obj
 0002:000231e0       ?CalcDistanceToLineSegment@@YAMABVVector@@00PAM@Z 1013c1e0 f   mathlib:mathlib_base.obj
 0002:00023280       ?CalcClosestPointToLineT2D@@YAMABVVector2D@@00AAV1@@Z 1013c280 f   mathlib:mathlib_base.obj
 0002:00023330       ?CalcClosestPointOnLine2D@@YAXABVVector2D@@00AAV1@PAM@Z 1013c330 f   mathlib:mathlib_base.obj
 0002:00023400       ?CalcDistanceToLine2D@@YAMABVVector2D@@00PAM@Z 1013c400 f   mathlib:mathlib_base.obj
 0002:00023500       ?CalcDistanceSqrToLine2D@@YAMABVVector2D@@00PAM@Z 1013c500 f   mathlib:mathlib_base.obj
 0002:000235f0       ?CalcClosestPointOnLineSegment2D@@YAXABVVector2D@@00AAV1@PAM@Z 1013c5f0 f   mathlib:mathlib_base.obj
 0002:000236e0       ?CalcDistanceToLineSegment2D@@YAMABVVector2D@@00PAM@Z 1013c6e0 f   mathlib:mathlib_base.obj
 0002:00023800       ?CalcDistanceSqrToLineSegment2D@@YAMABVVector2D@@00PAM@Z 1013c800 f   mathlib:mathlib_base.obj
 0002:00023910       ?CalcLineToLineIntersectionSegment@@YA_NABVVector@@000PAV1@1PAM2@Z 1013c910 f   mathlib:mathlib_base.obj
 0002:00023cc0       ?MathLib_Init@@YAXMMMH_N000@Z 1013ccc0 f   mathlib:mathlib_base.obj
 0002:00023d90       ?MathLib_MMXEnabled@@YA_NXZ 1013cd90 f   mathlib:mathlib_base.obj
 0002:00023da0       ?MathLib_SSEEnabled@@YA_NXZ 1013cda0 f   mathlib:mathlib_base.obj
 0002:00023db0       ?MathLib_SSE2Enabled@@YA_NXZ 1013cdb0 f   mathlib:mathlib_base.obj
 0002:00023dc0       ?ApproachAngle@@YAMMMM@Z   1013cdc0 f   mathlib:mathlib_base.obj
 0002:00023ec0       ?AngleDiff@@YAMMM@Z        1013cec0 f   mathlib:mathlib_base.obj
 0002:00023f40       ?AngleDistance@@YAMMM@Z    1013cf40 f   mathlib:mathlib_base.obj
 0002:00023fb0       ?AngleNormalize@@YAMM@Z    1013cfb0 f   mathlib:mathlib_base.obj
 0002:00024030       ?AngleNormalizePositive@@YAMM@Z 1013d030 f   mathlib:mathlib_base.obj
 0002:00024080       ?AnglesAreEqual@@YA_NMMM@Z 1013d080 f   mathlib:mathlib_base.obj
 0002:00024110       ?RotationDeltaAxisAngle@@YAXABVQAngle@@0AAVVector@@AAM@Z 1013d110 f   mathlib:mathlib_base.obj
 0002:00024400       ?ClipLineSegmentToPlane@@YAXABVVector@@0PAV1@1M@Z 1013d400 f   mathlib:mathlib_base.obj
 0002:000246c0       ?ComputeTrianglePlane@@YAXABVVector@@00AAV1@AAM@Z 1013d6c0 f   mathlib:mathlib_base.obj
 0002:000247f0       ?TetrahedronVolume@@YAMABVVector@@000@Z 1013d7f0 f   mathlib:mathlib_base.obj
 0002:00024910       ?TriangleArea@@YAMABVVector@@00@Z 1013d910 f   mathlib:mathlib_base.obj
 0002:000249f0       ?PolyFromPlane@@YAHPAVVector@@ABV1@MM@Z 1013d9f0 f   mathlib:mathlib_base.obj
 0002:00024da0       ?ClipPolyToPlane@@YAHPAVVector@@H0ABV1@MM@Z 1013dda0 f   mathlib:mathlib_base.obj
 0002:000251d0       ?ClipPolyToPlane_Precise@@YAHPANH0PBNNN@Z 1013e1d0 f   mathlib:mathlib_base.obj
 0002:00025500       ?CeilPow2@@YAHH@Z          1013e500 f   mathlib:mathlib_base.obj
 0002:00025520       ?FloorPow2@@YAHH@Z         1013e520 f   mathlib:mathlib_base.obj
 0002:00025540       ?CalcFovY@@YAMMM@Z         1013e540 f   mathlib:mathlib_base.obj
 0002:000255b0       ?CalcFovX@@YAMMM@Z         1013e5b0 f   mathlib:mathlib_base.obj
 0002:000255e0       ?GeneratePerspectiveFrustum@@YAXABVVector@@000MMMMPAVVPlane@@@Z 1013e5e0 f   mathlib:mathlib_base.obj
 0002:00025a60       ?GenerateOrthoFrustum@@YAXABVVector@@000MMMMMMPAVVPlane@@@Z 1013ea60 f   mathlib:mathlib_base.obj
 0002:00025c60       ?ComputeSignbits@fourplanes_t@@QAEXXZ 1013ec60 f   mathlib:mathlib_base.obj
 0002:00025cf0       ?GetPlane@fourplanes_t@@QBEXHPAVVector@@PAM@Z 1013ecf0 f   mathlib:mathlib_base.obj
 0002:00025d30       ?SetPlane@fourplanes_t@@QAEXHABVVector@@M@Z 1013ed30 f   mathlib:mathlib_base.obj
 0002:00025d70       ?Set4Planes@fourplanes_t@@QAEXPBVVPlane@@@Z 1013ed70 f   mathlib:mathlib_base.obj
 0002:00025e10       ?Set2Planes@fourplanes_t@@QAEXPBVVPlane@@@Z 1013ee10 f   mathlib:mathlib_base.obj
 0002:00025ec0       ?Get4Planes@fourplanes_t@@QAEXPAVVPlane@@@Z 1013eec0 f   mathlib:mathlib_base.obj
 0002:00025f30       ?Get2Planes@fourplanes_t@@QAEXPAVVPlane@@@Z 1013ef30 f   mathlib:mathlib_base.obj
 0002:00025f80       ??0Frustum_t@@QAE@XZ       1013ef80 f   mathlib:mathlib_base.obj
 0002:00025fa0       ?SetPlane@Frustum_t@@QAEXHABVVector@@M@Z 1013efa0 f   mathlib:mathlib_base.obj
 0002:00026010       ?GetPlane@Frustum_t@@QBEXHPAVVector@@PAM@Z 1013f010 f   mathlib:mathlib_base.obj
 0002:00026080       ?SetPlanes@Frustum_t@@QAEXPBVVPlane@@@Z 1013f080 f   mathlib:mathlib_base.obj
 0002:000260b0       ?GetPlanes@Frustum_t@@QAEXPAVVPlane@@@Z 1013f0b0 f   mathlib:mathlib_base.obj
 0002:00026120       ?CullBox@Frustum_t@@QBE_NABVVector@@0@Z 1013f120 f   mathlib:mathlib_base.obj
 0002:00026220       ?CullBox@Frustum_t@@QBE_NABT__m128@@0@Z 1013f220 f   mathlib:mathlib_base.obj
 0002:00026320       ?CullBoxCenterExtents@Frustum_t@@QBE_NABVVector@@0@Z 1013f320 f   mathlib:mathlib_base.obj
 0002:000263f0       ?CullBoxCenterExtents@Frustum_t@@QBE_NABT__m128@@0@Z 1013f3f0 f   mathlib:mathlib_base.obj
 0002:000264d0       ?CalcTriangleTangentSpace@@YAXABVVector@@00ABVVector2D@@11AAV1@2@Z 1013f4d0 f   mathlib:mathlib_base.obj
 0002:000268d0       ?RGBtoHSV@@YAXABVVector@@AAV1@@Z 1013f8d0 f   mathlib:mathlib_base.obj
 0002:00026a20       ?HSVtoRGB@@YAXABVVector@@AAV1@@Z 1013fa20 f   mathlib:mathlib_base.obj
 0002:00026bd0       ?GetInterpolationData@@YAXPBM0HHM_NPAM22@Z 1013fbd0 f   mathlib:mathlib_base.obj
 0002:00026da0       ?RandomVectorInUnitSphere@@YAMPAVVector@@@Z 1013fda0 f   mathlib:mathlib_base.obj
 0002:00026f20       ?RandomVectorInUnitCircle@@YAMPAVVector2D@@@Z 1013ff20 f   mathlib:mathlib_base.obj
 0002:00026ff0       ??$V_swap@M@@YAXAAM0@Z     1013fff0 f i mathlib:mathlib_base.obj
 0002:00027010       ?VectorRotate@@YAXABVVector@@ABUmatrix3x4_t@@AAV1@@Z 10140010 f i mathlib:mathlib_base.obj
 0002:000270c0       ?VectorIRotate@@YAXABVVector@@ABUmatrix3x4_t@@AAV1@@Z 101400c0 f i mathlib:mathlib_base.obj
 0002:00027170       ?MatrixAngles@@YAXABUmatrix3x4_t@@AAVQAngle@@@Z 10140170 f i mathlib:mathlib_base.obj
 0002:00027180       ?MatrixAngles@@YAXABUmatrix3x4_t@@AAVRadianEuler@@@Z 10140180 f i mathlib:mathlib_base.obj
 0002:000271e0       ?VectorTransform@@YAXABVVector@@ABUmatrix3x4_t@@AAV1@@Z 101401e0 f i mathlib:mathlib_base.obj
 0002:000272a0       ?VectorITransform@@YAXABVVector@@ABUmatrix3x4_t@@AAV1@@Z 101402a0 f i mathlib:mathlib_base.obj
 0002:00027370       ?MatrixAngles@@YAXABUmatrix3x4_t@@AAVRadianEuler@@AAVVector@@@Z 10140370 f   mathlib:mathlib_base.obj
 0002:000273e0       ?MatrixAngles@@YAXABUmatrix3x4_t@@AAVQuaternion@@AAVVector@@@Z 101403e0 f   mathlib:mathlib_base.obj
 0002:00027630       ?VectorRotate@@YAXABVVector@@ABVQAngle@@AAV1@@Z 10140630 f   mathlib:mathlib_base.obj
 0002:00027700       ?VectorRotate@@YAXABVVector@@ABVQuaternion@@AAV1@@Z 10140700 f   mathlib:mathlib_base.obj
 0002:00027930       ?TransformAnglesToWorldSpace@@YA?AVQAngle@@ABV1@ABUmatrix3x4_t@@@Z 10140930 f   mathlib:mathlib_base.obj
 0002:00027980       ?MatrixInitialize@@YAXAAUmatrix3x4_t@@ABVVector@@111@Z 10140980 f   mathlib:mathlib_base.obj
 0002:000279f0       ?MatrixInvert@@YAXABUmatrix3x4_t@@AAU1@@Z 101409f0 f   mathlib:mathlib_base.obj
 0002:00027b50       ?VectorPerpendicularToVector@@YAXABVVector@@PAV1@@Z 10140b50 f   mathlib:mathlib_base.obj
 0002:00027ce0       ?AngleMatrix@@YAXABVRadianEuler@@AAUmatrix3x4_t@@@Z 10140ce0 f   mathlib:mathlib_base.obj
 0002:00027d40       ?AngleMatrix@@YAXABVQAngle@@ABVVector@@AAUmatrix3x4_t@@@Z 10140d40 f   mathlib:mathlib_base.obj
 0002:00027d80       ?AngleIMatrix@@YAXABVRadianEuler@@AAUmatrix3x4_t@@@Z 10140d80 f   mathlib:mathlib_base.obj
 0002:00027de0       ?AngleIMatrix@@YAXABVQAngle@@ABVVector@@AAUmatrix3x4_t@@@Z 10140de0 f   mathlib:mathlib_base.obj
 0002:00027ec0       ?SolveInverseQuadraticMonotonic@@YA_NMMMMMMAAM00@Z 10140ec0 f   mathlib:mathlib_base.obj
 0002:00028200       ?QuaternionBlendNoAlign@@YAXABVQuaternion@@0MAAV1@@Z 10141200 f   mathlib:mathlib_base.obj
 0002:00028350       ?QuaternionIdentityBlend@@YAXABVQuaternion@@MAAV1@@Z 10141350 f   mathlib:mathlib_base.obj
 0002:00028470       ?QuaternionSlerp@@YAXABVQuaternion@@0MAAV1@@Z 10141470 f   mathlib:mathlib_base.obj
 0002:000284c0       ?QuaternionAngleDiff@@YAMABVQuaternion@@0@Z 101414c0 f   mathlib:mathlib_base.obj
 0002:000285c0       ?QuaternionInvert@@YAXABVQuaternion@@AAV1@@Z 101415c0 f   mathlib:mathlib_base.obj
 0002:000286b0       ?QuaternionLookAt@@YAXABVVector@@0AAVQuaternion@@@Z 101416b0 f   mathlib:mathlib_base.obj
 0002:000289a0       ?QuaternionMatrix@@YAXABVQuaternion@@ABVVector@@AAUmatrix3x4_t@@@Z 101419a0 f   mathlib:mathlib_base.obj
 0002:00028be0       ?QuaternionAngles@@YAXABVQuaternion@@AAVQAngle@@@Z 10141be0 f   mathlib:mathlib_base.obj
 0002:00028dc0       ?BasisToQuaternion@@YAXABVVector@@00AAVQuaternion@@@Z 10141dc0 f   mathlib:mathlib_base.obj
 0002:00028e90       ?MatrixQuaternion@@YAXABUmatrix3x4_t@@AAVQuaternion@@@Z 10141e90 f   mathlib:mathlib_base.obj
 0002:00028ec0       ?QuaternionAngles@@YAXABVQuaternion@@AAVRadianEuler@@@Z 10141ec0 f   mathlib:mathlib_base.obj
 0002:000290f0       ?TransformAABB@@YAXABUmatrix3x4_t@@ABVVector@@1AAV2@2@Z 101420f0 f   mathlib:mathlib_base.obj
 0002:00029350       ?ITransformAABB@@YAXABUmatrix3x4_t@@ABVVector@@1AAV2@2@Z 10142350 f   mathlib:mathlib_base.obj
 0002:00029580       ?RotateAABB@@YAXABUmatrix3x4_t@@ABVVector@@1AAV2@2@Z 10142580 f   mathlib:mathlib_base.obj
 0002:000297d0       ?IRotateAABB@@YAXABUmatrix3x4_t@@ABVVector@@1AAV2@2@Z 101427d0 f   mathlib:mathlib_base.obj
 0002:000299f0       ?CalcDistanceSqrToLine@@YAMABVVector@@00PAM@Z 101429f0 f   mathlib:mathlib_base.obj
 0002:00029ad0       ?CalcDistanceSqrToLineSegment@@YAMABVVector@@00PAM@Z 10142ad0 f   mathlib:mathlib_base.obj
 0002:00029b30       ?RotationDelta@@YAXABVQAngle@@0PAV1@@Z 10142b30 f   mathlib:mathlib_base.obj
 0002:00029bf0       ?GeneratePerspectiveFrustum@@YAXABVVector@@ABVQAngle@@MMMMAAVFrustum_t@@@Z 10142bf0 f   mathlib:mathlib_base.obj
 0002:00029d40       ?TransformAnglesToLocalSpace@@YA?AVQAngle@@ABV1@ABUmatrix3x4_t@@@Z 10142d40 f   mathlib:mathlib_base.obj
 0002:00029db0       ?AngleMatrix@@YAXABVRadianEuler@@ABVVector@@AAUmatrix3x4_t@@@Z 10142db0 f   mathlib:mathlib_base.obj
 0002:00029e30       ?QuaternionBlend@@YAXABVQuaternion@@0MAAV1@@Z 10142e30 f   mathlib:mathlib_base.obj
 0002:00029fa0       _floorf                    10142fa0 f i mathlib:color_conversion.obj
 0002:00029fc0       ?floor@@YAMM@Z             10142fc0 f i mathlib:color_conversion.obj
 0002:00029fe0       ?TexLightToLinear@@YAMHH@Z 10142fe0 f i mathlib:color_conversion.obj
 0002:0002a000       ?RoundFloatToInt@@YAHM@Z   10143000 f i mathlib:color_conversion.obj
 0002:0002a010       ?GammaToLinearFullRange@@YAMM@Z 10143010 f   mathlib:color_conversion.obj
 0002:0002a030       ?LinearToGammaFullRange@@YAMM@Z 10143030 f   mathlib:color_conversion.obj
 0002:0002a050       ?GammaToLinear@@YAMM@Z     10143050 f   mathlib:color_conversion.obj
 0002:0002a0b0       ?LinearToGamma@@YAMM@Z     101430b0 f   mathlib:color_conversion.obj
 0002:0002a110       ?SrgbGammaToLinear@@YAMM@Z 10143110 f   mathlib:color_conversion.obj
 0002:0002a1a0       ?SrgbLinearToGamma@@YAMM@Z 101431a0 f   mathlib:color_conversion.obj
 0002:0002a230       ?X360GammaToLinear@@YAMM@Z 10143230 f   mathlib:color_conversion.obj
 0002:0002a3b0       ?X360LinearToGamma@@YAMM@Z 101433b0 f   mathlib:color_conversion.obj
 0002:0002a4a0       ?SrgbGammaTo360Gamma@@YAMM@Z 101434a0 f   mathlib:color_conversion.obj
 0002:0002a530       ?TextureToLinear@@YAMH@Z   10143530 f   mathlib:color_conversion.obj
 0002:0002a560       ?LinearToTexture@@YAHM@Z   10143560 f   mathlib:color_conversion.obj
 0002:0002a5b0       ?LinearToScreenGamma@@YAHM@Z 101435b0 f   mathlib:color_conversion.obj
 0002:0002a600       ?ColorRGBExp32ToVector@@YAXABUColorRGBExp32@@AAVVector@@@Z 10143600 f   mathlib:color_conversion.obj
 0002:0002a6c0       ?VectorToColorRGBExp32@@YAXABVVector@@AAUColorRGBExp32@@@Z 101436c0 f   mathlib:color_conversion.obj
 0002:0002a790       ?BuildGammaTable@@YAXMMMH@Z 10143790 f   mathlib:color_conversion.obj
 0002:0002abc0       ?ReplicateX4@@YA?AT__m128@@M@Z 10143bc0 f i mathlib:sseconst.obj
 0002:0002abe0       ?SubSIMD@@YA?AT__m128@@ABT1@0@Z 10143be0 f i mathlib:sseconst.obj
 0002:0002ac00       ?DivSIMD@@YA?AT__m128@@ABT1@0@Z 10143c00 f i mathlib:sseconst.obj
 0002:0002ac20       ?MaddSIMD@@YA?AT__m128@@ABT1@00@Z 10143c20 f i mathlib:sseconst.obj
 0002:0002ac50       ??0FourVectors@@QAE@XZ     10143c50 f i mathlib:sseconst.obj
 0002:0002ac60       ??YFourVectors@@QAEXABV0@@Z 10143c60 f i mathlib:sseconst.obj
 0002:0002acb0       ??ZFourVectors@@QAEXABV0@@Z 10143cb0 f i mathlib:sseconst.obj
 0002:0002ad00       ??XFourVectors@@QAEXABT__m128@@@Z 10143d00 f i mathlib:sseconst.obj
 0002:0002ad50       ??DFourVectors@@QBE?AT__m128@@ABV0@@Z 10143d50 f i mathlib:sseconst.obj
 0002:0002ada0       ??4FourVectors@@QAEXABV0@@Z 10143da0 f i mathlib:sseconst.obj
 0002:0002add0       ?RotateManyBy@FourVectors@@SAXPIAV1@IABUmatrix3x4_t@@@Z 10143dd0 f   mathlib:sseconst.obj
 0002:0002af40       ?CalcClosestPointToLineTSIMD@FourVectors@@SA?AT__m128@@ABV1@00AAV1@@Z 10143f40 f   mathlib:sseconst.obj
 0002:0002b020       ?RotateManyBy@FourVectors@@SAXPIAV1@IABUmatrix3x4_t@@0@Z 10144020 f   mathlib:sseconst.obj
 0002:0002b160       ?CalcClosestPointOnLineSIMD@FourVectors@@SAXABV1@00AAV1@PAT__m128@@@Z 10144160 f   mathlib:sseconst.obj
 0002:0002b1f0       ?ThreadInterlockedAssignIf@@YA_NPCHHH@Z 101441f0 f i mathlib:randsse.obj
 0002:0002b220       ?CmpGeSIMD@@YA?AT__m128@@ABT1@0@Z 10144220 f i mathlib:randsse.obj
 0002:0002b250       ?Seed@SIMDRandStreamContext@@QAEXI@Z 10144250 f i mathlib:randsse.obj
 0002:0002b370       ?RandSIMD@SIMDRandStreamContext@@QAE?AT__m128@@XZ 10144370 f i mathlib:randsse.obj
 0002:0002b410       ?SeedRandSIMD@@YAXI@Z      10144410 f   mathlib:randsse.obj
 0002:0002b450       ?RandSIMD@@YA?AT__m128@@H@Z 10144450 f   mathlib:randsse.obj
 0002:0002b490       ?GetSIMDRandContext@@YAHXZ 10144490 f   mathlib:randsse.obj
 0002:0002b4f0       ?ReleaseSIMDRandContext@@YAXH@Z 101444f0 f   mathlib:randsse.obj
 0002:0002b510       ?RandSIMD@@YA?AT__m128@@XZ 10144510 f   mathlib:randsse.obj
 0002:0002b540       ?strchr@@YAPADPADH@Z       10144540 f i tier1:strtools.obj
 0002:0002b550       ?strstr@@YAPADPADPBD@Z     10144550 f i tier1:strtools.obj
 0002:0002b560       ?_V_strlen@@YAHPBD@Z       10144560 f   tier1:strtools.obj
 0002:0002b5a0       ?_V_wcslen@@YAHPB_W@Z      101445a0 f   tier1:strtools.obj
 0002:0002b5c0       ?_V_strrchr@@YAPADPBDD@Z   101445c0 f   tier1:strtools.obj
 0002:0002b630       ?_V_strcmp@@YAHPBD0@Z      10144630 f   tier1:strtools.obj
 0002:0002b6a0       ?_V_wcscmp@@YAHPB_W0@Z     101446a0 f   tier1:strtools.obj
 0002:0002b6e0       ?_V_stricmp@@YAHPBD0@Z     101446e0 f   tier1:strtools.obj
 0002:0002b780       ?_V_stricmp_NegativeForUnequal@@YAHPBD0@Z 10144780 f   tier1:strtools.obj
 0002:0002b840       ?_V_strstr@@YAPADPBD0@Z    10144840 f   tier1:strtools.obj
 0002:0002b880       ?_V_strupr@@YAPADPAD@Z     10144880 f   tier1:strtools.obj
 0002:0002b8b0       ?_V_strlower@@YAPADPAD@Z   101448b0 f   tier1:strtools.obj
 0002:0002b8e0       ?V_strncmp@@YAHPBD0H@Z     101448e0 f   tier1:strtools.obj
 0002:0002b950       ?V_strnlwr@@YAPADPADI@Z    10144950 f   tier1:strtools.obj
 0002:0002b9b0       ?V_strncasecmp@@YAHPBD0H@Z 101449b0 f   tier1:strtools.obj
 0002:0002ba50       ?V_strcasecmp@@YAHPBD0@Z   10144a50 f   tier1:strtools.obj
 0002:0002ba90       ?V_strnicmp@@YAHPBD0H@Z    10144a90 f   tier1:strtools.obj
 0002:0002bae0       ?StringAfterPrefix@@YAPBDPBD0@Z 10144ae0 f   tier1:strtools.obj
 0002:0002bb50       ?StringAfterPrefixCaseSensitive@@YAPBDPBD0@Z 10144b50 f   tier1:strtools.obj
 0002:0002bbb0       ?V_atoi64@@YA_JPBD@Z       10144bb0 f   tier1:strtools.obj
 0002:0002bdc0       ?V_atoui64@@YA_KPBD@Z      10144dc0 f   tier1:strtools.obj
 0002:0002bf60       ?V_atoi@@YAHPBD@Z          10144f60 f   tier1:strtools.obj
 0002:0002bf70       ?V_normalizeFloatString@@YAXPAD@Z 10144f70 f   tier1:strtools.obj
 0002:0002c000       ?tolower_fast@@YAEE@Z      10145000 f i tier1:strtools.obj
 0002:0002c020       ?V_stristr@@YAPBDPBD0@Z    10145020 f   tier1:strtools.obj
 0002:0002c130       ?V_stristr@@YAPADPADPBD@Z  10145130 f   tier1:strtools.obj
 0002:0002c170       ?V_strnistr@@YAPBDPBD0H@Z  10145170 f   tier1:strtools.obj
 0002:0002c2a0       ?V_strnchr@@YAPBDPBDDH@Z   101452a0 f   tier1:strtools.obj
 0002:0002c2e0       ?V_strncat@@YAPADPADPBDIH@Z 101452e0 f   tier1:strtools.obj
 0002:0002c3d0       ?V_hextobinary@@YAXPBDHPAEH@Z 101453d0 f   tier1:strtools.obj
 0002:0002c500       ?V_StripTrailingSlash@@YAXPAD@Z 10145500 f   tier1:strtools.obj
 0002:0002c560       ?V_StripFilename@@YAXPAD@Z 10145560 f   tier1:strtools.obj
 0002:0002c5c0       ?V_FixSlashes@@YAXPADD@Z   101455c0 f   tier1:strtools.obj
 0002:0002c5f0       ?V_UnqualifiedFileName@@YAPBDPBD@Z 101455f0 f   tier1:strtools.obj
 0002:0002c640       ?V_ExtractFilePath@@YA_NPBDPADH@Z 10145640 f   tier1:strtools.obj
 0002:0002c6e0       ?V_GetFileExtension@@YAPBDPBD@Z 101456e0 f   tier1:strtools.obj
 0002:0002c740       ?V_RemoveDotSlashes@@YA_NPADD@Z 10145740 f   tier1:strtools.obj
 0002:0002c8f0       ?V_AppendSlash@@YAXPADH@Z  101458f0 f   tier1:strtools.obj
 0002:0002c970       ?V_MakeRelativePath@@YA_NPBD0PADH@Z 10145970 f   tier1:strtools.obj
 0002:0002cb00       ?V_IsAbsolutePath@@YA_NPBD@Z 10145b00 f   tier1:strtools.obj
 0002:0002cba0       ?V_GetCurrentDirectory@@YA_NPADH@Z 10145ba0 f   tier1:strtools.obj
 0002:0002cbd0       ?V_SetCurrentDirectory@@YA_NPBD@Z 10145bd0 f   tier1:strtools.obj
 0002:0002cbf0       ?V_StrSlice@@YAXPBDHHPADH@Z 10145bf0 f   tier1:strtools.obj
 0002:0002ccd0       ?V_StrLeft@@YAXPBDHPADH@Z  10145cd0 f   tier1:strtools.obj
 0002:0002cd10       ?V_strtowcs@@YAXPBDHPA_WH@Z 10145d10 f   tier1:strtools.obj
 0002:0002cd50       ?V_wcstostr@@YAXPB_WHPADH@Z 10145d50 f   tier1:strtools.obj
 0002:0002cd90       ?V_AddBackSlashesToSpecialChars@@YAPADPBD@Z 10145d90 f   tier1:strtools.obj
 0002:0002ce60       ?CopyMemory3D@@YAXPAXPBXHHHHHHH@Z 10145e60 f   tier1:strtools.obj
 0002:0002cf90       ?V_TranslateLineFeedsToUnix@@YAXPAD@Z 10145f90 f   tier1:strtools.obj
 0002:0002cfd0       ?HexToValue@@YAHD@Z        10145fd0 f   tier1:strtools.obj
 0002:0002d020       ?V_StringToBin@@YA_NPBDPAXI@Z 10146020 f   tier1:strtools.obj
 0002:0002d150       ?V_BinToString@@YA_NPADPAXI@Z 10146150 f   tier1:strtools.obj
 0002:0002d1d0       ??$_Pow_int@N@@YANNH@Z     101461d0 f i tier1:strtools.obj
 0002:0002d250       ??$AssertValidWritePtr@X@@YAXPAXH@Z 10146250 f i tier1:strtools.obj
 0002:0002d260       ??$AssertValidReadPtr@$$CBX@@YAXPBXH@Z 10146260 f i tier1:strtools.obj
 0002:0002d270       ??$AssertValidWritePtr@D@@YAXPADH@Z 10146270 f i tier1:strtools.obj
 0002:0002d280       ??$AssertValidWritePtr@_W@@YAXPA_WH@Z 10146280 f i tier1:strtools.obj
 0002:0002d290       ??$AssertValidReadPtr@$$CB_W@@YAXPB_WH@Z 10146290 f i tier1:strtools.obj
 0002:0002d2a0       ??A?$CUtlMemory@PADH@@QAEAAPADH@Z 101462a0 f i tier1:strtools.obj
 0002:0002d2b0       ?Base@?$CUtlMemory@PADH@@QAEPAPADXZ 101462b0 f i tier1:strtools.obj
 0002:0002d2c0       ?Element@?$CUtlVector@PADV?$CUtlMemory@PADH@@@@QAEAAPADH@Z 101462c0 f i tier1:strtools.obj
 0002:0002d2d0       ??$CopyConstruct@PAD@@YAPAPADPAPADABQAD@Z 101462d0 f i tier1:strtools.obj
 0002:0002d2f0       ??$Destruct@PAD@@YAXPAPAD@Z 101462f0 f i tier1:strtools.obj
 0002:0002d300       ?IsExternallyAllocated@?$CUtlMemory@PADH@@QBE_NXZ 10146300 f i tier1:strtools.obj
 0002:0002d310       ?NumAllocated@?$CUtlMemory@PADH@@QBEHXZ 10146310 f i tier1:strtools.obj
 0002:0002d320       ?Grow@?$CUtlMemory@PADH@@QAEXH@Z 10146320 f i tier1:strtools.obj
 0002:0002d3e0       ?pow@@YANNH@Z              101463e0 f i tier1:strtools.obj
 0002:0002d400       ?_V_memset@@YAXPAXHH@Z     10146400 f   tier1:strtools.obj
 0002:0002d430       ?_V_memcpy@@YAXPAXPBXH@Z   10146430 f   tier1:strtools.obj
 0002:0002d470       ?_V_memmove@@YAXPAXPBXH@Z  10146470 f   tier1:strtools.obj
 0002:0002d4b0       ?_V_memcmp@@YAHPBX0H@Z     101464b0 f   tier1:strtools.obj
 0002:0002d590       ?_V_strcpy@@YAXPADPBD@Z    10146590 f   tier1:strtools.obj
 0002:0002d5e0       ?V_atof@@YAMPBD@Z          101465e0 f   tier1:strtools.obj
 0002:0002d850       ?V_strncpy@@YAXPADPBDH@Z   10146850 f   tier1:strtools.obj
 0002:0002d8a0       ?V_wcsncpy@@YAXPA_WPB_WH@Z 101468a0 f   tier1:strtools.obj
 0002:0002d8f0       ?V_snwprintf@@YAHPA_WHPB_WZZ 101468f0 f   tier1:strtools.obj
 0002:0002d950       ?V_snprintf@@YAHPADHPBDZZ  10146950 f   tier1:strtools.obj
 0002:0002d9b0       ?V_vsnprintf@@YAHPADHPBD0@Z 101469b0 f   tier1:strtools.obj
 0002:0002da10       ?V_pretifymem@@YAPADMH_N@Z 10146a10 f   tier1:strtools.obj
 0002:0002dc30       ?V_pretifynum@@YAPAD_J@Z   10146c30 f   tier1:strtools.obj
 0002:0002dfe0       ?V_UTF8ToUnicode@@YAHPBDPA_WH@Z 10146fe0 f   tier1:strtools.obj
 0002:0002e050       ?V_UnicodeToUTF8@@YAHPB_WPADH@Z 10147050 f   tier1:strtools.obj
 0002:0002e0b0       ?V_UCS2ToUnicode@@YAHPB_WPA_WH@Z 101470b0 f   tier1:strtools.obj
 0002:0002e140       ?V_UCS2ToUTF8@@YAHPB_WPADH@Z 10147140 f   tier1:strtools.obj
 0002:0002e1a0       ?V_binarytohex@@YAXPBEHPADH@Z 101471a0 f   tier1:strtools.obj
 0002:0002e280       ?V_FileBase@@YAXPBDPADH@Z  10147280 f   tier1:strtools.obj
 0002:0002e380       ?V_StripExtension@@YAXPBDPADH@Z 10147380 f   tier1:strtools.obj
 0002:0002e470       ?V_DefaultExtension@@YAXPADPBDH@Z 10147470 f   tier1:strtools.obj
 0002:0002e5d0       ?V_SetExtension@@YAXPADPBDH@Z 101475d0 f   tier1:strtools.obj
 0002:0002e600       ?V_FixDoubleSlashes@@YAXPAD@Z 10147600 f   tier1:strtools.obj
 0002:0002e6e0       ?V_StripLastDir@@YA_NPADH@Z 101476e0 f   tier1:strtools.obj
 0002:0002e7b0       ?V_ComposeFileName@@YAXPBD0PADH@Z 101477b0 f   tier1:strtools.obj
 0002:0002e8d0       ?V_ExtractFileExtension@@YAXPBDPADH@Z 101478d0 f   tier1:strtools.obj
 0002:0002e930       ?V_MakeAbsolutePath@@YAXPADHPBD1@Z 10147930 f   tier1:strtools.obj
 0002:0002ea90       ?V_FixupPathName@@YAXPADIPBD@Z 10147a90 f   tier1:strtools.obj
 0002:0002eb30       ?V_StrSubst@@YA_NPBD00PADH_N@Z 10147b30 f   tier1:strtools.obj
 0002:0002ec70       ?AllocString@@YAPADPBDH@Z  10147c70 f   tier1:strtools.obj
 0002:0002ed10       ?V_StrRight@@YAXPBDHPADH@Z 10147d10 f   tier1:strtools.obj
 0002:0002edc0       ?V_StringToIntArray@@YAXPAHHPBD@Z 10147dc0 f   tier1:strtools.obj
 0002:0002eea0       ?V_StringToColor32@@YAXPAUcolor32_s@@PBD@Z 10147ea0 f   tier1:strtools.obj
 0002:0002eef0       ?Base@?$CUtlVector@PADV?$CUtlMemory@PADH@@@@QAEPAPADXZ 10147ef0 f i tier1:strtools.obj
 0002:0002ef00       ?RemoveAll@?$CUtlVector@PADV?$CUtlMemory@PADH@@@@QAEXXZ 10147f00 f i tier1:strtools.obj
 0002:0002ef10       ?Purge@?$CUtlMemory@PADH@@QAEXXZ 10147f10 f i tier1:strtools.obj
 0002:0002ef50       ?ShiftElementsRight@?$CUtlVector@PADV?$CUtlMemory@PADH@@@@IAEXHH@Z 10147f50 f i tier1:strtools.obj
 0002:0002efb0       ?ResetDbgInfo@?$CUtlVector@PADV?$CUtlMemory@PADH@@@@IAEXXZ 10147fb0 f i tier1:strtools.obj
 0002:0002efc0       ?GrowVector@?$CUtlVector@PADV?$CUtlMemory@PADH@@@@IAEXH@Z 10147fc0 f i tier1:strtools.obj
 0002:0002f000       ?Purge@?$CUtlVector@PADV?$CUtlMemory@PADH@@@@QAEXXZ 10148000 f i tier1:strtools.obj
 0002:0002f060       ?InsertBefore@?$CUtlVector@PADV?$CUtlMemory@PADH@@@@QAEHHABQAD@Z 10148060 f i tier1:strtools.obj
 0002:0002f110       ?AddToTail@?$CUtlVector@PADV?$CUtlMemory@PADH@@@@QAEHABQAD@Z 10148110 f i tier1:strtools.obj
 0002:0002f130       ?V_SplitString2@@YAXPBDPAPBDHAAV?$CUtlVector@PADV?$CUtlMemory@PADH@@@@@Z 10148130 f   tier1:strtools.obj
 0002:0002f2b0       ?V_SplitString@@YAXPBD0AAV?$CUtlVector@PADV?$CUtlMemory@PADH@@@@@Z 101482b0 f   tier1:strtools.obj
 0002:0002f2d0       ??0Color@@QAE@XZ           101482d0 f i tier1:convar.obj
 0002:0002f2e0       ??AColor@@QAEAAEH@Z        101482e0 f i tier1:convar.obj
 0002:0002f2f0       ?ArgC@CCommand@@QBEHXZ     101482f0 f i tier1:convar.obj
 0002:0002f300       ?Arg@CCommand@@QBEPBDH@Z   10148300 f i tier1:convar.obj
 0002:0002f330       ?GetString@ConVar@@QBEPBDXZ 10148330 f i tier1:convar.obj
 0002:0002f360       ?TellGet@CUtlBuffer@@QBEHXZ 10148360 f i tier1:convar.obj
 0002:0002f370       ?IsValid@CUtlBuffer@@QBE_NXZ 10148370 f i tier1:convar.obj
 0002:0002f380       ?ConVar_Register@@YAXHPAVIConCommandBaseAccessor@@@Z 10148380 f   tier1:convar.obj
 0002:0002f460       ?ConVar_Unregister@@YAXXZ  10148460 f   tier1:convar.obj
 0002:0002f4c0       ??0ConCommandBase@@QAE@XZ  101484c0 f   tier1:convar.obj
 0002:0002f4e0       ??1ConCommandBase@@UAE@XZ  101484e0 f   tier1:convar.obj
 0002:0002f4f0       ?IsCommand@ConCommandBase@@UBE_NXZ 101484f0 f   tier1:convar.obj
 0002:0002f500       ?GetDLLIdentifier@ConCommandBase@@UBEHXZ 10148500 f   tier1:convar.obj
 0002:0002f510       ?Create@ConCommandBase@@MAEXPBD0H@Z 10148510 f   tier1:convar.obj
 0002:0002f570       ?Init@ConCommandBase@@MAEXXZ 10148570 f   tier1:convar.obj
 0002:0002f590       ?Shutdown@ConCommandBase@@IAEXXZ 10148590 f   tier1:convar.obj
 0002:0002f5b0       ?GetName@ConCommandBase@@UBEPBDXZ 101485b0 f   tier1:convar.obj
 0002:0002f5c0       ?IsFlagSet@ConCommandBase@@UBE_NH@Z 101485c0 f   tier1:convar.obj
 0002:0002f5d0       ?AddFlags@ConCommandBase@@UAEXH@Z 101485d0 f   tier1:convar.obj
 0002:0002f5e0       ?RemoveFlags@ConCommandBase@@UAEXH@Z 101485e0 f   tier1:convar.obj
 0002:0002f5f0       ?GetFlags@ConCommandBase@@UBEHXZ 101485f0 f   tier1:convar.obj
 0002:0002f600       ?GetNext@ConCommandBase@@QBEPBV1@XZ 10148600 f   tier1:convar.obj
 0002:0002f610       ?GetNext@ConCommandBase@@QAEPAV1@XZ 10148610 f   tier1:convar.obj
 0002:0002f620       ?CopyString@ConCommandBase@@IAEPADPBD@Z 10148620 f   tier1:convar.obj
 0002:0002f690       ?GetHelpText@ConCommandBase@@UBEPBDXZ 10148690 f   tier1:convar.obj
 0002:0002f6a0       ?IsRegistered@ConCommandBase@@UBE_NXZ 101486a0 f   tier1:convar.obj
 0002:0002f6b0       ?Reset@CCommand@@QAEXXZ    101486b0 f   tier1:convar.obj
 0002:0002f6c0       ?DefaultBreakSet@CCommand@@SAPAUcharacterset_t@@XZ 101486c0 f   tier1:convar.obj
 0002:0002f6d0       ?FindArg@CCommand@@QBEPBDPBD@Z 101486d0 f   tier1:convar.obj
 0002:0002f770       ?FindArgInt@CCommand@@QBEHPBDH@Z 10148770 f   tier1:convar.obj
 0002:0002f7a0       ?DefaultCompletionFunc@@YAHPBDQAY0EA@D@Z 101487a0 f   tier1:convar.obj
 0002:0002f7b0       ??0ConCommand@@QAE@PBDP6AXXZ0HP6AH0QAY0EA@D@Z@Z 101487b0 f   tier1:convar.obj
 0002:0002f870       ??0ConCommand@@QAE@PBDP6AXABVCCommand@@@Z0HP6AH0QAY0EA@D@Z@Z 10148870 f   tier1:convar.obj
 0002:0002f930       ??0ConCommand@@QAE@PBDPAVICommandCallback@@0HPAVICommandCompletionCallback@@@Z 10148930 f   tier1:convar.obj
 0002:0002f9e0       ??1ConCommand@@UAE@XZ      101489e0 f   tier1:convar.obj
 0002:0002f9f0       ?IsCommand@ConCommand@@UBE_NXZ 101489f0 f   tier1:convar.obj
 0002:0002fa00       ?Dispatch@ConCommand@@UAEXABVCCommand@@@Z 10148a00 f   tier1:convar.obj
 0002:0002fa50       ?CanAutoComplete@ConCommand@@UAE_NXZ 10148a50 f   tier1:convar.obj
 0002:0002fa60       ??0IConVar@@QAE@XZ         10148a60 f i tier1:convar.obj
 0002:0002fa70       ?IsFlagSet@ConVar@@UBE_NH@Z 10148a70 f   tier1:convar.obj
 0002:0002fa90       ?GetFlags@ConVar@@UBEHXZ   10148a90 f   tier1:convar.obj
 0002:0002faa0       ?GetHelpText@ConVar@@UBEPBDXZ 10148aa0 f   tier1:convar.obj
 0002:0002fab0       ?AddFlags@ConVar@@UAEXH@Z  10148ab0 f   tier1:convar.obj
 0002:0002fac0       ?IsRegistered@ConVar@@UBE_NXZ 10148ac0 f   tier1:convar.obj
 0002:0002fad0       ?GetName@ConVar@@UBEPBDXZ  10148ad0 f   tier1:convar.obj
 0002:0002fae0       ?GetBaseName@ConVar@@UBEPBDXZ 10148ae0 f   tier1:convar.obj
 0002:0002faf0       ?GetSplitScreenPlayerSlot@ConVar@@UBEHXZ 10148af0 f   tier1:convar.obj
 0002:0002fb00       ?IsCommand@ConVar@@UBE_NXZ 10148b00 f   tier1:convar.obj
 0002:0002fb10       ?Init@ConVar@@EAEXXZ       10148b10 f   tier1:convar.obj
 0002:0002fb30       ?InternalSetColorFromString@ConVar@@AAE_NPBD@Z 10148b30 f   tier1:convar.obj
 0002:0002fc00       ?InternalSetValue@ConVar@@EAEXPBD@Z 10148c00 f   tier1:convar.obj
 0002:0002fd70       ?ClampValue@ConVar@@EAE_NAAM@Z 10148d70 f   tier1:convar.obj
 0002:0002fdc0       ?InternalSetFloatValue@ConVar@@EAEXM@Z 10148dc0 f   tier1:convar.obj
 0002:0002fed0       ?InternalSetIntValue@ConVar@@EAEXH@Z 10148ed0 f   tier1:convar.obj
 0002:0002ffd0       ?InternalSetColorValue@ConVar@@EAEXVColor@@@Z 10148fd0 f   tier1:convar.obj
 0002:00030010       ?SetValue@ConVar@@UAEXPBD@Z 10149010 f   tier1:convar.obj
 0002:00030020       ?SetValue@ConVar@@UAEXM@Z  10149020 f   tier1:convar.obj
 0002:00030040       ?SetValue@ConVar@@UAEXH@Z  10149040 f   tier1:convar.obj
 0002:00030050       ?SetValue@ConVar@@UAEXVColor@@@Z 10149050 f   tier1:convar.obj
 0002:00030060       ?Revert@ConVar@@QAEXXZ     10149060 f   tier1:convar.obj
 0002:00030080       ?GetMin@ConVar@@QBE_NAAM@Z 10149080 f   tier1:convar.obj
 0002:000300a0       ?GetMax@ConVar@@QBE_NAAM@Z 101490a0 f   tier1:convar.obj
 0002:000300c0       ?GetMinValue@ConVar@@QBEMXZ 101490c0 f   tier1:convar.obj
 0002:000300d0       ?GetMaxValue@ConVar@@QBEMXZ 101490d0 f   tier1:convar.obj
 0002:000300e0       ?HasMin@ConVar@@QBE_NXZ    101490e0 f   tier1:convar.obj
 0002:000300f0       ?HasMax@ConVar@@QBE_NXZ    101490f0 f   tier1:convar.obj
 0002:00030100       ?GetDefault@ConVar@@QBEPBDXZ 10149100 f   tier1:convar.obj
 0002:00030110       ??0ConVarRef@@QAE@PAVIConVar@@@Z 10149110 f   tier1:convar.obj
 0002:00030140       ?IsValid@ConVarRef@@QBE_NXZ 10149140 f   tier1:convar.obj
 0002:00030150       ??0SplitScreenConVarRef@@QAE@PAVIConVar@@@Z 10149150 f   tier1:convar.obj
 0002:00030270       ?IsValid@SplitScreenConVarRef@@QBE_NXZ 10149270 f   tier1:convar.obj
 0002:00030280       ?ConVar_AppendFlags@@YAXPBVConCommandBase@@PADI@Z 10149280 f   tier1:convar.obj
 0002:00030390       ?ConVar_PrintDescription@@YAXPBVConCommandBase@@@Z 10149390 f   tier1:convar.obj
 0002:00030730       ?IsExternallyAllocated@?$CUtlMemory@EH@@QBE_NXZ 10149730 f i tier1:convar.obj
 0002:00030740       ?Count@?$CUtlVector@P6AXPAVIConVar@@PBDM@ZV?$CUtlMemory@P6AXPAVIConVar@@PBDM@ZH@@@@QBEHXZ 10149740 f i tier1:convar.obj
 0002:00030750       ?InvalidIndex@?$CUtlVector@P6AXPAVIConVar@@PBDM@ZV?$CUtlMemory@P6AXPAVIConVar@@PBDM@ZH@@@@SAHXZ 10149750 f i tier1:convar.obj
 0002:00030760       ??A?$CUtlMemory@P6AXPAVIConVar@@PBDM@ZH@@QAEAAP6AXPAVIConVar@@PBDM@ZH@Z 10149760 f i tier1:convar.obj
 0002:00030770       ?Base@?$CUtlMemory@P6AXPAVIConVar@@PBDM@ZH@@QAEPAP6AXPAVIConVar@@PBDM@ZXZ 10149770 f i tier1:convar.obj
 0002:00030780       ?ValidateGrowSize@?$CUtlMemory@P6AXPAVIConVar@@PBDM@ZH@@IAEXXZ 10149780 f i tier1:convar.obj
 0002:00030790       ?Element@?$CUtlVector@P6AXPAVIConVar@@PBDM@ZV?$CUtlMemory@P6AXPAVIConVar@@PBDM@ZH@@@@QAEAAP6AXPAVIConVar@@PBDM@ZH@Z 10149790 f i tier1:convar.obj
 0002:000307a0       ?ShiftElementsRight@?$CUtlVector@P6AXPAVIConVar@@PBDM@ZV?$CUtlMemory@P6AXPAVIConVar@@PBDM@ZH@@@@IAEXHH@Z 101497a0 f i tier1:convar.obj
 0002:000307f0       ?ShiftElementsLeft@?$CUtlVector@P6AXPAVIConVar@@PBDM@ZV?$CUtlMemory@P6AXPAVIConVar@@PBDM@ZH@@@@IAEXHH@Z 101497f0 f i tier1:convar.obj
 0002:00030840       ??A?$CUtlMemory@P6AXPAVIConVar@@PBDM@ZH@@QBEABQ6AXPAVIConVar@@PBDM@ZH@Z 10149840 f i tier1:convar.obj
 0002:00030850       ??$CopyConstruct@P6AXPAVIConVar@@PBDM@Z@@YAPAP6AXPAVIConVar@@PBDM@ZPAP6AX01M@ZABQ6AX01M@Z@Z 10149850 f i tier1:convar.obj
 0002:00030870       ??$Destruct@P6AXPAVIConVar@@PBDM@Z@@YAXPAP6AXPAVIConVar@@PBDM@Z@Z 10149870 f i tier1:convar.obj
 0002:00030880       ??$CopyConstruct@VCUtlString@@@@YAPAVCUtlString@@PAV0@ABV0@@Z 10149880 f i tier1:convar.obj
 0002:000308a0       ?NumAllocated@?$CUtlMemory@P6AXPAVIConVar@@PBDM@ZH@@QBEHXZ 101498a0 f i tier1:convar.obj
 0002:000308b0       ?IsExternallyAllocated@?$CUtlMemory@P6AXPAVIConVar@@PBDM@ZH@@QBE_NXZ 101498b0 f i tier1:convar.obj
 0002:000308c0       ??A?$CUtlMemory@VCUtlString@@H@@QAEAAVCUtlString@@H@Z 101498c0 f i tier1:convar.obj
 0002:000308d0       ?Base@?$CUtlMemory@VCUtlString@@H@@QAEPAVCUtlString@@XZ 101498d0 f i tier1:convar.obj
 0002:000308e0       ?NumAllocated@?$CUtlMemory@VCUtlString@@H@@QBEHXZ 101498e0 f i tier1:convar.obj
 0002:000308f0       ?IsExternallyAllocated@?$CUtlMemory@VCUtlString@@H@@QBE_NXZ 101498f0 f i tier1:convar.obj
 0002:00030900       ??0CDefaultAccessor@@QAE@XZ 10149900 f i tier1:convar.obj
 0002:00030910       ?RegisterConCommandBase@CDefaultAccessor@@UAE_NPAVConCommandBase@@@Z 10149910 f i tier1:convar.obj
 0002:00030930       ??_GConCommandBase@@UAEPAXI@Z 10149930 f i tier1:convar.obj
 0002:00030930       ??_EConCommandBase@@UAEPAXI@Z 10149930 f i tier1:convar.obj
 0002:00030960       ??0ConCommandBase@@QAE@PBD0H@Z 10149960 f   tier1:convar.obj
 0002:000309e0       ??0CCommand@@QAE@XZ        101499e0 f   tier1:convar.obj
 0002:00030a30       ??0CCommand@@QAE@HPAPBD@Z  10149a30 f   tier1:convar.obj
 0002:00030ba0       ??_EConCommand@@UAEPAXI@Z  10149ba0 f i tier1:convar.obj
 0002:00030ba0       ??_GConCommand@@UAEPAXI@Z  10149ba0 f i tier1:convar.obj
 0002:00030bd0       ?Init@ConVarRef@@QAEXPBD_N@Z 10149bd0 f   tier1:convar.obj
 0002:00030c70       ?Init@SplitScreenConVarRef@@QAEXPBD_N@Z 10149c70 f   tier1:convar.obj
 0002:00030da0       ?Purge@?$CUtlMemory@EH@@QAEXXZ 10149da0 f i tier1:convar.obj
 0002:00030de0       ??A?$CUtlVector@P6AXPAVIConVar@@PBDM@ZV?$CUtlMemory@P6AXPAVIConVar@@PBDM@ZH@@@@QAEAAP6AXPAVIConVar@@PBDM@ZH@Z 10149de0 f i tier1:convar.obj
 0002:00030df0       ?Base@?$CUtlVector@P6AXPAVIConVar@@PBDM@ZV?$CUtlMemory@P6AXPAVIConVar@@PBDM@ZH@@@@QAEPAP6AXPAVIConVar@@PBDM@ZXZ 10149df0 f i tier1:convar.obj
 0002:00030e00       ?Element@?$CUtlVector@P6AXPAVIConVar@@PBDM@ZV?$CUtlMemory@P6AXPAVIConVar@@PBDM@ZH@@@@QBEABQ6AXPAVIConVar@@PBDM@ZH@Z 10149e00 f i tier1:convar.obj
 0002:00030e10       ?Remove@?$CUtlVector@P6AXPAVIConVar@@PBDM@ZV?$CUtlMemory@P6AXPAVIConVar@@PBDM@ZH@@@@QAEXH@Z 10149e10 f i tier1:convar.obj
 0002:00030e50       ??0?$CUtlMemory@P6AXPAVIConVar@@PBDM@ZH@@QAE@HH@Z 10149e50 f i tier1:convar.obj
 0002:00030ea0       ?RemoveAll@?$CUtlVector@P6AXPAVIConVar@@PBDM@ZV?$CUtlMemory@P6AXPAVIConVar@@PBDM@ZH@@@@QAEXXZ 10149ea0 f i tier1:convar.obj
 0002:00030eb0       ?Purge@?$CUtlMemory@P6AXPAVIConVar@@PBDM@ZH@@QAEXXZ 10149eb0 f i tier1:convar.obj
 0002:00030ef0       ?Element@?$CUtlVector@VCUtlString@@V?$CUtlMemory@VCUtlString@@H@@@@QAEAAVCUtlString@@H@Z 10149ef0 f i tier1:convar.obj
 0002:00030f00       ?ShiftElementsRight@?$CUtlVector@VCUtlString@@V?$CUtlMemory@VCUtlString@@H@@@@IAEXHH@Z 10149f00 f i tier1:convar.obj
 0002:00030f50       ?Base@?$CUtlVector@VCUtlString@@V?$CUtlMemory@VCUtlString@@H@@@@QAEPAVCUtlString@@XZ 10149f50 f i tier1:convar.obj
 0002:00030f60       ?Grow@?$CUtlMemory@P6AXPAVIConVar@@PBDM@ZH@@QAEXH@Z 10149f60 f i tier1:convar.obj
 0002:00031020       ?Grow@?$CUtlMemory@VCUtlString@@H@@QAEXH@Z 1014a020 f i tier1:convar.obj
 0002:000310d0       ?ChangeStringValue@ConVar@@EAEXPBDM@Z 1014a0d0 f   tier1:convar.obj
 0002:000311b0       ??0ConVarRef@@QAE@PBD@Z    1014a1b0 f   tier1:convar.obj
 0002:000311d0       ??0ConVarRef@@QAE@PBD_N@Z  1014a1d0 f   tier1:convar.obj
 0002:000311f0       ??0SplitScreenConVarRef@@QAE@PBD@Z 1014a1f0 f   tier1:convar.obj
 0002:00031210       ??0SplitScreenConVarRef@@QAE@PBD_N@Z 1014a210 f   tier1:convar.obj
 0002:00031230       ??1?$CUtlMemory@EH@@QAE@XZ 1014a230 f i tier1:convar.obj
 0002:00031270       ?Find@?$CUtlVector@P6AXPAVIConVar@@PBDM@ZV?$CUtlMemory@P6AXPAVIConVar@@PBDM@ZH@@@@QBEHABQ6AXPAVIConVar@@PBDM@Z@Z 1014a270 f i tier1:convar.obj
 0002:000312a0       ?FindAndRemove@?$CUtlVector@P6AXPAVIConVar@@PBDM@ZV?$CUtlMemory@P6AXPAVIConVar@@PBDM@ZH@@@@QAE_NABQ6AXPAVIConVar@@PBDM@Z@Z 1014a2a0 f i tier1:convar.obj
 0002:00031320       ?ResetDbgInfo@?$CUtlVector@P6AXPAVIConVar@@PBDM@ZV?$CUtlMemory@P6AXPAVIConVar@@PBDM@ZH@@@@IAEXXZ 1014a320 f i tier1:convar.obj
 0002:00031330       ?Purge@?$CUtlVector@P6AXPAVIConVar@@PBDM@ZV?$CUtlMemory@P6AXPAVIConVar@@PBDM@ZH@@@@QAEXXZ 1014a330 f i tier1:convar.obj
 0002:00031390       ??1?$CUtlMemory@P6AXPAVIConVar@@PBDM@ZH@@QAE@XZ 1014a390 f i tier1:convar.obj
 0002:000313d0       ?GrowVector@?$CUtlVector@P6AXPAVIConVar@@PBDM@ZV?$CUtlMemory@P6AXPAVIConVar@@PBDM@ZH@@@@IAEXH@Z 1014a3d0 f i tier1:convar.obj
 0002:00031410       ?ResetDbgInfo@?$CUtlVector@VCUtlString@@V?$CUtlMemory@VCUtlString@@H@@@@IAEXXZ 1014a410 f i tier1:convar.obj
 0002:00031420       ??1CUtlBuffer@@QAE@XZ      1014a420 f i tier1:convar.obj
 0002:00031460       ??1CUtlBinaryBlock@@QAE@XZ 1014a460 f i tier1:convar.obj
 0002:000314a0       ?RemoveChangeCallback@ConVar@@QAEXP6AXPAVIConVar@@PBDM@Z@Z 1014a4a0 f   tier1:convar.obj
 0002:000314c0       ??0?$CUtlVector@P6AXPAVIConVar@@PBDM@ZV?$CUtlMemory@P6AXPAVIConVar@@PBDM@ZH@@@@QAE@HH@Z 1014a4c0 f i tier1:convar.obj
 0002:00031520       ??1?$CUtlVector@P6AXPAVIConVar@@PBDM@ZV?$CUtlMemory@P6AXPAVIConVar@@PBDM@ZH@@@@QAE@XZ 1014a520 f i tier1:convar.obj
 0002:000315a0       ?InsertBefore@?$CUtlVector@P6AXPAVIConVar@@PBDM@ZV?$CUtlMemory@P6AXPAVIConVar@@PBDM@ZH@@@@QAEHHABQ6AXPAVIConVar@@PBDM@Z@Z 1014a5a0 f i tier1:convar.obj
 0002:00031620       ?GrowVector@?$CUtlVector@VCUtlString@@V?$CUtlMemory@VCUtlString@@H@@@@IAEXH@Z 1014a620 f i tier1:convar.obj
 0002:00031660       ?Tokenize@CCommand@@QAE_NPBDPAUcharacterset_t@@@Z 1014a660 f   tier1:convar.obj
 0002:00031860       ??1CUtlString@@QAE@XZ      1014a860 f i tier1:convar.obj
 0002:000318a0       ??1ConVar@@UAE@XZ          1014a8a0 f   tier1:convar.obj
 0002:000318f0       ?GetName@ConVar@@WBI@BEPBDXZ 1014a8f0 f i tier1:convar.obj
 0002:00031900       ?IsFlagSet@ConVar@@WBI@BE_NH@Z 1014a900 f i tier1:convar.obj
 0002:00031910       ??1CEmptyConVar@@UAE@XZ    1014a910 f i tier1:convar.obj
 0002:00031960       ?AddToTail@?$CUtlVector@P6AXPAVIConVar@@PBDM@ZV?$CUtlMemory@P6AXPAVIConVar@@PBDM@ZH@@@@QAEHABQ6AXPAVIConVar@@PBDM@Z@Z 1014a960 f i tier1:convar.obj
 0002:00031980       ?InsertBefore@?$CUtlVector@VCUtlString@@V?$CUtlMemory@VCUtlString@@H@@@@QAEHHABVCUtlString@@@Z 1014a980 f i tier1:convar.obj
 0002:00031a10       ??_GConVar@@UAEPAXI@Z      1014aa10 f i tier1:convar.obj
 0002:00031a10       ??_EConVar@@UAEPAXI@Z      1014aa10 f i tier1:convar.obj
 0002:00031a70       ?InstallChangeCallback@ConVar@@QAEXP6AXPAVIConVar@@PBDM@Z_N@Z 1014aa70 f   tier1:convar.obj
 0002:00031b20       ?Create@ConVar@@EAEXPBD0H0_NM1MP6AXPAVIConVar@@0M@Z@Z 1014ab20 f   tier1:convar.obj
 0002:00031cb0       ?AddToTail@?$CUtlVector@VCUtlString@@V?$CUtlMemory@VCUtlString@@H@@@@QAEHABVCUtlString@@@Z 1014acb0 f i tier1:convar.obj
 0002:00031cd0       ?AutoCompleteSuggest@ConCommand@@UAEHPBDAAV?$CUtlVector@VCUtlString@@V?$CUtlMemory@VCUtlString@@H@@@@@Z 1014acd0 f   tier1:convar.obj
 0002:00031de0       ??0ConVar@@QAE@PBD0H@Z     1014ade0 f   tier1:convar.obj
 0002:00031e60       ??0ConVar@@QAE@PBD0H0@Z    1014ae60 f   tier1:convar.obj
 0002:00031ee0       ??0ConVar@@QAE@PBD0H0_NM1M@Z 1014aee0 f   tier1:convar.obj
 0002:00031f70       ??0ConVar@@QAE@PBD0H0P6AXPAVIConVar@@0M@Z@Z 1014af70 f   tier1:convar.obj
 0002:00032000       ??0ConVar@@QAE@PBD0H0_NM1MP6AXPAVIConVar@@0M@Z@Z 1014b000 f   tier1:convar.obj
 0002:000320a0       ??0CEmptyConVar@@QAE@XZ    1014b0a0 f i tier1:convar.obj
 0002:000320d0       ?SetValue@CEmptyConVar@@UAEXPBD@Z 1014b0d0 f i tier1:convar.obj
 0002:000320e0       ?SetValue@CEmptyConVar@@UAEXM@Z 1014b0e0 f i tier1:convar.obj
 0002:000320f0       ?SetValue@CEmptyConVar@@UAEXH@Z 1014b0f0 f i tier1:convar.obj
 0002:00032100       ?GetName@CEmptyConVar@@UBEPBDXZ 1014b100 f i tier1:convar.obj
 0002:00032110       ?IsFlagSet@CEmptyConVar@@UBE_NH@Z 1014b110 f i tier1:convar.obj
 0002:00032120       ?GetName@CEmptyConVar@@WBI@BEPBDXZ 1014b120 f i tier1:convar.obj
 0002:00032130       ?IsFlagSet@CEmptyConVar@@WBI@BE_NH@Z 1014b130 f i tier1:convar.obj
 0002:00032140       ??_GCEmptyConVar@@UAEPAXI@Z 1014b140 f i tier1:convar.obj
 0002:00032140       ??_ECEmptyConVar@@UAEPAXI@Z 1014b140 f i tier1:convar.obj
 0002:000321a0       ??0InterfaceReg@@QAE@P6APAXXZPBD@Z 1014b1a0 f   tier1:interface.obj
 0002:000321d0       ?CreateInterfaceInternal@@YAPAXPBDPAH@Z 1014b1d0 f   tier1:interface.obj
 0002:00032260       _CreateInterface           1014b260 f   tier1:interface.obj
 0002:000322a0       ?Sys_IsDebuggerPresent@@YA_NXZ 1014b2a0 f   tier1:interface.obj
 0002:000322b0       ??0ThreadedLoadLibaryContext_t@@QAE@XZ 1014b2b0 f i tier1:interface.obj
 0002:000322d0       ?ThreadedLoadLibraryFunc@@YAIPAX@Z 1014b2d0 f   tier1:interface.obj
 0002:00032570       ?Sys_LoadModule@@YAPAVCSysModule@@PBD@Z 1014b570 f   tier1:interface.obj
 0002:000327b0       ?Sys_RunningWithDebugModules@@YA_NXZ 1014b7b0 f   tier1:interface.obj
 0002:00032830       ?Sys_UnloadModule@@YAXPAVCSysModule@@@Z 1014b830 f   tier1:interface.obj
 0002:00032850       ?Sys_GetFactory@@YAP6APAXPBDPAH@ZPAVCSysModule@@@Z 1014b850 f   tier1:interface.obj
 0002:00032870       ?Sys_GetFactoryThis@@YAP6APAXPBDPAH@ZXZ 1014b870 f   tier1:interface.obj
 0002:00032880       ?Sys_GetFactory@@YAP6APAXPBDPAH@Z0@Z 1014b880 f   tier1:interface.obj
 0002:000328a0       ?Sys_LoadInterface@@YA_NPBD0PAPAVCSysModule@@PAPAX@Z 1014b8a0 f   tier1:interface.obj
 0002:00032910       ??0CDllDemandLoader@@QAE@PBD@Z 1014b910 f   tier1:interface.obj
 0002:00032930       ?GetFactory@CDllDemandLoader@@QAEP6APAXPBDPAH@ZXZ 1014b930 f   tier1:interface.obj
 0002:00032980       ?Unload@CDllDemandLoader@@QAEXXZ 1014b980 f   tier1:interface.obj
 0002:000329a0       ??1CDllDemandLoader@@UAE@XZ 1014b9a0 f   tier1:interface.obj
 0002:000329d0       ??_GCDllDemandLoader@@UAEPAXI@Z 1014b9d0 f i tier1:interface.obj
 0002:000329d0       ??_ECDllDemandLoader@@UAEPAXI@Z 1014b9d0 f i tier1:interface.obj
 0002:00032a20       ?ConnectTier1Libraries@@YAXPAP6APAXPBDPAH@ZH@Z 1014ba20 f   tier1:tier1.obj
 0002:00032a30       ?DisconnectTier1Libraries@@YAXXZ 1014ba30 f   tier1:tier1.obj
 0002:00032a40       ?Length@CUtlBinaryBlock@@QBEHXZ 1014ba40 f i tier1:utlstring.obj
 0002:00032a50       ?Length@CUtlString@@QBEHXZ 1014ba50 f   tier1:utlstring.obj
 0002:00032a70       ??0?$CUtlMemory@EH@@QAE@PBEH@Z 1014ba70 f i tier1:utlstring.obj
 0002:00032a90       ??0?$CUtlMemory@EH@@QAE@PAEH@Z 1014ba90 f i tier1:utlstring.obj
 0002:00032ab0       ??A?$CUtlMemory@EH@@QAEAAEH@Z 1014bab0 f i tier1:utlstring.obj
 0002:00032ac0       ?Base@?$CUtlMemory@EH@@QBEPBEXZ 1014bac0 f i tier1:utlstring.obj
 0002:00032ad0       ?Base@?$CUtlMemory@EH@@QAEPAEXZ 1014bad0 f i tier1:utlstring.obj
 0002:00032ae0       ?NumAllocated@?$CUtlMemory@EH@@QBEHXZ 1014bae0 f i tier1:utlstring.obj
 0002:00032af0       ?ValidateGrowSize@?$CUtlMemory@EH@@IAEXXZ 1014baf0 f i tier1:utlstring.obj
 0002:00032b00       ?Get@CUtlBinaryBlock@@QBEPBXXZ 1014bb00 f i tier1:utlstring.obj
 0002:00032b10       ?Get@CUtlBinaryBlock@@QAEPAXXZ 1014bb10 f i tier1:utlstring.obj
 0002:00032b20       ??ACUtlBinaryBlock@@QAEAAEH@Z 1014bb20 f i tier1:utlstring.obj
 0002:00032b30       ?IsEmpty@CUtlString@@QBE_NXZ 1014bb30 f i tier1:utlstring.obj
 0002:00032b60       ?Get@CUtlBinaryBlock@@QBEXPAXH@Z 1014bb60 f   tier1:utlstring.obj
 0002:00032b90       ??8CUtlBinaryBlock@@QBE_NABV0@@Z 1014bb90 f   tier1:utlstring.obj
 0002:00032c70       ?Get@CUtlString@@QBEPBDXZ  1014bc70 f   tier1:utlstring.obj
 0002:00032c90       ??BCUtlString@@QBEPBDXZ    1014bc90 f   tier1:utlstring.obj
 0002:00032cb0       ??8CUtlString@@QBE_NABV0@@Z 1014bcb0 f   tier1:utlstring.obj
 0002:00032cc0       ??8CUtlString@@QBE_NPBD@Z  1014bcc0 f   tier1:utlstring.obj
 0002:00032d20       ??0?$CUtlMemory@EH@@QAE@HH@Z 1014bd20 f i tier1:utlstring.obj
 0002:00032d60       ?Grow@?$CUtlMemory@EH@@QAEXH@Z 1014bd60 f i tier1:utlstring.obj
 0002:00032e10       ?String@CUtlString@@QBEPBDXZ 1014be10 f i tier1:utlstring.obj
 0002:00032e30       ?SetLength@CUtlBinaryBlock@@QAEXH@Z 1014be30 f   tier1:utlstring.obj
 0002:00032e70       ?Set@CUtlBinaryBlock@@QAEXPBXH@Z 1014be70 f   tier1:utlstring.obj
 0002:00032f00       ??4CUtlBinaryBlock@@QAEAAV0@ABV0@@Z 1014bf00 f   tier1:utlstring.obj
 0002:00032f30       ?SetDirect@CUtlString@@QAEXPBDH@Z 1014bf30 f   tier1:utlstring.obj
 0002:00032fc0       ?Set@CUtlString@@QAEXPBD@Z 1014bfc0 f   tier1:utlstring.obj
 0002:00033010       ?SetLength@CUtlString@@QAEXH@Z 1014c010 f   tier1:utlstring.obj
 0002:00033060       ?Get@CUtlString@@QAEPADXZ  1014c060 f   tier1:utlstring.obj
 0002:000330b0       ??4CUtlString@@QAEAAV0@ABV0@@Z 1014c0b0 f   tier1:utlstring.obj
 0002:000330e0       ??4CUtlString@@QAEAAV0@PBD@Z 1014c0e0 f   tier1:utlstring.obj
 0002:00033130       ??YCUtlString@@QAEAAV0@ABV0@@Z 1014c130 f   tier1:utlstring.obj
 0002:00033240       ??YCUtlString@@QAEAAV0@PBD@Z 1014c240 f   tier1:utlstring.obj
 0002:00033330       ??YCUtlString@@QAEAAV0@D@Z 1014c330 f   tier1:utlstring.obj
 0002:000333a0       ??YCUtlString@@QAEAAV0@H@Z 1014c3a0 f   tier1:utlstring.obj
 0002:000333f0       ??YCUtlString@@QAEAAV0@N@Z 1014c3f0 f   tier1:utlstring.obj
 0002:00033450       ?Format@CUtlString@@QAAHPBDZZ 1014c450 f   tier1:utlstring.obj
 0002:000334e0       ?StripTrailingSlash@CUtlString@@QAEXXZ 1014c4e0 f   tier1:utlstring.obj
 0002:00033550       ?Clear@CUtlBinaryBlock@@QAEXXZ 1014c550 f i tier1:utlstring.obj
 0002:00033580       ?Purge@CUtlBinaryBlock@@QAEXXZ 1014c580 f i tier1:utlstring.obj
 0002:000335f0       ??0CUtlBinaryBlock@@QAE@HH@Z 1014c5f0 f   tier1:utlstring.obj
 0002:00033640       ??0CUtlBinaryBlock@@QAE@PAXHH@Z 1014c640 f   tier1:utlstring.obj
 0002:00033670       ??0CUtlBinaryBlock@@QAE@PBXH@Z 1014c670 f   tier1:utlstring.obj
 0002:000336a0       ??0CUtlBinaryBlock@@QAE@ABV0@@Z 1014c6a0 f   tier1:utlstring.obj
 0002:000336d0       ??0CUtlString@@QAE@PBD@Z   1014c6d0 f   tier1:utlstring.obj
 0002:00033720       ??0CUtlString@@QAE@ABV0@@Z 1014c720 f   tier1:utlstring.obj
 0002:00033780       ??0CUtlString@@QAE@PAXHH@Z 1014c780 f   tier1:utlstring.obj
 0002:000337b0       ??0CUtlString@@QAE@PBXH@Z  1014c7b0 f   tier1:utlstring.obj
 0002:000337e0       ?Clear@CUtlString@@QAEXXZ  1014c7e0 f   tier1:utlstring.obj
 0002:00033810       ?Purge@CUtlString@@QAEXXZ  1014c810 f   tier1:utlstring.obj
 0002:00033820       ?Replace@CUtlString@@QAE?AV1@DD@Z 1014c820 f   tier1:utlstring.obj
 0002:000338e0       ?AbsPath@CUtlString@@QAE?AV1@PBD@Z 1014c8e0 f   tier1:utlstring.obj
 0002:00033980       ?UnqualifiedFilename@CUtlString@@QAE?AV1@XZ 1014c980 f   tier1:utlstring.obj
 0002:00033a10       ?DirName@CUtlString@@QAE?AV1@XZ 1014ca10 f   tier1:utlstring.obj
 0002:00033a80       ?PathJoin@CUtlString@@SA?AV1@PBD0@Z 1014ca80 f   tier1:utlstring.obj
 0002:00033b00       ??HCUtlString@@QAE?AV0@PBD@Z 1014cb00 f   tier1:utlstring.obj
 0002:00033b60       ??0CUtlString@@QAE@XZ      1014cb60 f   tier1:utlstring.obj
 0002:00033b80       ??HCUtlString@@QAE?AV0@H@Z 1014cb80 f   tier1:utlstring.obj
 0002:00033c30       ?Slice@CUtlString@@QAE?AV1@HH@Z 1014cc30 f   tier1:utlstring.obj
 0002:00033ea0       ?Left@CUtlString@@QAE?AV1@H@Z 1014cea0 f   tier1:utlstring.obj
 0002:00033ec0       ?Right@CUtlString@@QAE?AV1@H@Z 1014cec0 f   tier1:utlstring.obj
 0002:00033ef0       ?CharacterSetBuild@@YAXPAUcharacterset_t@@PBD@Z 1014cef0 f   tier1:characterset.obj
 0002:00033f50       ?V_isspace@@YA_NH@Z        1014cf50 f i tier1:utlbuffer.obj
 0002:00033f70       ?IsMachineBigEndian@CByteswap@@SA_NXZ 1014cf70 f i tier1:utlbuffer.obj
 0002:00033f80       ?SetTargetBigEndian@CByteswap@@QAEX_N@Z 1014cf80 f i tier1:utlbuffer.obj
 0002:00033fb0       ?ActivateByteSwapping@CByteswap@@QAEX_N@Z 1014cfb0 f i tier1:utlbuffer.obj
 0002:00033fe0       ?IsSwappingBytes@CByteswap@@QAE_NXZ 1014cfe0 f i tier1:utlbuffer.obj
 0002:00033ff0       ?IsTargetBigEndian@CByteswap@@QAE_NXZ 1014cff0 f i tier1:utlbuffer.obj
 0002:00034000       ??$StringToNumber@F@@YAFPADPAPADH@Z 1014d000 f i tier1:utlbuffer.obj
 0002:00034010       ??$StringToNumber@G@@YAGPADPAPADH@Z 1014d010 f i tier1:utlbuffer.obj
 0002:00034020       ??$StringToNumber@H@@YAHPADPAPADH@Z 1014d020 f i tier1:utlbuffer.obj
 0002:00034030       ??$StringToNumber@I@@YAIPADPAPADH@Z 1014d030 f i tier1:utlbuffer.obj
 0002:00034040       ??$StringToNumber@_J@@YA_JPADPAPADH@Z 1014d040 f i tier1:utlbuffer.obj
 0002:00034050       ??$StringToNumber@M@@YAMPADPAPADH@Z 1014d050 f i tier1:utlbuffer.obj
 0002:00034070       ??$StringToNumber@N@@YANPADPAPADH@Z 1014d070 f i tier1:utlbuffer.obj
 0002:00034090       ?TellPut@CUtlBuffer@@QBEHXZ 1014d090 f i tier1:utlbuffer.obj
 0002:000340a0       ?TellMaxPut@CUtlBuffer@@QBEHXZ 1014d0a0 f i tier1:utlbuffer.obj
 0002:000340b0       ?IsText@CUtlBuffer@@QBE_NXZ 1014d0b0 f i tier1:utlbuffer.obj
 0002:000340c0       ?IsGrowable@CUtlBuffer@@QBE_NXZ 1014d0c0 f i tier1:utlbuffer.obj
 0002:000340d0       ?ContainsCRLF@CUtlBuffer@@QBE_NXZ 1014d0d0 f i tier1:utlbuffer.obj
 0002:000340f0       ?IsReadOnly@CUtlBuffer@@QBE_NXZ 1014d0f0 f i tier1:utlbuffer.obj
 0002:00034100       ?GetCStringCharConversion@@YAPAVCUtlCharConversion@@XZ 1014d100 f   tier1:utlbuffer.obj
 0002:00034110       ?GetNoEscCharConversion@@YAPAVCUtlCharConversion@@XZ 1014d110 f   tier1:utlbuffer.obj
 0002:00034120       ?FindConversion@CUtlCStringConversion@@UAEDPBDPAH@Z 1014d120 f   tier1:utlbuffer.obj
 0002:00034150       ??0CUtlCharConversion@@QAE@DPBDHPAUConversionArray_t@0@@Z 1014d150 f   tier1:utlbuffer.obj
 0002:00034210       ?GetEscapeChar@CUtlCharConversion@@QBEDXZ 1014d210 f   tier1:utlbuffer.obj
 0002:00034220       ?GetDelimiter@CUtlCharConversion@@QBEPBDXZ 1014d220 f   tier1:utlbuffer.obj
 0002:00034230       ?GetDelimiterLength@CUtlCharConversion@@QBEHXZ 1014d230 f   tier1:utlbuffer.obj
 0002:00034240       ?GetConversionString@CUtlCharConversion@@QBEPBDD@Z 1014d240 f   tier1:utlbuffer.obj
 0002:00034260       ?GetConversionLength@CUtlCharConversion@@QBEHD@Z 1014d260 f   tier1:utlbuffer.obj
 0002:00034280       ?MaxConversionLength@CUtlCharConversion@@QBEHXZ 1014d280 f   tier1:utlbuffer.obj
 0002:00034290       ?FindConversion@CUtlCharConversion@@UAEDPBDPAH@Z 1014d290 f   tier1:utlbuffer.obj
 0002:00034310       ?SetBufferType@CUtlBuffer@@QAEX_N0@Z 1014d310 f   tier1:utlbuffer.obj
 0002:00034340       ?SetOverflowFuncs@CUtlBuffer@@IAEXP81@AE_NH@Z0@Z 1014d340 f   tier1:utlbuffer.obj
 0002:00034360       ?OnPutOverflow@CUtlBuffer@@IAE_NH@Z 1014d360 f   tier1:utlbuffer.obj
 0002:00034370       ?OnGetOverflow@CUtlBuffer@@IAE_NH@Z 1014d370 f   tier1:utlbuffer.obj
 0002:00034380       ?GetOverflow@CUtlBuffer@@IAE_NH@Z 1014d380 f   tier1:utlbuffer.obj
 0002:00034390       ?ActivateByteSwapping@CUtlBuffer@@QAEX_N@Z 1014d390 f   tier1:utlbuffer.obj
 0002:000343c0       ?SetBigEndian@CUtlBuffer@@QAEX_N@Z 1014d3c0 f   tier1:utlbuffer.obj
 0002:000343f0       ?IsBigEndian@CUtlBuffer@@QAE_NXZ 1014d3f0 f   tier1:utlbuffer.obj
 0002:00034400       ??A?$CUtlMemory@EH@@QBEABEH@Z 1014d400 f i tier1:utlbuffer.obj
 0002:00034410       ??$LowLevelByteSwap@D@CByteswap@@CAXPAD0@Z 1014d410 f i tier1:utlbuffer.obj
 0002:00034440       ??0CByteswap@@QAE@XZ       1014d440 f i tier1:utlbuffer.obj
 0002:00034450       ?PeekGet@CUtlBuffer@@QBEPBXH@Z 1014d450 f i tier1:utlbuffer.obj
 0002:00034470       ?PeekPut@CUtlBuffer@@QAEPAXH@Z 1014d470 f i tier1:utlbuffer.obj
 0002:00034490       ?WasLastCharacterCR@CUtlBuffer@@IAE_NXZ 1014d490 f i tier1:utlbuffer.obj
 0002:000344c0       ?Base@CUtlBuffer@@QAEPAXXZ 1014d4c0 f i tier1:utlbuffer.obj
 0002:000344d0       ?Size@CUtlBuffer@@QBEHXZ   1014d4d0 f i tier1:utlbuffer.obj
 0002:000344e0       ??0CUtlNoEscConversion@@QAE@DPBDHPAUConversionArray_t@CUtlCharConversion@@@Z 1014d4e0 f i tier1:utlbuffer.obj
 0002:00034520       ?FindConversion@CUtlNoEscConversion@@UAEDPBDPAH@Z 1014d520 f i tier1:utlbuffer.obj
 0002:00034540       ??0CUtlCStringConversion@@QAE@DPBDHPAUConversionArray_t@CUtlCharConversion@@@Z 1014d540 f   tier1:utlbuffer.obj
 0002:000345c0       ?CheckGet@CUtlBuffer@@IAE_NH@Z 1014d5c0 f   tier1:utlbuffer.obj
 0002:00034630       ?CheckPeekGet@CUtlBuffer@@IAE_NHH@Z 1014d630 f   tier1:utlbuffer.obj
 0002:00034670       ?CheckArbitraryPeekGet@CUtlBuffer@@IAE_NHAAH@Z 1014d670 f   tier1:utlbuffer.obj
 0002:00034700       ?PeekGet@CUtlBuffer@@QAEPBXHH@Z 1014d700 f   tier1:utlbuffer.obj
 0002:00034750       ?SeekGet@CUtlBuffer@@QAEXW4SeekType_t@1@H@Z 1014d750 f   tier1:utlbuffer.obj
 0002:000347d0       ?GetToken@CUtlBuffer@@QAE_NPBD@Z 1014d7d0 f   tier1:utlbuffer.obj
 0002:000349d0       ?CheckPut@CUtlBuffer@@IAE_NH@Z 1014d9d0 f   tier1:utlbuffer.obj
 0002:00034a30       ?AddNullTermination@CUtlBuffer@@IAEXXZ 1014da30 f   tier1:utlbuffer.obj
 0002:00034a90       ?DetachMemory@?$CUtlMemory@EH@@QAEPAXXZ 1014da90 f i tier1:utlbuffer.obj
 0002:00034ab0       ?ConvertToGrowableMemory@?$CUtlMemory@EH@@QAEXH@Z 1014dab0 f i tier1:utlbuffer.obj
 0002:00034b10       ?EnsureCapacity@?$CUtlMemory@EH@@QAEXH@Z 1014db10 f i tier1:utlbuffer.obj
 0002:00034b70       ??$GetTypeText@I@CUtlBuffer@@IAE_NAAIH@Z 1014db70 f i tier1:utlbuffer.obj
 0002:00034c00       ??$GetTypeText@F@CUtlBuffer@@IAE_NAAFH@Z 1014dc00 f i tier1:utlbuffer.obj
 0002:00034c90       ??$GetTypeText@G@CUtlBuffer@@IAE_NAAGH@Z 1014dc90 f i tier1:utlbuffer.obj
 0002:00034d20       ??$GetTypeText@_J@CUtlBuffer@@IAE_NAA_JH@Z 1014dd20 f i tier1:utlbuffer.obj
 0002:00034dc0       ??$GetTypeText@H@CUtlBuffer@@IAE_NAAHH@Z 1014ddc0 f i tier1:utlbuffer.obj
 0002:00034e50       ??$GetTypeText@N@CUtlBuffer@@IAE_NAANH@Z 1014de50 f i tier1:utlbuffer.obj
 0002:00034ee0       ??$GetTypeText@M@CUtlBuffer@@IAE_NAAMH@Z 1014dee0 f i tier1:utlbuffer.obj
 0002:00034f70       ??$SwapBufferToTargetEndian@D@CByteswap@@QAEXPAD0H@Z 1014df70 f i tier1:utlbuffer.obj
 0002:00034fb0       ?Purge@CUtlBuffer@@QAEXXZ  1014dfb0 f i tier1:utlbuffer.obj
 0002:00035000       ?DetachMemory@CUtlBuffer@@QAEPAXXZ 1014e000 f   tier1:utlbuffer.obj
 0002:00035030       ?EnsureCapacity@CUtlBuffer@@QAEXH@Z 1014e030 f   tier1:utlbuffer.obj
 0002:000350b0       ?Get@CUtlBuffer@@QAEXPAXH@Z 1014e0b0 f   tier1:utlbuffer.obj
 0002:00035100       ?GetUpTo@CUtlBuffer@@QAEHPAXH@Z 1014e100 f   tier1:utlbuffer.obj
 0002:00035150       ?EatWhiteSpace@CUtlBuffer@@QAEXXZ 1014e150 f   tier1:utlbuffer.obj
 0002:000351e0       ?PeekWhiteSpace@CUtlBuffer@@IAEHH@Z 1014e1e0 f   tier1:utlbuffer.obj
 0002:000352a0       ?PeekStringLength@CUtlBuffer@@QAEHXZ 1014e2a0 f   tier1:utlbuffer.obj
 0002:00035450       ?PeekLineLength@CUtlBuffer@@IAEHXZ 1014e450 f   tier1:utlbuffer.obj
 0002:00035580       ?PeekStringMatch@CUtlBuffer@@IAE_NHPBDH@Z 1014e580 f   tier1:utlbuffer.obj
 0002:000355f0       ?PeekDelimitedStringLength@CUtlBuffer@@QAEHPAVCUtlCharConversion@@_N@Z 1014e5f0 f   tier1:utlbuffer.obj
 0002:00035790       ?GetLine@CUtlBuffer@@QAEXPADH@Z 1014e790 f   tier1:utlbuffer.obj
 0002:00035870       ?Put@CUtlBuffer@@QAEXPBXH@Z 1014e870 f   tier1:utlbuffer.obj
 0002:000358f0       ?PutOverflow@CUtlBuffer@@IAE_NH@Z 1014e8f0 f   tier1:utlbuffer.obj
 0002:00035950       ?SeekPut@CUtlBuffer@@QAEXW4SeekType_t@1@H@Z 1014e950 f   tier1:utlbuffer.obj
 0002:000359f0       ?InplaceGetLinePtr@CUtlInplaceBuffer@@QAE_NPAPADPAH@Z 1014e9f0 f   tier1:utlbuffer.obj
 0002:00035aa0       ?InplaceGetLinePtr@CUtlInplaceBuffer@@QAEPADXZ 1014eaa0 f   tier1:utlbuffer.obj
 0002:00035b10       ?SetExternalBuffer@?$CUtlMemory@EH@@QAEXPAEH@Z 1014eb10 f i tier1:utlbuffer.obj
 0002:00035b70       ?AssumeMemory@?$CUtlMemory@EH@@QAEXPAEH@Z 1014eb70 f i tier1:utlbuffer.obj
 0002:00035be0       ??$GetTypeBin@D@CUtlBuffer@@IAEXAAD@Z 1014ebe0 f i tier1:utlbuffer.obj
 0002:00035c20       ??$PutTypeBin@D@CUtlBuffer@@IAEXD@Z 1014ec20 f i tier1:utlbuffer.obj
 0002:00035ce0       ?GetChar@CUtlBuffer@@QAEDXZ 1014ece0 f i tier1:utlbuffer.obj
 0002:00035d10       ?PutTabs@CUtlBuffer@@IAEXXZ 1014ed10 f i tier1:utlbuffer.obj
 0002:00035d50       ?PutChar@CUtlBuffer@@QAEXD@Z 1014ed50 f i tier1:utlbuffer.obj
 0002:00035dc0       ??0CUtlBuffer@@QAE@HHH@Z   1014edc0 f   tier1:utlbuffer.obj
 0002:00035e60       ??0CUtlBuffer@@QAE@PBXHH@Z 1014ee60 f   tier1:utlbuffer.obj
 0002:00035f10       ?SetExternalBuffer@CUtlBuffer@@QAEXPAXHHH@Z 1014ef10 f   tier1:utlbuffer.obj
 0002:00035fd0       ?AssumeMemory@CUtlBuffer@@QAEXPAXHHH@Z 1014efd0 f   tier1:utlbuffer.obj
 0002:00036090       ?EatCPPComment@CUtlBuffer@@QAE_NXZ 1014f090 f   tier1:utlbuffer.obj
 0002:00036110       ?GetString@CUtlBuffer@@QAEXPADH@Z 1014f110 f   tier1:utlbuffer.obj
 0002:00036210       ?GetDelimitedCharInternal@CUtlBuffer@@IAEDPAVCUtlCharConversion@@@Z 1014f210 f   tier1:utlbuffer.obj
 0002:000362f0       ?GetDelimitedChar@CUtlBuffer@@QAEDPAVCUtlCharConversion@@@Z 1014f2f0 f   tier1:utlbuffer.obj
 0002:00036350       ?GetDelimitedString@CUtlBuffer@@QAEXPAVCUtlCharConversion@@PADH@Z 1014f350 f   tier1:utlbuffer.obj
 0002:000364c0       ?VaScanf@CUtlBuffer@@QAEHPBDPAD@Z 1014f4c0 f   tier1:utlbuffer.obj
 0002:00036830       ?Scanf@CUtlBuffer@@QAAHPBDZZ 1014f830 f   tier1:utlbuffer.obj
 0002:00036850       ?ParseToken@CUtlBuffer@@QAE_NPBD0PADH@Z 1014f850 f   tier1:utlbuffer.obj
 0002:00036af0       ?ParseToken@CUtlBuffer@@QAEHPAUcharacterset_t@@PADH_N@Z 1014faf0 f   tier1:utlbuffer.obj
 0002:00036d50       ?PutString@CUtlBuffer@@QAEXPBD@Z 1014fd50 f   tier1:utlbuffer.obj
 0002:00036e80       ?PutDelimitedCharInternal@CUtlBuffer@@IAEXPAVCUtlCharConversion@@D@Z 1014fe80 f i tier1:utlbuffer.obj
 0002:00036ee0       ?PutDelimitedChar@CUtlBuffer@@QAEXPAVCUtlCharConversion@@D@Z 1014fee0 f   tier1:utlbuffer.obj
 0002:00036f10       ?PutDelimitedString@CUtlBuffer@@QAEXPAVCUtlCharConversion@@PBD@Z 1014ff10 f   tier1:utlbuffer.obj
 0002:000370a0       ?VaPrintf@CUtlBuffer@@QAEXPBDPAD@Z 101500a0 f   tier1:utlbuffer.obj
 0002:000370f0       ?Printf@CUtlBuffer@@QAAXPBDZZ 101500f0 f   tier1:utlbuffer.obj
 0002:00037140       ?ConvertCRLF@CUtlBuffer@@QAE_NAAV1@@Z 10150140 f   tier1:utlbuffer.obj
 0002:000373d0       ??0CUtlInplaceBuffer@@QAE@HHH@Z 101503d0 f   tier1:utlbuffer.obj
 0002:00037400       ?RegisterInterface@@YAXP6APAXPBDPAH@Z0PAPAX@Z 10150400 f   interfaces:interfaces.obj
 0002:00037460       ?ReconnectInterface@@YAXP6APAXPBDPAH@Z0PAPAX@Z 10150460 f   interfaces:interfaces.obj
 0002:000374e0       ?ConnectInterfaces@@YAXPAP6APAXPBDPAH@ZH@Z 101504e0 f   interfaces:interfaces.obj
 0002:00037620       ?DisconnectInterfaces@@YAXXZ 10150620 f   interfaces:interfaces.obj
 0002:00037670       ?ReconnectInterface@@YAXP6APAXPBDPAH@Z0@Z 10150670 f   interfaces:interfaces.obj
 0002:00068440       ??0CAttibCRT@@QAE@H@Z      10181440 f i memoverride.obj
 0002:000684d0       ??0Color@@QAE@HHHH@Z       101814d0 f i memoverride.obj
 0002:00068540       ??1CAttibCRT@@QAE@XZ       10181540 f i memoverride.obj
 0002:000685c0       ?AllocUnattributed@@YAPAXI@Z 101815c0 f i memoverride.obj
 0002:00068610       ?IndirectAlloc@IMemAlloc@@QAEPAXI@Z 10181610 f i memoverride.obj
 0002:00068680       ?IndirectAlloc@IMemAlloc@@QAEPAXIPBDH@Z 10181680 f i memoverride.obj
 0002:000686f0       ?MemAlloc_Alloc@@YAPAXI@Z  101816f0 f i memoverride.obj
 0002:00068750       ?MemAlloc_Alloc@@YAPAXIPBDH@Z 10181750 f i memoverride.obj
 0002:000687b0       ?MemAlloc_AllocAlignedUnattributed@@YAPAXII@Z 101817b0 f i memoverride.obj
 0002:000688a0       ?MemAlloc_FreeAligned@@YAXPAX@Z 101818a0 f i memoverride.obj
 0002:00068940       ?MemAlloc_ReallocAligned@@YAPAXPAXII@Z 10181940 f i memoverride.obj
 0002:00068ab0       ?ReallocUnattributed@@YAPAXPAXI@Z 10181ab0 f i memoverride.obj
 0002:00068b20       ?SetColor@Color@@QAEXHHHH@Z 10181b20 f i memoverride.obj
 0002:00068bb0       ?ValueIsPowerOfTwo@@YA_NI@Z 10181bb0 f i memoverride.obj
 0002:00068c10       __CrtCheckMemory           10181c10 f   memoverride.obj
 0002:00068c80       __CrtDbgReport             10181c80 f   memoverride.obj
 0002:00068d30       __CrtDbgReportV            10181d30 f   memoverride.obj
 0002:00068e50       __CrtDbgReportW            10181e50 f   memoverride.obj
 0002:00068f70       __CrtDoForAllClientObjects 10181f70 f   memoverride.obj
 0002:00068fb0       __CrtDumpMemoryLeaks       10181fb0 f   memoverride.obj
 0002:00068fe0       __CrtGetAllocHook          10181fe0 f   memoverride.obj
 0002:00069100       __CrtGetCheckCount         10182100 f   memoverride.obj
 0002:00069140       __CrtGetDumpClient         10182140 f   memoverride.obj
 0002:00069260       __CrtGetReportHook         10182260 f   memoverride.obj
 0002:00069290       __CrtIsMemoryBlock         10182290 f   memoverride.obj
 0002:000692e0       __CrtIsValidHeapPointer    101822e0 f   memoverride.obj
 0002:00069350       __CrtIsValidPointer        10182350 f   memoverride.obj
 0002:000693d0       __CrtMemCheckpoint         101823d0 f   memoverride.obj
 0002:00069440       __CrtMemDifference         10182440 f   memoverride.obj
 0002:00069490       __CrtMemDumpAllObjectsSince 10182490 f   memoverride.obj
 0002:000694d0       __CrtMemDumpStatistics     101824d0 f   memoverride.obj
 0002:00069510       __CrtReportBlockType       10182510 f   memoverride.obj
 0002:00069540       __CrtSetAllocHook          10182540 f   memoverride.obj
 0002:00069590       __CrtSetBreakAlloc         10182590 f   memoverride.obj
 0002:00069600       __CrtSetCheckCount         10182600 f   memoverride.obj
 0002:00069640       __CrtSetDbgBlockType       10182640 f   memoverride.obj
 0002:00069680       __CrtSetDbgFlag            10182680 f   memoverride.obj
 0002:000696f0       __CrtSetDebugFillThreshold 101826f0 f   memoverride.obj
 0002:00069810       __CrtSetDumpClient         10182810 f   memoverride.obj
 0002:00069840       __CrtSetReportFile         10182840 f   memoverride.obj
 0002:000698b0       __CrtSetReportHook         101828b0 f   memoverride.obj
 0002:00069920       __CrtSetReportHook2        10182920 f   memoverride.obj
 0002:00069970       __CrtSetReportMode         10182970 f   memoverride.obj
 0002:000699e0       __VCrtDbgReportA           101829e0 f   memoverride.obj
 0002:00069b00       ___crtMessageWindowW       10182b00 f   memoverride.obj
 0002:00069c20       ___p__crtBreakAlloc        10182c20 f   memoverride.obj
 0002:00069c60       ___p__crtDbgFlag           10182c60 f   memoverride.obj
 0002:00069ca0       __aligned_free             10182ca0 f   memoverride.obj
 0002:00069cf0       __aligned_free_base        10182cf0 f   memoverride.obj
 0002:00069d40       __aligned_free_dbg         10182d40 f   memoverride.obj
 0002:00069d90       __aligned_malloc           10182d90 f   memoverride.obj
 0002:00069df0       __aligned_malloc_base      10182df0 f   memoverride.obj
 0002:00069e50       __aligned_malloc_dbg       10182e50 f   memoverride.obj
 0002:00069eb0       __aligned_offset_malloc    10182eb0 f   memoverride.obj
 0002:00069f10       __aligned_offset_malloc_base 10182f10 f   memoverride.obj
 0002:0006a030       __aligned_offset_malloc_dbg 10183030 f   memoverride.obj
 0002:0006a090       __aligned_offset_realloc   10183090 f   memoverride.obj
 0002:0006a0f0       __aligned_offset_realloc_base 101830f0 f   memoverride.obj
 0002:0006a210       __aligned_offset_realloc_dbg 10183210 f   memoverride.obj
 0002:0006a270       __aligned_offset_recalloc  10183270 f   memoverride.obj
 0002:0006a2e0       __aligned_offset_recalloc_base 101832e0 f   memoverride.obj
 0002:0006a400       __aligned_offset_recalloc_dbg 10183400 f   memoverride.obj
 0002:0006a550       __aligned_realloc          10183550 f   memoverride.obj
 0002:0006a5b0       __aligned_realloc_base     101835b0 f   memoverride.obj
 0002:0006a610       __aligned_realloc_dbg      10183610 f   memoverride.obj
 0002:0006a670       __aligned_recalloc         10183670 f   memoverride.obj
 0002:0006a6d0       __aligned_recalloc_base    101836d0 f   memoverride.obj
 0002:0006a730       __aligned_recalloc_dbg     10183730 f   memoverride.obj
 0002:0006a7a0       __calloc_base              101837a0 f   memoverride.obj
 0002:0006a810       __calloc_crt               10183810 f   memoverride.obj
 0002:0006a870       __calloc_dbg               10183870 f   memoverride.obj
 0002:0006a960       __expand                   10183960 f   memoverride.obj
 0002:0006aa80       __expand_base              10183a80 f   memoverride.obj
 0002:0006aba0       __expand_dbg               10183ba0 f   memoverride.obj
 0002:0006acc0       __free_base                10183cc0 f   memoverride.obj
 0002:0006ad30       __free_dbg                 10183d30 f   memoverride.obj
 0002:0006adf0       __free_dbg_nolock          10183df0 f   memoverride.obj
 0002:0006ae40       __free_nolock              10183e40 f   memoverride.obj
 0002:0006ae90       __get_sbh_threshold        10183e90 f   memoverride.obj
 0002:0006aec0       __heap_alloc               10183ec0 f   memoverride.obj
 0002:0006af10       __heap_alloc_base          10183f10 f   memoverride.obj
 0002:0006b030       __heap_alloc_dbg           10184030 f   memoverride.obj
 0002:0006b080       __heap_init                10184080 f   memoverride.obj
 0002:0006b0e0       __heap_term                101840e0 f   memoverride.obj
 0002:0006b110       __heapadd                  10184110 f   memoverride.obj
 0002:0006b140       __heapchk                  10184140 f   memoverride.obj
 0002:0006b1b0       __heapmin                  101841b0 f   memoverride.obj
 0002:0006b1f0       __heapset                  101841f0 f   memoverride.obj
 0002:0006b220       __heapused                 10184220 f   memoverride.obj
 0002:0006b250       __heapwalk                 10184250 f   memoverride.obj
 0002:0006b280       __malloc_base              10184280 f   memoverride.obj
 0002:0006b2d0       __malloc_crt               101842d0 f   memoverride.obj
 0002:0006b320       __malloc_dbg               10184320 f   memoverride.obj
 0002:0006b3e0       __msize                    101843e0 f   memoverride.obj
 0002:0006b430       __msize_base               10184430 f   memoverride.obj
 0002:0006b4a0       __msize_dbg                101844a0 f   memoverride.obj
 0002:0006b4f0       __nh_malloc                101844f0 f   memoverride.obj
 0002:0006b540       __nh_malloc_dbg            10184540 f   memoverride.obj
 0002:0006b600       __realloc_base             10184600 f   memoverride.obj
 0002:0006b660       __realloc_crt              10184660 f   memoverride.obj
 0002:0006b6c0       __realloc_dbg              101846c0 f   memoverride.obj
 0002:0006b7a0       __recalloc                 101847a0 f   memoverride.obj
 0002:0006b820       __recalloc_base            10184820 f   memoverride.obj
 0002:0006b890       __recalloc_crt             10184890 f   memoverride.obj
 0002:0006b8f0       __recalloc_dbg             101848f0 f   memoverride.obj
 0002:0006b960       __set_sbh_threshold        10184960 f   memoverride.obj
 0002:0006b990       __strdup                   10184990 f   memoverride.obj
 0002:0006ba20       __wcsdup                   10184a20 f   memoverride.obj
 0002:0006bb40       __wcsdup_dbg               10184b40 f   memoverride.obj
 0002:0006bc60       _calloc                    10184c60 f   memoverride.obj
 0002:0006bce0       _free                      10184ce0 f   memoverride.obj
 0002:0006bd50       _free_db                   10184d50 f   memoverride.obj
 0002:0006bdd0       _malloc                    10184dd0 f   memoverride.obj
 0002:0006be20       _malloc_db                 10184e20 f   memoverride.obj
 0002:0006be80       _msize                     10184e80 f   memoverride.obj
 0002:0006bef0       _realloc                   10184ef0 f   memoverride.obj
 0002:0006bf50       _realloc_db                10184f50 f   memoverride.obj
 0002:0006bfd0       ??$CopyConstruct@PAVCShaderParam@Aftershock_dx9@@@@YAPAPAVCShaderParam@Aftershock_dx9@@PAPAV01@ABQAV01@@Z 10184fd0 f i aftershock.obj
 0002:0006c070       ??$Destruct@PAVCShaderParam@Aftershock@@@@YAXPAPAVCShaderParam@Aftershock@@@Z 10185070 f i aftershock.obj
 0002:0006c0d0       ??$Destruct@PAVCShaderParam@Aftershock_dx9@@@@YAXPAPAVCShaderParam@Aftershock_dx9@@@Z 101850d0 f i aftershock.obj
 0002:0006c130       ??$MemAllocClassName@V?$CUtlMemory@PAVCShaderParam@Aftershock@@H@@@@YAPBDPAV?$CUtlMemory@PAVCShaderParam@Aftershock@@H@@@Z 10185130 f i aftershock.obj
 0002:0006c1b0       ??$MemAllocClassName@V?$CUtlMemory@PAVCShaderParam@Aftershock_dx9@@H@@@@YAPBDPAV?$CUtlMemory@PAVCShaderParam@Aftershock_dx9@@H@@@Z 101851b0 f i aftershock.obj
 0002:0006c230       ??$MemAllocClassName@V?$CUtlVector@PAVCShaderParam@Aftershock_dx9@@V?$CUtlMemory@PAVCShaderParam@Aftershock_dx9@@H@@@@@@YAPBDPAV?$CUtlVector@PAVCShaderParam@Aftershock_dx9@@V?$CUtlMemory@PAVCShaderParam@Aftershock_dx9@@H@@@@@Z 10185230 f i aftershock.obj
 0002:0006c2b0       ??0?$CUtlMemory@PAVCShaderParam@Aftershock@@H@@QAE@HH@Z 101852b0 f i aftershock.obj
 0002:0006c4a0       ??0?$CUtlMemory@PAVCShaderParam@Aftershock_dx9@@H@@QAE@HH@Z 101854a0 f i aftershock.obj
 0002:0006c690       ??0?$CUtlVector@PAVCShaderParam@Aftershock@@V?$CUtlMemory@PAVCShaderParam@Aftershock@@H@@@@QAE@HH@Z 10185690 f i aftershock.obj
 0002:0006c710       ??0?$CUtlVector@PAVCShaderParam@Aftershock_dx9@@V?$CUtlMemory@PAVCShaderParam@Aftershock_dx9@@H@@@@QAE@HH@Z 10185710 f i aftershock.obj
 0002:0006c790       ??0AftershockVars_t@@QAE@XZ 10185790 f i aftershock.obj
 0002:0006c7f0       ??0CBaseVSShader@@QAE@XZ   101857f0 f i aftershock.obj
 0002:0006c850       ??0CMemAllocAttributeAlloction@@QAE@PBDH@Z 10185850 f i aftershock.obj
 0002:0006c8d0       ??0CShader@Aftershock@@QAE@XZ 101858d0 f i aftershock.obj
 0002:0006c930       ??0CShader@Aftershock_dx9@@QAE@XZ 10185930 f i aftershock.obj
 0002:0006c990       ??0CShaderParam@Aftershock_dx9@@QAE@PBDW4ShaderParamType_t@@00H@Z 10185990 f i aftershock.obj
 0002:0006ca50       ??0Vector2D@@QAE@MM@Z      10185a50 f i aftershock.obj
 0002:0006cba0       ??0Vector4D@@QAE@MMMM@Z    10185ba0 f i aftershock.obj
 0002:0006cd10       ??1?$CUtlMemory@PAVCShaderParam@Aftershock@@H@@QAE@XZ 10185d10 f i aftershock.obj
 0002:0006cd60       ??1?$CUtlMemory@PAVCShaderParam@Aftershock_dx9@@H@@QAE@XZ 10185d60 f i aftershock.obj
 0002:0006cdb0       ??1?$CUtlVector@PAVCShaderParam@Aftershock@@V?$CUtlMemory@PAVCShaderParam@Aftershock@@H@@@@QAE@XZ 10185db0 f i aftershock.obj
 0002:0006ce10       ??1?$CUtlVector@PAVCShaderParam@Aftershock_dx9@@V?$CUtlMemory@PAVCShaderParam@Aftershock_dx9@@H@@@@QAE@XZ 10185e10 f i aftershock.obj
 0002:0006ce70       ??1CMemAllocAttributeAlloction@@QAE@XZ 10185e70 f i aftershock.obj
 0002:0006cee0       ??2@YAPAXIPAX@Z            10185ee0 f i aftershock.obj
 0002:0006cf20       ??A?$CUtlMemory@PAVCShaderParam@Aftershock@@H@@QAEAAPAVCShaderParam@Aftershock@@H@Z 10185f20 f i aftershock.obj
 0002:0006d120       ??A?$CUtlMemory@PAVCShaderParam@Aftershock_dx9@@H@@QAEAAPAVCShaderParam@Aftershock_dx9@@H@Z 10186120 f i aftershock.obj
 0002:0006d320       ??A?$CUtlVector@PAVCShaderParam@Aftershock@@V?$CUtlMemory@PAVCShaderParam@Aftershock@@H@@@@QAEAAPAVCShaderParam@Aftershock@@H@Z 10186320 f i aftershock.obj
 0002:0006d450       ??A?$CUtlVector@PAVCShaderParam@Aftershock_dx9@@V?$CUtlMemory@PAVCShaderParam@Aftershock_dx9@@H@@@@QAEAAPAVCShaderParam@Aftershock_dx9@@H@Z 10186450 f i aftershock.obj
 0002:0006d580       ??BCShaderParam@Aftershock_dx9@@QAEHXZ 10186580 f i aftershock.obj
 0002:0006d5c0       ??_H@YGXPAXIHP6EPAX0@Z@Z   101865c0 f i aftershock.obj
 0002:0006d630       ?AddToTail@?$CUtlVector@PAVCShaderParam@Aftershock_dx9@@V?$CUtlMemory@PAVCShaderParam@Aftershock_dx9@@H@@@@QAEHABQAVCShaderParam@Aftershock_dx9@@@Z 10186630 f i aftershock.obj
 0002:0006d7a0       ?Base@?$CUtlMemory@PAVCShaderParam@Aftershock@@H@@QAEPAPAVCShaderParam@Aftershock@@XZ 101867a0 f i aftershock.obj
 0002:0006d8c0       ?Base@?$CUtlMemory@PAVCShaderParam@Aftershock_dx9@@H@@QAEPAPAVCShaderParam@Aftershock_dx9@@XZ 101868c0 f i aftershock.obj
 0002:0006d9e0       ?Base@?$CUtlVector@PAVCShaderParam@Aftershock@@V?$CUtlMemory@PAVCShaderParam@Aftershock@@H@@@@QAEPAPAVCShaderParam@Aftershock@@XZ 101869e0 f i aftershock.obj
 0002:0006da30       ?Base@?$CUtlVector@PAVCShaderParam@Aftershock_dx9@@V?$CUtlMemory@PAVCShaderParam@Aftershock_dx9@@H@@@@QAEPAPAVCShaderParam@Aftershock_dx9@@XZ 10186a30 f i aftershock.obj
 0002:0006da80       ?Count@?$CUtlVector@PAVCShaderParam@Aftershock@@V?$CUtlMemory@PAVCShaderParam@Aftershock@@H@@@@QBEHXZ 10186a80 f i aftershock.obj
 0002:0006dac0       ?Count@?$CUtlVector@PAVCShaderParam@Aftershock_dx9@@V?$CUtlMemory@PAVCShaderParam@Aftershock_dx9@@H@@@@QBEHXZ 10186ac0 f i aftershock.obj
 0002:0006db00       ?Element@?$CUtlVector@PAVCShaderParam@Aftershock@@V?$CUtlMemory@PAVCShaderParam@Aftershock@@H@@@@QAEAAPAVCShaderParam@Aftershock@@H@Z 10186b00 f i aftershock.obj
 0002:0006dc30       ?Element@?$CUtlVector@PAVCShaderParam@Aftershock_dx9@@V?$CUtlMemory@PAVCShaderParam@Aftershock_dx9@@H@@@@QAEAAPAVCShaderParam@Aftershock_dx9@@H@Z 10186c30 f i aftershock.obj
 0002:0006dd60       ?FloatBits@@YA?BIABM@Z     10186d60 f i aftershock.obj
 0002:0006dde0       ?GetFallbackShader@CBaseShader@@UBEPBDPAPAVIMaterialVar@@@Z 10186de0 f i aftershock.obj
 0002:0006de20       ?GetFallbackShader@CShader@Aftershock@@UBEPBDPAPAVIMaterialVar@@@Z 10186e20 f i aftershock.obj
 0002:0006de60       ?GetFallbackShader@CShader@Aftershock_dx9@@UBEPBDPAPAVIMaterialVar@@@Z 10186e60 f i aftershock.obj
 0002:0006dea0       ?GetFlags@CShader@Aftershock@@UBEHXZ 10186ea0 f i aftershock.obj
 0002:0006dee0       ?GetFlags@CShader@Aftershock_dx9@@UBEHXZ 10186ee0 f i aftershock.obj
 0002:0006df20       ?GetInfo@CShaderParam@Aftershock@@QBEABUShaderParamInfo_t@@XZ 10186f20 f i aftershock.obj
 0002:0006df60       ?GetInfo@CShaderParam@Aftershock_dx9@@QBEABUShaderParamInfo_t@@XZ 10186f60 f i aftershock.obj
 0002:0006dfa0       ?GetName@CShader@Aftershock@@UBEPBDXZ 10186fa0 f i aftershock.obj
 0002:0006dfe0       ?GetName@CShader@Aftershock_dx9@@UBEPBDXZ 10186fe0 f i aftershock.obj
 0002:0006e020       ?GetParamCount@CShader@Aftershock@@UBEHXZ 10187020 f i aftershock.obj
 0002:0006e080       ?GetParamCount@CShader@Aftershock_dx9@@UBEHXZ 10187080 f i aftershock.obj
 0002:0006e0e0       ?GetParamInfo@CShader@Aftershock@@UBEABUShaderParamInfo_t@@H@Z 101870e0 f i aftershock.obj
 0002:0006e180       ?GetParamInfo@CShader@Aftershock_dx9@@UBEABUShaderParamInfo_t@@H@Z 10187180 f i aftershock.obj
 0002:0006e220       ?Grow@?$CUtlMemory@PAVCShaderParam@Aftershock_dx9@@H@@QAEXH@Z 10187220 f i aftershock.obj
 0002:0006e890       ?GrowVector@?$CUtlVector@PAVCShaderParam@Aftershock_dx9@@V?$CUtlMemory@PAVCShaderParam@Aftershock_dx9@@H@@@@IAEXH@Z 10187890 f i aftershock.obj
 0002:0006e9b0       ?InsertBefore@?$CUtlVector@PAVCShaderParam@Aftershock_dx9@@V?$CUtlMemory@PAVCShaderParam@Aftershock_dx9@@H@@@@QAEHHABQAVCShaderParam@Aftershock_dx9@@@Z 101879b0 f i aftershock.obj
 0002:0006ec30       ?IsExternallyAllocated@?$CUtlMemory@PAVCShaderParam@Aftershock@@H@@QBE_NXZ 10187c30 f i aftershock.obj
 0002:0006eca0       ?IsExternallyAllocated@?$CUtlMemory@PAVCShaderParam@Aftershock_dx9@@H@@QBE_NXZ 10187ca0 f i aftershock.obj
 0002:0006ed10       ?IsFinite@@YA_NABM@Z       10187d10 f i aftershock.obj
 0002:0006ed90       ?IsIdxValid@?$CUtlMemory@PAVCShaderParam@Aftershock@@H@@QBE_NH@Z 10187d90 f i aftershock.obj
 0002:0006ee10       ?IsIdxValid@?$CUtlMemory@PAVCShaderParam@Aftershock_dx9@@H@@QBE_NH@Z 10187e10 f i aftershock.obj
 0002:0006ee90       ?IsReadOnly@?$CUtlMemory@PAVCShaderParam@Aftershock@@H@@QBE_NXZ 10187e90 f i aftershock.obj
 0002:0006ef00       ?IsReadOnly@?$CUtlMemory@PAVCShaderParam@Aftershock_dx9@@H@@QBE_NXZ 10187f00 f i aftershock.obj
 0002:0006ef70       ?IsValid@Vector2D@@QBE_NXZ 10187f70 f i aftershock.obj
 0002:0006f010       ?IsValid@Vector4D@@QBE_NXZ 10188010 f i aftershock.obj
 0002:0006f0f0       ?IsValidIndex@?$CUtlVector@PAVCShaderParam@Aftershock_dx9@@V?$CUtlMemory@PAVCShaderParam@Aftershock_dx9@@H@@@@QBE_NH@Z 101880f0 f i aftershock.obj
 0002:0006f160       ?NumAllocated@?$CUtlMemory@PAVCShaderParam@Aftershock_dx9@@H@@QBEHXZ 10188160 f i aftershock.obj
 0002:0006f1a0       ?OnDrawElements@CShader@Aftershock@@UAEXPAPAVIMaterialVar@@PAVIShaderShadow@@PAVIShaderDynamicAPI@@W4VertexCompressionType_t@@PAPAVCBasePerMaterialContextData@@@Z 101881a0 f i aftershock.obj
 0002:0006f1e0       ?OnDrawElements@CShader@Aftershock_dx9@@UAEXPAPAVIMaterialVar@@PAVIShaderShadow@@PAVIShaderDynamicAPI@@W4VertexCompressionType_t@@PAPAVCBasePerMaterialContextData@@@Z 101881e0 f i aftershock.obj
 0002:0006f2a0       ?OnInitShaderInstance@CShader@Aftershock@@UAEXPAPAVIMaterialVar@@PAVIShaderInit@@PBD@Z 101882a0 f i aftershock.obj
 0002:0006f2e0       ?OnInitShaderInstance@CShader@Aftershock_dx9@@UAEXPAPAVIMaterialVar@@PAVIShaderInit@@PBD@Z 101882e0 f i aftershock.obj
 0002:0006f390       ?OnInitShaderParams@CBaseShader@@UAEXPAPAVIMaterialVar@@PBD@Z 10188390 f i aftershock.obj
 0002:0006f3d0       ?OnInitShaderParams@CShader@Aftershock_dx9@@UAEXPAPAVIMaterialVar@@PBD@Z 101883d0 f i aftershock.obj
 0002:0006f490       ?Purge@?$CUtlMemory@PAVCShaderParam@Aftershock@@H@@QAEXXZ 10188490 f i aftershock.obj
 0002:0006f540       ?Purge@?$CUtlMemory@PAVCShaderParam@Aftershock_dx9@@H@@QAEXXZ 10188540 f i aftershock.obj
 0002:0006f5f0       ?Purge@?$CUtlVector@PAVCShaderParam@Aftershock@@V?$CUtlMemory@PAVCShaderParam@Aftershock@@H@@@@QAEXXZ 101885f0 f i aftershock.obj
 0002:0006f660       ?Purge@?$CUtlVector@PAVCShaderParam@Aftershock_dx9@@V?$CUtlMemory@PAVCShaderParam@Aftershock_dx9@@H@@@@QAEXXZ 10188660 f i aftershock.obj
 0002:0006f6d0       ?RemoveAll@?$CUtlVector@PAVCShaderParam@Aftershock@@V?$CUtlMemory@PAVCShaderParam@Aftershock@@H@@@@QAEXXZ 101886d0 f i aftershock.obj
 0002:0006f760       ?RemoveAll@?$CUtlVector@PAVCShaderParam@Aftershock_dx9@@V?$CUtlMemory@PAVCShaderParam@Aftershock_dx9@@H@@@@QAEXXZ 10188760 f i aftershock.obj
 0002:0006f7f0       ?ResetDbgInfo@?$CUtlVector@PAVCShaderParam@Aftershock@@V?$CUtlMemory@PAVCShaderParam@Aftershock@@H@@@@IAEXXZ 101887f0 f i aftershock.obj
 0002:0006f850       ?ResetDbgInfo@?$CUtlVector@PAVCShaderParam@Aftershock_dx9@@V?$CUtlMemory@PAVCShaderParam@Aftershock_dx9@@H@@@@IAEXXZ 10188850 f i aftershock.obj
 0002:0006f8b0       ?SetupVarsAftershock@CShader@Aftershock_dx9@@QAEXAAUAftershockVars_t@@@Z 101888b0 f i aftershock.obj
 0002:0006f9e0       ?ShiftElementsRight@?$CUtlVector@PAVCShaderParam@Aftershock_dx9@@V?$CUtlMemory@PAVCShaderParam@Aftershock_dx9@@H@@@@IAEXHH@Z 101889e0 f i aftershock.obj
 0002:0006fb80       ?UtlMemory_CalcNewAllocationCount@@YAHHHHH@Z 10188b80 f i aftershock.obj
 0002:0006fc10       ?ValidateGrowSize@?$CUtlMemory@PAVCShaderParam@Aftershock@@H@@IAEXXZ 10188c10 f i aftershock.obj
 0002:0006fc50       ?ValidateGrowSize@?$CUtlMemory@PAVCShaderParam@Aftershock_dx9@@H@@IAEXXZ 10188c50 f i aftershock.obj
 0002:0006fc90       _hypot                     10188c90 f i aftershock.obj
 0002:0006fd00       ??0VMatrix@@QAE@XZ         10188d00 f i aftershock_helper.obj
 0002:0006fd40       ??0aftershock_ps20b_Dynamic_Index@@QAE@PAVIShaderDynamicAPI@@@Z 10188d40 f i aftershock_helper.obj
 0002:0006fd80       ??0aftershock_ps20b_Static_Index@@QAE@PAVIShaderShadow@@PAPAVIMaterialVar@@@Z 10188d80 f i aftershock_helper.obj
 0002:0006fdc0       ??0aftershock_vs20_Dynamic_Index@@QAE@PAVIShaderDynamicAPI@@@Z 10188dc0 f i aftershock_helper.obj
 0002:0006fe30       ??0aftershock_vs20_Static_Index@@QAE@PAVIShaderShadow@@PAPAVIMaterialVar@@@Z 10188e30 f i aftershock_helper.obj
 0002:0006fe70       ??AVector4D@@QBEMH@Z       10188e70 f i aftershock_helper.obj
 0002:0006ffb0       ?Base@Vector4D@@QBEPBMXZ   10188fb0 f i aftershock_helper.obj
 0002:0006fff0       ?CShader_SetFlags2@@YAXPAPAVIMaterialVar@@W4MaterialVarFlags2_t@@@Z 10188ff0 f i aftershock_helper.obj
 0002:00070080       ?CShader_SetFlags@@YAXPAPAVIMaterialVar@@W4MaterialVarFlags_t@@@Z 10189080 f i aftershock_helper.obj
 0002:00070120       ?DrawAftershock@@YAXPAVCBaseVSShader@@PAPAVIMaterialVar@@PAVIShaderDynamicAPI@@PAVIShaderShadow@@AAUAftershockVars_t@@W4VertexCompressionType_t@@@Z 10189120 f   aftershock_helper.obj
 0002:00071370       ?GetFloatValue@IMaterialVar@@QBEMXZ 1018a370 f i aftershock_helper.obj
 0002:000713c0       ?GetFloatValueFast@IMaterialVar@@QBEMXZ 1018a3c0 f i aftershock_helper.obj
 0002:00071420       ?GetIndex@aftershock_ps20b_Dynamic_Index@@QAEHXZ 1018a420 f i aftershock_helper.obj
 0002:00071460       ?GetIndex@aftershock_ps20b_Static_Index@@QAEHXZ 1018a460 f i aftershock_helper.obj
 0002:000714a0       ?GetIndex@aftershock_vs20_Dynamic_Index@@QAEHXZ 1018a4a0 f i aftershock_helper.obj
 0002:00071600       ?GetIndex@aftershock_vs20_Static_Index@@QAEHXZ 1018a600 f i aftershock_helper.obj
 0002:00071640       ?GetIntValue@IMaterialVar@@QBEHXZ 1018a640 f i aftershock_helper.obj
 0002:00071690       ?GetIntValueFast@IMaterialVar@@QBEHXZ 1018a690 f i aftershock_helper.obj
 0002:000716d0       ?GetVecValue@IMaterialVar@@QBEPBMXZ 1018a6d0 f i aftershock_helper.obj
 0002:00071720       ?GetVecValueFast@IMaterialVar@@QBEPBMXZ 1018a720 f i aftershock_helper.obj
 0002:00071780       ?InitAftershock@@YAXPAVCBaseVSShader@@PAPAVIMaterialVar@@AAUAftershockVars_t@@@Z 1018a780 f   aftershock_helper.obj
 0002:00071820       ?InitParamsAftershock@@YAXPAVCBaseVSShader@@PAPAVIMaterialVar@@PBDAAUAftershockVars_t@@@Z 1018a820 f   aftershock_helper.obj
 0002:00071e30       ?IsTexture@IMaterialVar@@QBE_NXZ 1018ae30 f i aftershock_helper.obj
 0002:00071ea0       ?SetCOMPRESSED_VERTS@aftershock_vs20_Dynamic_Index@@QAEXH@Z 1018aea0 f i aftershock_helper.obj
 0002:00071fc0       ?SetSKINNING@aftershock_vs20_Dynamic_Index@@QAEX_N@Z 1018afc0 f i aftershock_helper.obj
 0002:00072040       ?SupportsPixelShaders_2_b@IMaterialSystemHardwareConfig@@QBE_NXZ 1018b040 f i aftershock_helper.obj
 0002:000720d0       ??0QAngle@@QAE@XZ          1018b0d0 f i BaseVSShader.obj
 0002:00072110       ??0Vector4D@@QAE@XZ        1018b110 f i BaseVSShader.obj
 0002:000721c0       ??0flashlight_ps20b_Dynamic_Index@@QAE@PAVIShaderDynamicAPI@@@Z 1018b1c0 f i BaseVSShader.obj
 0002:00072280       ??0flashlight_ps20b_Static_Index@@QAE@PAVIShaderShadow@@PAPAVIMaterialVar@@@Z 1018b280 f i BaseVSShader.obj
 0002:000723b0       ??0flashlight_ps30_Dynamic_Index@@QAE@PAVIShaderDynamicAPI@@@Z 1018b3b0 f i BaseVSShader.obj
 0002:00072480       ??0flashlight_ps30_Static_Index@@QAE@PAVIShaderShadow@@PAPAVIMaterialVar@@@Z 1018b480 f i BaseVSShader.obj
 0002:000725b0       ??0lightmappedgeneric_flashlight_vs20_Dynamic_Index@@QAE@PAVIShaderDynamicAPI@@@Z 1018b5b0 f i BaseVSShader.obj
 0002:00072650       ??0lightmappedgeneric_flashlight_vs20_Static_Index@@QAE@PAVIShaderShadow@@PAPAVIMaterialVar@@@Z 1018b650 f i BaseVSShader.obj
 0002:000727a0       ??0lightmappedgeneric_flashlight_vs30_Dynamic_Index@@QAE@PAVIShaderDynamicAPI@@@Z 1018b7a0 f i BaseVSShader.obj
 0002:00072840       ??0lightmappedgeneric_flashlight_vs30_Static_Index@@QAE@PAVIShaderShadow@@PAPAVIMaterialVar@@@Z 1018b840 f i BaseVSShader.obj
 0002:00072960       ??0matrix3x4_t@@QAE@XZ     1018b960 f i BaseVSShader.obj
 0002:000729a0       ??0vertexlitgeneric_flashlight_vs20_Dynamic_Index@@QAE@PAVIShaderDynamicAPI@@@Z 1018b9a0 f i BaseVSShader.obj
 0002:00072a60       ??0vertexlitgeneric_flashlight_vs20_Static_Index@@QAE@PAVIShaderShadow@@PAPAVIMaterialVar@@@Z 1018ba60 f i BaseVSShader.obj
 0002:00072b70       ??ATableVector@@QBEMH@Z    1018bb70 f i BaseVSShader.obj
 0002:00072ca0       ??AVMatrix@@QAEPAMH@Z      1018bca0 f i BaseVSShader.obj
 0002:00072cf0       ??AVMatrix@@QBEPBMH@Z      1018bcf0 f i BaseVSShader.obj
 0002:00072d40       ??AVector2D@@QAEAAMH@Z     1018bd40 f i BaseVSShader.obj
 0002:00072e80       ??AVector4D@@QAEAAMH@Z     1018be80 f i BaseVSShader.obj
 0002:00072fc0       ??AVector@@QAEAAMH@Z       1018bfc0 f i BaseVSShader.obj
 0002:00073100       ??AVector@@QBEMH@Z         1018c100 f i BaseVSShader.obj
 0002:00073240       ?Base@VMatrix@@QAEPAMXZ    1018c240 f i BaseVSShader.obj
 0002:00073290       ?Base@Vector2D@@QAEPAMXZ   1018c290 f i BaseVSShader.obj
 0002:000732d0       ?Base@Vector4D@@QAEPAMXZ   1018c2d0 f i BaseVSShader.obj
 0002:00073310       ?Base@matrix3x4_t@@QAEPAMXZ 1018c310 f i BaseVSShader.obj
 0002:00073360       ?BitsToFloat@@YAMI@Z       1018c360 f i BaseVSShader.obj
 0002:000733d0       ?CShader_IsFlagSet@@YA_NPAPAVIMaterialVar@@W4MaterialVarFlags_t@@@Z 1018c3d0 f i BaseVSShader.obj
 0002:00073450       ?ColorVarsToVector@CBaseVSShader@@AAEXHHAAVVector4D@@@Z 1018c450 f   BaseVSShader.obj
 0002:00073650       ?CurrentMaterialVarFlags@CBaseShader@@QBEHXZ 1018c650 f i BaseVSShader.obj
 0002:000736b0       ?DrawEqualDepthToDestAlpha@CBaseVSShader@@QAEXXZ 1018c6b0 f   BaseVSShader.obj
 0002:000738f0       ?DrawFlashlight_dx90@CBaseVSShader@@QAEXPAPAVIMaterialVar@@PAVIShaderDynamicAPI@@PAVIShaderShadow@@AAUDrawFlashlight_dx90_Vars_t@1@@Z 1018c8f0 f   BaseVSShader.obj
 0002:000763a0       ?EnablePixelShaderOverbright@CBaseVSShader@@QAEXH_N0@Z 1018f3a0 f   BaseVSShader.obj
 0002:000765b0       ?EvaluateBlendRequirements@CBaseVSShader@@QAE?AW4BlendType_t@@H_NH@Z 1018f5b0 f   BaseVSShader.obj
 0002:00076750       ?GetFloat@ConVar@@QBEMXZ   1018f750 f i BaseVSShader.obj
 0002:00076790       ?GetIndex@flashlight_ps20b_Dynamic_Index@@QAEHXZ 1018f790 f i BaseVSShader.obj
 0002:00076900       ?GetIndex@flashlight_ps20b_Static_Index@@QAEHXZ 1018f900 f i BaseVSShader.obj
 0002:00076b10       ?GetIndex@flashlight_ps30_Dynamic_Index@@QAEHXZ 1018fb10 f i BaseVSShader.obj
 0002:00076c90       ?GetIndex@flashlight_ps30_Static_Index@@QAEHXZ 1018fc90 f i BaseVSShader.obj
 0002:00076ea0       ?GetIndex@lightmappedgeneric_flashlight_vs20_Dynamic_Index@@QAEHXZ 1018fea0 f i BaseVSShader.obj
 0002:00076fc0       ?GetIndex@lightmappedgeneric_flashlight_vs20_Static_Index@@QAEHXZ 1018ffc0 f i BaseVSShader.obj
 0002:000771a0       ?GetIndex@lightmappedgeneric_flashlight_vs30_Dynamic_Index@@QAEHXZ 101901a0 f i BaseVSShader.obj
 0002:000772c0       ?GetIndex@lightmappedgeneric_flashlight_vs30_Static_Index@@QAEHXZ 101902c0 f i BaseVSShader.obj
 0002:000774a0       ?GetIndex@vertexlitgeneric_flashlight_vs20_Dynamic_Index@@QAEHXZ 101904a0 f i BaseVSShader.obj
 0002:00077610       ?GetIndex@vertexlitgeneric_flashlight_vs20_Static_Index@@QAEHXZ 10190610 f i BaseVSShader.obj
 0002:00077790       ?GetInt@ConVar@@QBEHXZ     10190790 f i BaseVSShader.obj
 0002:000777d0       ?GetIntParam@@YAHHPAPAVIMaterialVar@@H@Z 101907d0 f i BaseVSShader.obj
 0002:00077850       ?GetType@IMaterialVar@@QBE?AW4MaterialVarType_t@@XZ 10190850 f i BaseVSShader.obj
 0002:000778a0       ?GetVecValue@IMaterialVar@@QBEXPAMH@Z 101908a0 f i BaseVSShader.obj
 0002:00077900       ?GetVecValueFast@IMaterialVar@@QBEXPAMH@Z 10190900 f i BaseVSShader.obj
 0002:00077a60       ?HashShadow2DJitter@CBaseVSShader@@QAEXMPAM0@Z 10190a60 f   BaseVSShader.obj
 0002:00077be0       ?Init@Vector4D@@QAEXMMMM@Z 10190be0 f i BaseVSShader.obj
 0002:00077d50       ?IsSnapshotting@CBaseShader@@QBE_NXZ 10190d50 f i BaseVSShader.obj
 0002:00077dc0       ?LoadBumpLightmapCoordinateAxes_PixelShader@CBaseVSShader@@QAEXH@Z 10190dc0 f   BaseVSShader.obj
 0002:00077f00       ?LoadBumpLightmapCoordinateAxes_VertexShader@CBaseVSShader@@QAEXH@Z 10190f00 f   BaseVSShader.obj
 0002:00078180       ?LoadModelViewMatrixIntoVertexShaderConstant@CBaseVSShader@@QAEXH@Z 10191180 f   BaseVSShader.obj
 0002:00078390       ?LoadProjectionMatrixIntoVertexShaderConstant@CBaseVSShader@@QAEXH@Z 10191390 f   BaseVSShader.obj
 0002:000784e0       ?LoadViewMatrixIntoVertexShaderConstant@CBaseVSShader@@QAEXH@Z 101914e0 f   BaseVSShader.obj
 0002:00078630       ?SetDETAIL@lightmappedgeneric_flashlight_vs20_Static_Index@@QAEX_N@Z 10191630 f i BaseVSShader.obj
 0002:000786b0       ?SetDETAIL@lightmappedgeneric_flashlight_vs30_Static_Index@@QAEX_N@Z 101916b0 f i BaseVSShader.obj
 0002:00078730       ?SetDETAILTEXTURE@flashlight_ps20b_Static_Index@@QAEX_N@Z 10191730 f i BaseVSShader.obj
 0002:000787b0       ?SetDETAILTEXTURE@flashlight_ps30_Static_Index@@QAEX_N@Z 101917b0 f i BaseVSShader.obj
 0002:00078830       ?SetDETAIL_BLEND_MODE@flashlight_ps20b_Static_Index@@QAEXH@Z 10191830 f i BaseVSShader.obj
 0002:00078960       ?SetDETAIL_BLEND_MODE@flashlight_ps30_Static_Index@@QAEXH@Z 10191960 f i BaseVSShader.obj
 0002:00078a90       ?SetEnvMapTintPixelShaderDynamicState@CBaseVSShader@@QAEXHHH_N@Z 10191a90 f   BaseVSShader.obj
 0002:00078f20       ?SetFLASHLIGHTDEPTHFILTERMODE@flashlight_ps20b_Static_Index@@QAEXH@Z 10191f20 f i BaseVSShader.obj
 0002:00079050       ?SetFLASHLIGHTDEPTHFILTERMODE@flashlight_ps30_Static_Index@@QAEXH@Z 10192050 f i BaseVSShader.obj
 0002:00079180       ?SetFLASHLIGHTSHADOWS@flashlight_ps20b_Dynamic_Index@@QAEX_N@Z 10192180 f i BaseVSShader.obj
 0002:00079200       ?SetFLASHLIGHTSHADOWS@flashlight_ps30_Dynamic_Index@@QAEX_N@Z 10192200 f i BaseVSShader.obj
 0002:00079280       ?SetFlashLightColorFromState@@YAXABUFlashlightState_t@@PAVIShaderDynamicAPI@@_NH2@Z 10192280 f i BaseVSShader.obj
 0002:000794b0       ?SetFlashlightVertexShaderConstants@CBaseVSShader@@QAEX_NH0H0@Z 101924b0 f   BaseVSShader.obj
 0002:00079880       ?SetHWMorphVertexShaderState@CBaseVSShader@@QAEXHHW4VertexTextureSampler_t@@@Z 10192880 f   BaseVSShader.obj
 0002:00079bb0       ?SetNORMALMAP2@flashlight_ps20b_Static_Index@@QAEX_N@Z 10192bb0 f i BaseVSShader.obj
 0002:00079c30       ?SetNORMALMAP2@flashlight_ps30_Static_Index@@QAEX_N@Z 10192c30 f i BaseVSShader.obj
 0002:00079cb0       ?SetNORMALMAP@flashlight_ps20b_Static_Index@@QAEXH@Z 10192cb0 f i BaseVSShader.obj
 0002:00079dd0       ?SetNORMALMAP@flashlight_ps30_Static_Index@@QAEXH@Z 10192dd0 f i BaseVSShader.obj
 0002:00079ef0       ?SetNORMALMAP@lightmappedgeneric_flashlight_vs20_Static_Index@@QAEX_N@Z 10192ef0 f i BaseVSShader.obj
 0002:00079f70       ?SetNORMALMAP@lightmappedgeneric_flashlight_vs30_Static_Index@@QAEX_N@Z 10192f70 f i BaseVSShader.obj
 0002:00079ff0       ?SetPixelShaderConstant@CBaseVSShader@@QAEXHH@Z 10192ff0 f   BaseVSShader.obj
 0002:0007a330       ?SetPixelShaderConstant@CBaseVSShader@@QAEXHHH@Z 10193330 f   BaseVSShader.obj
 0002:0007a760       ?SetPixelShaderConstantFudge@CBaseVSShader@@QAEXHH@Z 10193760 f   BaseVSShader.obj
 0002:0007abb0       ?SetPixelShaderConstantGammaToLinear@CBaseVSShader@@QAEXHH@Z 10193bb0 f   BaseVSShader.obj
 0002:0007b070       ?SetPixelShaderConstantGammaToLinear@CBaseVSShader@@QAEXHHH@Z 10194070 f   BaseVSShader.obj
 0002:0007b610       ?SetPixelShaderConstantGammaToLinear@CBaseVSShader@@QAEXHPBMH_N@Z 10194610 f   BaseVSShader.obj
 0002:0007b8a0       ?SetPixelShaderConstant_W@CBaseVSShader@@QAEXHHM@Z 101948a0 f   BaseVSShader.obj
 0002:0007bbf0       ?SetPixelShaderTextureScale@CBaseVSShader@@QAEXHH@Z 10194bf0 f   BaseVSShader.obj
 0002:0007be80       ?SetPixelShaderTextureScaledTransform@CBaseVSShader@@QAEXHHH@Z 10194e80 f   BaseVSShader.obj
 0002:0007c470       ?SetPixelShaderTextureTransform@CBaseVSShader@@QAEXHH@Z 10195470 f   BaseVSShader.obj
 0002:0007c7b0       ?SetPixelShaderTextureTranslation@CBaseVSShader@@QAEXHH@Z 101957b0 f   BaseVSShader.obj
 0002:0007ca20       ?SetSEAMLESS@flashlight_ps20b_Static_Index@@QAEX_N@Z 10195a20 f i BaseVSShader.obj
 0002:0007caa0       ?SetSEAMLESS@flashlight_ps30_Static_Index@@QAEX_N@Z 10195aa0 f i BaseVSShader.obj
 0002:0007cb20       ?SetSEAMLESS@lightmappedgeneric_flashlight_vs20_Static_Index@@QAEX_N@Z 10195b20 f i BaseVSShader.obj
 0002:0007cba0       ?SetSEAMLESS@lightmappedgeneric_flashlight_vs30_Static_Index@@QAEX_N@Z 10195ba0 f i BaseVSShader.obj
 0002:0007cc20       ?SetSKINNING@vertexlitgeneric_flashlight_vs20_Dynamic_Index@@QAEX_N@Z 10195c20 f i BaseVSShader.obj
 0002:0007cca0       ?SetTEETH@vertexlitgeneric_flashlight_vs20_Static_Index@@QAEX_N@Z 10195ca0 f i BaseVSShader.obj
 0002:0007cd20       ?SetUBERLIGHT@flashlight_ps30_Dynamic_Index@@QAEX_N@Z 10195d20 f i BaseVSShader.obj
 0002:0007cda0       ?SetVertexShaderConstant@CBaseVSShader@@QAEXHH@Z 10195da0 f   BaseVSShader.obj
 0002:0007d0e0       ?SetVertexShaderConstantGammaToLinear@CBaseVSShader@@QAEXHPBMH_N@Z 101960e0 f   BaseVSShader.obj
 0002:0007d370       ?SetVertexShaderMatrix3x4@CBaseVSShader@@QAEXHH@Z 10196370 f   BaseVSShader.obj
 0002:0007d4d0       ?SetVertexShaderMatrix4x4@CBaseVSShader@@QAEXHH@Z 101964d0 f   BaseVSShader.obj
 0002:0007d630       ?SetVertexShaderTextureScale@CBaseVSShader@@QAEXHH@Z 10196630 f   BaseVSShader.obj
 0002:0007d8c0       ?SetVertexShaderTextureScaledTransform@CBaseVSShader@@QAEXHHH@Z 101968c0 f   BaseVSShader.obj
 0002:0007deb0       ?SetVertexShaderTextureTransform@CBaseVSShader@@QAEXHH@Z 10196eb0 f   BaseVSShader.obj
 0002:0007e1f0       ?SetVertexShaderTextureTranslation@CBaseVSShader@@QAEXHH@Z 101971f0 f   BaseVSShader.obj
 0002:0007e460       ?SetWORLDVERTEXTRANSITION@flashlight_ps20b_Static_Index@@QAEX_N@Z 10197460 f i BaseVSShader.obj
 0002:0007e4e0       ?SetWORLDVERTEXTRANSITION@flashlight_ps30_Static_Index@@QAEX_N@Z 101974e0 f i BaseVSShader.obj
 0002:0007e560       ?SetWORLDVERTEXTRANSITION@lightmappedgeneric_flashlight_vs20_Static_Index@@QAEX_N@Z 10197560 f i BaseVSShader.obj
 0002:0007e5e0       ?SetWORLDVERTEXTRANSITION@lightmappedgeneric_flashlight_vs30_Static_Index@@QAEX_N@Z 101975e0 f i BaseVSShader.obj
 0002:0007e660       ?SetupUberlightFromState@@YAXPAVIShaderDynamicAPI@@ABUFlashlightState_t@@@Z 10197660 f i BaseVSShader.obj
 0002:0007eb80       ?ShadowAttenFromState@@YAMABUFlashlightState_t@@@Z 10197b80 f i BaseVSShader.obj
 0002:0007ec30       ?ShadowDepthTexture@MaterialSystem_Config_t@@QBE_NXZ 10197c30 f i BaseVSShader.obj
 0002:0007ec70       ?ShadowFilterFromState@@YAMABUFlashlightState_t@@@Z 10197c70 f i BaseVSShader.obj
 0002:0007ecd0       ?ToolsEnabled@@YA_NXZ      10197cd0 f   BaseVSShader.obj
 0002:0007edb0       ?fmod@@YAMMM@Z             10197db0 f i BaseVSShader.obj
 0002:0007ee20       _fmodf                     10197e20 f i BaseVSShader.obj
 0002:0007eea0       ??$CopyConstruct@PAVCShaderParam@Bloom@@@@YAPAPAVCShaderParam@Bloom@@PAPAV01@ABQAV01@@Z 10197ea0 f i Bloom.obj
 0002:0007ef40       ??$Destruct@PAVCShaderParam@Bloom@@@@YAXPAPAVCShaderParam@Bloom@@@Z 10197f40 f i Bloom.obj
 0002:0007efa0       ??$MemAllocClassName@V?$CUtlMemory@PAVCShaderParam@Bloom@@H@@@@YAPBDPAV?$CUtlMemory@PAVCShaderParam@Bloom@@H@@@Z 10197fa0 f i Bloom.obj
 0002:0007f020       ??$MemAllocClassName@V?$CUtlVector@PAVCShaderParam@Bloom@@V?$CUtlMemory@PAVCShaderParam@Bloom@@H@@@@@@YAPBDPAV?$CUtlVector@PAVCShaderParam@Bloom@@V?$CUtlMemory@PAVCShaderParam@Bloom@@H@@@@@Z 10198020 f i Bloom.obj
 0002:0007f0a0       ??0?$CUtlMemory@PAVCShaderParam@Bloom@@H@@QAE@HH@Z 101980a0 f i Bloom.obj
 0002:0007f290       ??0?$CUtlVector@PAVCShaderParam@Bloom@@V?$CUtlMemory@PAVCShaderParam@Bloom@@H@@@@QAE@HH@Z 10198290 f i Bloom.obj
 0002:0007f310       ??0CShader@Bloom@@QAE@XZ   10198310 f i Bloom.obj
 0002:0007f370       ??0CShaderParam@Bloom@@QAE@PBDW4ShaderParamType_t@@00H@Z 10198370 f i Bloom.obj
 0002:0007f430       ??0bloom_ps20b_Dynamic_Index@@QAE@PAVIShaderDynamicAPI@@@Z 10198430 f i Bloom.obj
 0002:0007f470       ??0bloom_ps20b_Static_Index@@QAE@PAVIShaderShadow@@PAPAVIMaterialVar@@@Z 10198470 f i Bloom.obj
 0002:0007f4b0       ??0screenspaceeffect_vs20_Dynamic_Index@@QAE@PAVIShaderDynamicAPI@@@Z 101984b0 f i Bloom.obj
 0002:0007f4f0       ??0screenspaceeffect_vs20_Static_Index@@QAE@PAVIShaderShadow@@PAPAVIMaterialVar@@@Z 101984f0 f i Bloom.obj
 0002:0007f560       ??1?$CUtlMemory@PAVCShaderParam@Bloom@@H@@QAE@XZ 10198560 f i Bloom.obj
 0002:0007f5b0       ??1?$CUtlVector@PAVCShaderParam@Bloom@@V?$CUtlMemory@PAVCShaderParam@Bloom@@H@@@@QAE@XZ 101985b0 f i Bloom.obj
 0002:0007f610       ??A?$CUtlMemory@PAVCShaderParam@Bloom@@H@@QAEAAPAVCShaderParam@Bloom@@H@Z 10198610 f i Bloom.obj
 0002:0007f810       ??A?$CUtlVector@PAVCShaderParam@Bloom@@V?$CUtlMemory@PAVCShaderParam@Bloom@@H@@@@QAEAAPAVCShaderParam@Bloom@@H@Z 10198810 f i Bloom.obj
 0002:0007f940       ??BCShaderParam@Bloom@@QAEHXZ 10198940 f i Bloom.obj
 0002:0007f980       ?AddToTail@?$CUtlVector@PAVCShaderParam@Bloom@@V?$CUtlMemory@PAVCShaderParam@Bloom@@H@@@@QAEHABQAVCShaderParam@Bloom@@@Z 10198980 f i Bloom.obj
 0002:0007faf0       ?Base@?$CUtlMemory@PAVCShaderParam@Bloom@@H@@QAEPAPAVCShaderParam@Bloom@@XZ 10198af0 f i Bloom.obj
 0002:0007fc10       ?Base@?$CUtlVector@PAVCShaderParam@Bloom@@V?$CUtlMemory@PAVCShaderParam@Bloom@@H@@@@QAEPAPAVCShaderParam@Bloom@@XZ 10198c10 f i Bloom.obj
 0002:0007fc60       ?Count@?$CUtlVector@PAVCShaderParam@Bloom@@V?$CUtlMemory@PAVCShaderParam@Bloom@@H@@@@QBEHXZ 10198c60 f i Bloom.obj
 0002:0007fca0       ?Element@?$CUtlVector@PAVCShaderParam@Bloom@@V?$CUtlMemory@PAVCShaderParam@Bloom@@H@@@@QAEAAPAVCShaderParam@Bloom@@H@Z 10198ca0 f i Bloom.obj
 0002:0007fdd0       ?GetFallbackShader@CShader@Bloom@@UBEPBDPAPAVIMaterialVar@@@Z 10198dd0 f i Bloom.obj
 0002:0007fe10       ?GetFlags@CShader@Bloom@@UBEHXZ 10198e10 f i Bloom.obj
 0002:0007fe50       ?GetIndex@bloom_ps20b_Dynamic_Index@@QAEHXZ 10198e50 f i Bloom.obj
 0002:0007fe90       ?GetIndex@bloom_ps20b_Static_Index@@QAEHXZ 10198e90 f i Bloom.obj
 0002:0007fed0       ?GetIndex@screenspaceeffect_vs20_Dynamic_Index@@QAEHXZ 10198ed0 f i Bloom.obj
 0002:0007ff10       ?GetIndex@screenspaceeffect_vs20_Static_Index@@QAEHXZ 10198f10 f i Bloom.obj
 0002:00080070       ?GetInfo@CShaderParam@Bloom@@QBEABUShaderParamInfo_t@@XZ 10199070 f i Bloom.obj
 0002:000800b0       ?GetName@CShader@Bloom@@UBEPBDXZ 101990b0 f i Bloom.obj
 0002:000800f0       ?GetParamCount@CShader@Bloom@@UBEHXZ 101990f0 f i Bloom.obj
 0002:00080150       ?GetParamInfo@CShader@Bloom@@UBEABUShaderParamInfo_t@@H@Z 10199150 f i Bloom.obj
 0002:000801f0       ?Grow@?$CUtlMemory@PAVCShaderParam@Bloom@@H@@QAEXH@Z 101991f0 f i Bloom.obj
 0002:00080860       ?GrowVector@?$CUtlVector@PAVCShaderParam@Bloom@@V?$CUtlMemory@PAVCShaderParam@Bloom@@H@@@@IAEXH@Z 10199860 f i Bloom.obj
 0002:00080980       ?InsertBefore@?$CUtlVector@PAVCShaderParam@Bloom@@V?$CUtlMemory@PAVCShaderParam@Bloom@@H@@@@QAEHHABQAVCShaderParam@Bloom@@@Z 10199980 f i Bloom.obj
 0002:00080c00       ?IsExternallyAllocated@?$CUtlMemory@PAVCShaderParam@Bloom@@H@@QBE_NXZ 10199c00 f i Bloom.obj
 0002:00080c70       ?IsIdxValid@?$CUtlMemory@PAVCShaderParam@Bloom@@H@@QBE_NH@Z 10199c70 f i Bloom.obj
 0002:00080cf0       ?IsReadOnly@?$CUtlMemory@PAVCShaderParam@Bloom@@H@@QBE_NXZ 10199cf0 f i Bloom.obj
 0002:00080d60       ?IsValidIndex@?$CUtlVector@PAVCShaderParam@Bloom@@V?$CUtlMemory@PAVCShaderParam@Bloom@@H@@@@QBE_NH@Z 10199d60 f i Bloom.obj
 0002:00080dd0       ?NumAllocated@?$CUtlMemory@PAVCShaderParam@Bloom@@H@@QBEHXZ 10199dd0 f i Bloom.obj
 0002:00080e10       ?OnDrawElements@CShader@Bloom@@UAEXPAPAVIMaterialVar@@PAVIShaderShadow@@PAVIShaderDynamicAPI@@W4VertexCompressionType_t@@PAPAVCBasePerMaterialContextData@@@Z 10199e10 f i Bloom.obj
 0002:00081250       ?OnInitShaderInstance@CShader@Bloom@@UAEXPAPAVIMaterialVar@@PAVIShaderInit@@PBD@Z 1019a250 f i Bloom.obj
 0002:00081360       ?Purge@?$CUtlMemory@PAVCShaderParam@Bloom@@H@@QAEXXZ 1019a360 f i Bloom.obj
 0002:00081410       ?Purge@?$CUtlVector@PAVCShaderParam@Bloom@@V?$CUtlMemory@PAVCShaderParam@Bloom@@H@@@@QAEXXZ 1019a410 f i Bloom.obj
 0002:00081480       ?RemoveAll@?$CUtlVector@PAVCShaderParam@Bloom@@V?$CUtlMemory@PAVCShaderParam@Bloom@@H@@@@QAEXXZ 1019a480 f i Bloom.obj
 0002:00081510       ?ResetDbgInfo@?$CUtlVector@PAVCShaderParam@Bloom@@V?$CUtlMemory@PAVCShaderParam@Bloom@@H@@@@IAEXXZ 1019a510 f i Bloom.obj
 0002:00081570       ?ShiftElementsRight@?$CUtlVector@PAVCShaderParam@Bloom@@V?$CUtlMemory@PAVCShaderParam@Bloom@@H@@@@IAEXHH@Z 1019a570 f i Bloom.obj
 0002:00081710       ?ValidateGrowSize@?$CUtlMemory@PAVCShaderParam@Bloom@@H@@IAEXXZ 1019a710 f i Bloom.obj
 0002:00081750       ??$CopyConstruct@PAVCShaderParam@BlurFilterX@@@@YAPAPAVCShaderParam@BlurFilterX@@PAPAV01@ABQAV01@@Z 1019a750 f i BlurFilterX.obj
 0002:000817f0       ??$Destruct@PAVCShaderParam@BlurFilterX@@@@YAXPAPAVCShaderParam@BlurFilterX@@@Z 1019a7f0 f i BlurFilterX.obj
 0002:00081850       ??$MemAllocClassName@V?$CUtlMemory@PAVCShaderParam@BlurFilterX@@H@@@@YAPBDPAV?$CUtlMemory@PAVCShaderParam@BlurFilterX@@H@@@Z 1019a850 f i BlurFilterX.obj
 0002:000818d0       ??$MemAllocClassName@V?$CUtlVector@PAVCShaderParam@BlurFilterX@@V?$CUtlMemory@PAVCShaderParam@BlurFilterX@@H@@@@@@YAPBDPAV?$CUtlVector@PAVCShaderParam@BlurFilterX@@V?$CUtlMemory@PAVCShaderParam@BlurFilterX@@H@@@@@Z 1019a8d0 f i BlurFilterX.obj
 0002:00081950       ??0?$CUtlMemory@PAVCShaderParam@BlurFilterX@@H@@QAE@HH@Z 1019a950 f i BlurFilterX.obj
 0002:00081b40       ??0?$CUtlVector@PAVCShaderParam@BlurFilterX@@V?$CUtlMemory@PAVCShaderParam@BlurFilterX@@H@@@@QAE@HH@Z 1019ab40 f i BlurFilterX.obj
 0002:00081bc0       ??0CShader@BlurFilterX@@QAE@XZ 1019abc0 f i BlurFilterX.obj
 0002:00081c20       ??0CShaderParam@BlurFilterX@@QAE@PBDW4ShaderParamType_t@@00H@Z 1019ac20 f i BlurFilterX.obj
 0002:00081ce0       ??0blurfilter_ps20b_Dynamic_Index@@QAE@PAVIShaderDynamicAPI@@@Z 1019ace0 f i BlurFilterX.obj
 0002:00081d20       ??0blurfilter_ps20b_Static_Index@@QAE@PAVIShaderShadow@@PAPAVIMaterialVar@@@Z 1019ad20 f i BlurFilterX.obj
 0002:00081d90       ??0blurfilter_vs20_Dynamic_Index@@QAE@PAVIShaderDynamicAPI@@@Z 1019ad90 f i BlurFilterX.obj
 0002:00081dd0       ??0blurfilter_vs20_Static_Index@@QAE@PAVIShaderShadow@@PAPAVIMaterialVar@@@Z 1019add0 f i BlurFilterX.obj
 0002:00081e20       ??1?$CUtlMemory@PAVCShaderParam@BlurFilterX@@H@@QAE@XZ 1019ae20 f i BlurFilterX.obj
 0002:00081e70       ??1?$CUtlVector@PAVCShaderParam@BlurFilterX@@V?$CUtlMemory@PAVCShaderParam@BlurFilterX@@H@@@@QAE@XZ 1019ae70 f i BlurFilterX.obj
 0002:00081ed0       ??A?$CUtlMemory@PAVCShaderParam@BlurFilterX@@H@@QAEAAPAVCShaderParam@BlurFilterX@@H@Z 1019aed0 f i BlurFilterX.obj
 0002:000820d0       ??A?$CUtlVector@PAVCShaderParam@BlurFilterX@@V?$CUtlMemory@PAVCShaderParam@BlurFilterX@@H@@@@QAEAAPAVCShaderParam@BlurFilterX@@H@Z 1019b0d0 f i BlurFilterX.obj
 0002:00082200       ??BCShaderParam@BlurFilterX@@QAEHXZ 1019b200 f i BlurFilterX.obj
 0002:00082240       ?AddToTail@?$CUtlVector@PAVCShaderParam@BlurFilterX@@V?$CUtlMemory@PAVCShaderParam@BlurFilterX@@H@@@@QAEHABQAVCShaderParam@BlurFilterX@@@Z 1019b240 f i BlurFilterX.obj
 0002:000823b0       ?Base@?$CUtlMemory@PAVCShaderParam@BlurFilterX@@H@@QAEPAPAVCShaderParam@BlurFilterX@@XZ 1019b3b0 f i BlurFilterX.obj
 0002:000824d0       ?Base@?$CUtlVector@PAVCShaderParam@BlurFilterX@@V?$CUtlMemory@PAVCShaderParam@BlurFilterX@@H@@@@QAEPAPAVCShaderParam@BlurFilterX@@XZ 1019b4d0 f i BlurFilterX.obj
 0002:00082520       ?Count@?$CUtlVector@PAVCShaderParam@BlurFilterX@@V?$CUtlMemory@PAVCShaderParam@BlurFilterX@@H@@@@QBEHXZ 1019b520 f i BlurFilterX.obj
 0002:00082560       ?Element@?$CUtlVector@PAVCShaderParam@BlurFilterX@@V?$CUtlMemory@PAVCShaderParam@BlurFilterX@@H@@@@QAEAAPAVCShaderParam@BlurFilterX@@H@Z 1019b560 f i BlurFilterX.obj
 0002:00082690       ?GetFallbackShader@CShader@BlurFilterX@@UBEPBDPAPAVIMaterialVar@@@Z 1019b690 f i BlurFilterX.obj
 0002:000826d0       ?GetFlags@CShader@BlurFilterX@@UBEHXZ 1019b6d0 f i BlurFilterX.obj
 0002:00082710       ?GetIndex@blurfilter_ps20b_Dynamic_Index@@QAEHXZ 1019b710 f i BlurFilterX.obj
 0002:00082750       ?GetIndex@blurfilter_ps20b_Static_Index@@QAEHXZ 1019b750 f i BlurFilterX.obj
 0002:000828b0       ?GetIndex@blurfilter_vs20_Dynamic_Index@@QAEHXZ 1019b8b0 f i BlurFilterX.obj
 0002:000828f0       ?GetIndex@blurfilter_vs20_Static_Index@@QAEHXZ 1019b8f0 f i BlurFilterX.obj
 0002:00082a10       ?GetInfo@CShaderParam@BlurFilterX@@QBEABUShaderParamInfo_t@@XZ 1019ba10 f i BlurFilterX.obj
 0002:00082a50       ?GetName@CShader@BlurFilterX@@UBEPBDXZ 1019ba50 f i BlurFilterX.obj
 0002:00082a90       ?GetParamCount@CShader@BlurFilterX@@UBEHXZ 1019ba90 f i BlurFilterX.obj
 0002:00082af0       ?GetParamInfo@CShader@BlurFilterX@@UBEABUShaderParamInfo_t@@H@Z 1019baf0 f i BlurFilterX.obj
 0002:00082b90       ?Grow@?$CUtlMemory@PAVCShaderParam@BlurFilterX@@H@@QAEXH@Z 1019bb90 f i BlurFilterX.obj
 0002:00083200       ?GrowVector@?$CUtlVector@PAVCShaderParam@BlurFilterX@@V?$CUtlMemory@PAVCShaderParam@BlurFilterX@@H@@@@IAEXH@Z 1019c200 f i BlurFilterX.obj
 0002:00083320       ?InsertBefore@?$CUtlVector@PAVCShaderParam@BlurFilterX@@V?$CUtlMemory@PAVCShaderParam@BlurFilterX@@H@@@@QAEHHABQAVCShaderParam@BlurFilterX@@@Z 1019c320 f i BlurFilterX.obj
 0002:000835a0       ?IsExternallyAllocated@?$CUtlMemory@PAVCShaderParam@BlurFilterX@@H@@QBE_NXZ 1019c5a0 f i BlurFilterX.obj
 0002:00083610       ?IsIdxValid@?$CUtlMemory@PAVCShaderParam@BlurFilterX@@H@@QBE_NH@Z 1019c610 f i BlurFilterX.obj
 0002:00083690       ?IsReadOnly@?$CUtlMemory@PAVCShaderParam@BlurFilterX@@H@@QBE_NXZ 1019c690 f i BlurFilterX.obj
 0002:00083700       ?IsValidIndex@?$CUtlVector@PAVCShaderParam@BlurFilterX@@V?$CUtlMemory@PAVCShaderParam@BlurFilterX@@H@@@@QBE_NH@Z 1019c700 f i BlurFilterX.obj
 0002:00083770       ?NumAllocated@?$CUtlMemory@PAVCShaderParam@BlurFilterX@@H@@QBEHXZ 1019c770 f i BlurFilterX.obj
 0002:000837b0       ?OnDrawElements@CShader@BlurFilterX@@UAEXPAPAVIMaterialVar@@PAVIShaderShadow@@PAVIShaderDynamicAPI@@W4VertexCompressionType_t@@PAPAVCBasePerMaterialContextData@@@Z 1019c7b0 f i BlurFilterX.obj
 0002:00084310       ?OnInitShaderInstance@CShader@BlurFilterX@@UAEXPAPAVIMaterialVar@@PAVIShaderInit@@PBD@Z 1019d310 f i BlurFilterX.obj
 0002:00084430       ?Purge@?$CUtlMemory@PAVCShaderParam@BlurFilterX@@H@@QAEXXZ 1019d430 f i BlurFilterX.obj
 0002:000844e0       ?Purge@?$CUtlVector@PAVCShaderParam@BlurFilterX@@V?$CUtlMemory@PAVCShaderParam@BlurFilterX@@H@@@@QAEXXZ 1019d4e0 f i BlurFilterX.obj
 0002:00084550       ?RemoveAll@?$CUtlVector@PAVCShaderParam@BlurFilterX@@V?$CUtlMemory@PAVCShaderParam@BlurFilterX@@H@@@@QAEXXZ 1019d550 f i BlurFilterX.obj
 0002:000845e0       ?ResetDbgInfo@?$CUtlVector@PAVCShaderParam@BlurFilterX@@V?$CUtlMemory@PAVCShaderParam@BlurFilterX@@H@@@@IAEXXZ 1019d5e0 f i BlurFilterX.obj
 0002:00084640       ?SetCLEAR_COLOR@blurfilter_ps20b_Static_Index@@QAEX_N@Z 1019d640 f i BlurFilterX.obj
 0002:000846c0       ?SetKERNEL@blurfilter_ps20b_Static_Index@@QAEXH@Z 1019d6c0 f i BlurFilterX.obj
 0002:000847e0       ?SetKERNEL@blurfilter_vs20_Static_Index@@QAEXH@Z 1019d7e0 f i BlurFilterX.obj
 0002:00084900       ?ShiftElementsRight@?$CUtlVector@PAVCShaderParam@BlurFilterX@@V?$CUtlMemory@PAVCShaderParam@BlurFilterX@@H@@@@IAEXHH@Z 1019d900 f i BlurFilterX.obj
 0002:00084aa0       ?ValidateGrowSize@?$CUtlMemory@PAVCShaderParam@BlurFilterX@@H@@IAEXXZ 1019daa0 f i BlurFilterX.obj
 0002:00084ae0       ??$CopyConstruct@PAVCShaderParam@BlurFilterY@@@@YAPAPAVCShaderParam@BlurFilterY@@PAPAV01@ABQAV01@@Z 1019dae0 f i BlurFilterY.obj
 0002:00084b80       ??$Destruct@PAVCShaderParam@BlurFilterY@@@@YAXPAPAVCShaderParam@BlurFilterY@@@Z 1019db80 f i BlurFilterY.obj
 0002:00084be0       ??$MemAllocClassName@V?$CUtlMemory@PAVCShaderParam@BlurFilterY@@H@@@@YAPBDPAV?$CUtlMemory@PAVCShaderParam@BlurFilterY@@H@@@Z 1019dbe0 f i BlurFilterY.obj
 0002:00084c60       ??$MemAllocClassName@V?$CUtlVector@PAVCShaderParam@BlurFilterY@@V?$CUtlMemory@PAVCShaderParam@BlurFilterY@@H@@@@@@YAPBDPAV?$CUtlVector@PAVCShaderParam@BlurFilterY@@V?$CUtlMemory@PAVCShaderParam@BlurFilterY@@H@@@@@Z 1019dc60 f i BlurFilterY.obj
 0002:00084ce0       ??0?$CUtlMemory@PAVCShaderParam@BlurFilterY@@H@@QAE@HH@Z 1019dce0 f i BlurFilterY.obj
 0002:00084ed0       ??0?$CUtlVector@PAVCShaderParam@BlurFilterY@@V?$CUtlMemory@PAVCShaderParam@BlurFilterY@@H@@@@QAE@HH@Z 1019ded0 f i BlurFilterY.obj
 0002:00084f50       ??0CShader@BlurFilterY@@QAE@XZ 1019df50 f i BlurFilterY.obj
 0002:00084fb0       ??0CShaderParam@BlurFilterY@@QAE@PBDW4ShaderParamType_t@@00H@Z 1019dfb0 f i BlurFilterY.obj
 0002:00085070       ??1?$CUtlMemory@PAVCShaderParam@BlurFilterY@@H@@QAE@XZ 1019e070 f i BlurFilterY.obj
 0002:000850c0       ??1?$CUtlVector@PAVCShaderParam@BlurFilterY@@V?$CUtlMemory@PAVCShaderParam@BlurFilterY@@H@@@@QAE@XZ 1019e0c0 f i BlurFilterY.obj
 0002:00085120       ??A?$CUtlMemory@PAVCShaderParam@BlurFilterY@@H@@QAEAAPAVCShaderParam@BlurFilterY@@H@Z 1019e120 f i BlurFilterY.obj
 0002:00085320       ??A?$CUtlVector@PAVCShaderParam@BlurFilterY@@V?$CUtlMemory@PAVCShaderParam@BlurFilterY@@H@@@@QAEAAPAVCShaderParam@BlurFilterY@@H@Z 1019e320 f i BlurFilterY.obj
 0002:00085450       ??BCShaderParam@BlurFilterY@@QAEHXZ 1019e450 f i BlurFilterY.obj
 0002:00085490       ?AddToTail@?$CUtlVector@PAVCShaderParam@BlurFilterY@@V?$CUtlMemory@PAVCShaderParam@BlurFilterY@@H@@@@QAEHABQAVCShaderParam@BlurFilterY@@@Z 1019e490 f i BlurFilterY.obj
 0002:00085600       ?Base@?$CUtlMemory@PAVCShaderParam@BlurFilterY@@H@@QAEPAPAVCShaderParam@BlurFilterY@@XZ 1019e600 f i BlurFilterY.obj
 0002:00085720       ?Base@?$CUtlVector@PAVCShaderParam@BlurFilterY@@V?$CUtlMemory@PAVCShaderParam@BlurFilterY@@H@@@@QAEPAPAVCShaderParam@BlurFilterY@@XZ 1019e720 f i BlurFilterY.obj
 0002:00085770       ?Count@?$CUtlVector@PAVCShaderParam@BlurFilterY@@V?$CUtlMemory@PAVCShaderParam@BlurFilterY@@H@@@@QBEHXZ 1019e770 f i BlurFilterY.obj
 0002:000857b0       ?Element@?$CUtlVector@PAVCShaderParam@BlurFilterY@@V?$CUtlMemory@PAVCShaderParam@BlurFilterY@@H@@@@QAEAAPAVCShaderParam@BlurFilterY@@H@Z 1019e7b0 f i BlurFilterY.obj
 0002:000858e0       ?GetFallbackShader@CShader@BlurFilterY@@UBEPBDPAPAVIMaterialVar@@@Z 1019e8e0 f i BlurFilterY.obj
 0002:00085920       ?GetFlags@CShader@BlurFilterY@@UBEHXZ 1019e920 f i BlurFilterY.obj
 0002:00085960       ?GetInfo@CShaderParam@BlurFilterY@@QBEABUShaderParamInfo_t@@XZ 1019e960 f i BlurFilterY.obj
 0002:000859a0       ?GetName@CShader@BlurFilterY@@UBEPBDXZ 1019e9a0 f i BlurFilterY.obj
 0002:000859e0       ?GetParamCount@CShader@BlurFilterY@@UBEHXZ 1019e9e0 f i BlurFilterY.obj
 0002:00085a40       ?GetParamInfo@CShader@BlurFilterY@@UBEABUShaderParamInfo_t@@H@Z 1019ea40 f i BlurFilterY.obj
 0002:00085ae0       ?Grow@?$CUtlMemory@PAVCShaderParam@BlurFilterY@@H@@QAEXH@Z 1019eae0 f i BlurFilterY.obj
 0002:00086150       ?GrowVector@?$CUtlVector@PAVCShaderParam@BlurFilterY@@V?$CUtlMemory@PAVCShaderParam@BlurFilterY@@H@@@@IAEXH@Z 1019f150 f i BlurFilterY.obj
 0002:00086270       ?InsertBefore@?$CUtlVector@PAVCShaderParam@BlurFilterY@@V?$CUtlMemory@PAVCShaderParam@BlurFilterY@@H@@@@QAEHHABQAVCShaderParam@BlurFilterY@@@Z 1019f270 f i BlurFilterY.obj
 0002:000864f0       ?IsExternallyAllocated@?$CUtlMemory@PAVCShaderParam@BlurFilterY@@H@@QBE_NXZ 1019f4f0 f i BlurFilterY.obj
 0002:00086560       ?IsIdxValid@?$CUtlMemory@PAVCShaderParam@BlurFilterY@@H@@QBE_NH@Z 1019f560 f i BlurFilterY.obj
 0002:000865e0       ?IsReadOnly@?$CUtlMemory@PAVCShaderParam@BlurFilterY@@H@@QBE_NXZ 1019f5e0 f i BlurFilterY.obj
 0002:00086650       ?IsValidIndex@?$CUtlVector@PAVCShaderParam@BlurFilterY@@V?$CUtlMemory@PAVCShaderParam@BlurFilterY@@H@@@@QBE_NH@Z 1019f650 f i BlurFilterY.obj
 0002:000866c0       ?NumAllocated@?$CUtlMemory@PAVCShaderParam@BlurFilterY@@H@@QBEHXZ 1019f6c0 f i BlurFilterY.obj
 0002:00086700       ?OnDrawElements@CShader@BlurFilterY@@UAEXPAPAVIMaterialVar@@PAVIShaderShadow@@PAVIShaderDynamicAPI@@W4VertexCompressionType_t@@PAPAVCBasePerMaterialContextData@@@Z 1019f700 f i BlurFilterY.obj
 0002:00087300       ?OnInitShaderInstance@CShader@BlurFilterY@@UAEXPAPAVIMaterialVar@@PAVIShaderInit@@PBD@Z 101a0300 f i BlurFilterY.obj
 0002:00087600       ?Purge@?$CUtlMemory@PAVCShaderParam@BlurFilterY@@H@@QAEXXZ 101a0600 f i BlurFilterY.obj
 0002:000876b0       ?Purge@?$CUtlVector@PAVCShaderParam@BlurFilterY@@V?$CUtlMemory@PAVCShaderParam@BlurFilterY@@H@@@@QAEXXZ 101a06b0 f i BlurFilterY.obj
 0002:00087720       ?RemoveAll@?$CUtlVector@PAVCShaderParam@BlurFilterY@@V?$CUtlMemory@PAVCShaderParam@BlurFilterY@@H@@@@QAEXXZ 101a0720 f i BlurFilterY.obj
 0002:000877b0       ?ResetDbgInfo@?$CUtlVector@PAVCShaderParam@BlurFilterY@@V?$CUtlMemory@PAVCShaderParam@BlurFilterY@@H@@@@IAEXXZ 101a07b0 f i BlurFilterY.obj
 0002:00087810       ?SetCLEAR_COLOR@blurfilter_ps20b_Static_Index@@QAEXH@Z 101a0810 f i BlurFilterY.obj
 0002:00087930       ?ShiftElementsRight@?$CUtlVector@PAVCShaderParam@BlurFilterY@@V?$CUtlMemory@PAVCShaderParam@BlurFilterY@@H@@@@IAEXHH@Z 101a0930 f i BlurFilterY.obj
 0002:00087ad0       ?ValidateGrowSize@?$CUtlMemory@PAVCShaderParam@BlurFilterY@@H@@IAEXXZ 101a0ad0 f i BlurFilterY.obj
 0002:00087b10       ??$CopyConstruct@PAVCShaderParam@BufferClearObeyStencil_DX9@@@@YAPAPAVCShaderParam@BufferClearObeyStencil_DX9@@PAPAV01@ABQAV01@@Z 101a0b10 f i BufferClearObeyStencil_dx9.obj
 0002:00087bb0       ??$Destruct@PAVCShaderParam@BufferClearObeyStencil@@@@YAXPAPAVCShaderParam@BufferClearObeyStencil@@@Z 101a0bb0 f i BufferClearObeyStencil_dx9.obj
 0002:00087c10       ??$Destruct@PAVCShaderParam@BufferClearObeyStencil_DX9@@@@YAXPAPAVCShaderParam@BufferClearObeyStencil_DX9@@@Z 101a0c10 f i BufferClearObeyStencil_dx9.obj
 0002:00087c70       ??$MemAllocClassName@V?$CUtlMemory@PAVCShaderParam@BufferClearObeyStencil@@H@@@@YAPBDPAV?$CUtlMemory@PAVCShaderParam@BufferClearObeyStencil@@H@@@Z 101a0c70 f i BufferClearObeyStencil_dx9.obj
 0002:00087cf0       ??$MemAllocClassName@V?$CUtlMemory@PAVCShaderParam@BufferClearObeyStencil_DX9@@H@@@@YAPBDPAV?$CUtlMemory@PAVCShaderParam@BufferClearObeyStencil_DX9@@H@@@Z 101a0cf0 f i BufferClearObeyStencil_dx9.obj
 0002:00087d70       ??$MemAllocClassName@V?$CUtlVector@PAVCShaderParam@BufferClearObeyStencil_DX9@@V?$CUtlMemory@PAVCShaderParam@BufferClearObeyStencil_DX9@@H@@@@@@YAPBDPAV?$CUtlVector@PAVCShaderParam@BufferClearObeyStencil_DX9@@V?$CUtlMemory@PAVCShaderParam@BufferClearObeyStencil_DX9@@H@@@@@Z 101a0d70 f i BufferClearObeyStencil_dx9.obj
 0002:00087df0       ??0?$CUtlMemory@PAVCShaderParam@BufferClearObeyStencil@@H@@QAE@HH@Z 101a0df0 f i BufferClearObeyStencil_dx9.obj
 0002:00087fe0       ??0?$CUtlMemory@PAVCShaderParam@BufferClearObeyStencil_DX9@@H@@QAE@HH@Z 101a0fe0 f i BufferClearObeyStencil_dx9.obj
 0002:000881d0       ??0?$CUtlVector@PAVCShaderParam@BufferClearObeyStencil@@V?$CUtlMemory@PAVCShaderParam@BufferClearObeyStencil@@H@@@@QAE@HH@Z 101a11d0 f i BufferClearObeyStencil_dx9.obj
 0002:00088250       ??0?$CUtlVector@PAVCShaderParam@BufferClearObeyStencil_DX9@@V?$CUtlMemory@PAVCShaderParam@BufferClearObeyStencil_DX9@@H@@@@QAE@HH@Z 101a1250 f i BufferClearObeyStencil_dx9.obj
 0002:000882d0       ??0CShader@BufferClearObeyStencil@@QAE@XZ 101a12d0 f i BufferClearObeyStencil_dx9.obj
 0002:00088330       ??0CShader@BufferClearObeyStencil_DX9@@QAE@XZ 101a1330 f i BufferClearObeyStencil_dx9.obj
 0002:00088390       ??0CShaderParam@BufferClearObeyStencil_DX9@@QAE@PBDW4ShaderParamType_t@@00H@Z 101a1390 f i BufferClearObeyStencil_dx9.obj
 0002:00088450       ??0bufferclearobeystencil_ps20b_Dynamic_Index@@QAE@PAVIShaderDynamicAPI@@@Z 101a1450 f i BufferClearObeyStencil_dx9.obj
 0002:00088490       ??0bufferclearobeystencil_ps20b_Static_Index@@QAE@PAVIShaderShadow@@PAPAVIMaterialVar@@@Z 101a1490 f i BufferClearObeyStencil_dx9.obj
 0002:000884d0       ??0bufferclearobeystencil_vs20_Dynamic_Index@@QAE@PAVIShaderDynamicAPI@@@Z 101a14d0 f i BufferClearObeyStencil_dx9.obj
 0002:00088510       ??0bufferclearobeystencil_vs20_Static_Index@@QAE@PAVIShaderShadow@@PAPAVIMaterialVar@@@Z 101a1510 f i BufferClearObeyStencil_dx9.obj
 0002:00088560       ??1?$CUtlMemory@PAVCShaderParam@BufferClearObeyStencil@@H@@QAE@XZ 101a1560 f i BufferClearObeyStencil_dx9.obj
 0002:000885b0       ??1?$CUtlMemory@PAVCShaderParam@BufferClearObeyStencil_DX9@@H@@QAE@XZ 101a15b0 f i BufferClearObeyStencil_dx9.obj
 0002:00088600       ??1?$CUtlVector@PAVCShaderParam@BufferClearObeyStencil@@V?$CUtlMemory@PAVCShaderParam@BufferClearObeyStencil@@H@@@@QAE@XZ 101a1600 f i BufferClearObeyStencil_dx9.obj
 0002:00088660       ??1?$CUtlVector@PAVCShaderParam@BufferClearObeyStencil_DX9@@V?$CUtlMemory@PAVCShaderParam@BufferClearObeyStencil_DX9@@H@@@@QAE@XZ 101a1660 f i BufferClearObeyStencil_dx9.obj
 0002:000886c0       ??A?$CUtlMemory@PAVCShaderParam@BufferClearObeyStencil@@H@@QAEAAPAVCShaderParam@BufferClearObeyStencil@@H@Z 101a16c0 f i BufferClearObeyStencil_dx9.obj
 0002:000888c0       ??A?$CUtlMemory@PAVCShaderParam@BufferClearObeyStencil_DX9@@H@@QAEAAPAVCShaderParam@BufferClearObeyStencil_DX9@@H@Z 101a18c0 f i BufferClearObeyStencil_dx9.obj
 0002:00088ac0       ??A?$CUtlVector@PAVCShaderParam@BufferClearObeyStencil@@V?$CUtlMemory@PAVCShaderParam@BufferClearObeyStencil@@H@@@@QAEAAPAVCShaderParam@BufferClearObeyStencil@@H@Z 101a1ac0 f i BufferClearObeyStencil_dx9.obj
 0002:00088bf0       ??A?$CUtlVector@PAVCShaderParam@BufferClearObeyStencil_DX9@@V?$CUtlMemory@PAVCShaderParam@BufferClearObeyStencil_DX9@@H@@@@QAEAAPAVCShaderParam@BufferClearObeyStencil_DX9@@H@Z 101a1bf0 f i BufferClearObeyStencil_dx9.obj
 0002:00088d20       ??BCShaderParam@BufferClearObeyStencil_DX9@@QAEHXZ 101a1d20 f i BufferClearObeyStencil_dx9.obj
 0002:00088d60       ?AddToTail@?$CUtlVector@PAVCShaderParam@BufferClearObeyStencil_DX9@@V?$CUtlMemory@PAVCShaderParam@BufferClearObeyStencil_DX9@@H@@@@QAEHABQAVCShaderParam@BufferClearObeyStencil_DX9@@@Z 101a1d60 f i BufferClearObeyStencil_dx9.obj
 0002:00088ed0       ?Base@?$CUtlMemory@PAVCShaderParam@BufferClearObeyStencil@@H@@QAEPAPAVCShaderParam@BufferClearObeyStencil@@XZ 101a1ed0 f i BufferClearObeyStencil_dx9.obj
 0002:00088ff0       ?Base@?$CUtlMemory@PAVCShaderParam@BufferClearObeyStencil_DX9@@H@@QAEPAPAVCShaderParam@BufferClearObeyStencil_DX9@@XZ 101a1ff0 f i BufferClearObeyStencil_dx9.obj
 0002:00089110       ?Base@?$CUtlVector@PAVCShaderParam@BufferClearObeyStencil@@V?$CUtlMemory@PAVCShaderParam@BufferClearObeyStencil@@H@@@@QAEPAPAVCShaderParam@BufferClearObeyStencil@@XZ 101a2110 f i BufferClearObeyStencil_dx9.obj
 0002:00089160       ?Base@?$CUtlVector@PAVCShaderParam@BufferClearObeyStencil_DX9@@V?$CUtlMemory@PAVCShaderParam@BufferClearObeyStencil_DX9@@H@@@@QAEPAPAVCShaderParam@BufferClearObeyStencil_DX9@@XZ 101a2160 f i BufferClearObeyStencil_dx9.obj
 0002:000891b0       ?Count@?$CUtlVector@PAVCShaderParam@BufferClearObeyStencil@@V?$CUtlMemory@PAVCShaderParam@BufferClearObeyStencil@@H@@@@QBEHXZ 101a21b0 f i BufferClearObeyStencil_dx9.obj
 0002:000891f0       ?Count@?$CUtlVector@PAVCShaderParam@BufferClearObeyStencil_DX9@@V?$CUtlMemory@PAVCShaderParam@BufferClearObeyStencil_DX9@@H@@@@QBEHXZ 101a21f0 f i BufferClearObeyStencil_dx9.obj
 0002:00089230       ?Element@?$CUtlVector@PAVCShaderParam@BufferClearObeyStencil@@V?$CUtlMemory@PAVCShaderParam@BufferClearObeyStencil@@H@@@@QAEAAPAVCShaderParam@BufferClearObeyStencil@@H@Z 101a2230 f i BufferClearObeyStencil_dx9.obj
 0002:00089360       ?Element@?$CUtlVector@PAVCShaderParam@BufferClearObeyStencil_DX9@@V?$CUtlMemory@PAVCShaderParam@BufferClearObeyStencil_DX9@@H@@@@QAEAAPAVCShaderParam@BufferClearObeyStencil_DX9@@H@Z 101a2360 f i BufferClearObeyStencil_dx9.obj
 0002:00089490       ?GetFallbackShader@CShader@BufferClearObeyStencil@@UBEPBDPAPAVIMaterialVar@@@Z 101a2490 f i BufferClearObeyStencil_dx9.obj
 0002:000894d0       ?GetFallbackShader@CShader@BufferClearObeyStencil_DX9@@UBEPBDPAPAVIMaterialVar@@@Z 101a24d0 f i BufferClearObeyStencil_dx9.obj
 0002:00089510       ?GetFlags@CShader@BufferClearObeyStencil@@UBEHXZ 101a2510 f i BufferClearObeyStencil_dx9.obj
 0002:00089550       ?GetFlags@CShader@BufferClearObeyStencil_DX9@@UBEHXZ 101a2550 f i BufferClearObeyStencil_dx9.obj
 0002:00089590       ?GetIndex@bufferclearobeystencil_ps20b_Dynamic_Index@@QAEHXZ 101a2590 f i BufferClearObeyStencil_dx9.obj
 0002:000895d0       ?GetIndex@bufferclearobeystencil_ps20b_Static_Index@@QAEHXZ 101a25d0 f i BufferClearObeyStencil_dx9.obj
 0002:00089610       ?GetIndex@bufferclearobeystencil_vs20_Dynamic_Index@@QAEHXZ 101a2610 f i BufferClearObeyStencil_dx9.obj
 0002:00089650       ?GetIndex@bufferclearobeystencil_vs20_Static_Index@@QAEHXZ 101a2650 f i BufferClearObeyStencil_dx9.obj
 0002:00089770       ?GetInfo@CShaderParam@BufferClearObeyStencil@@QBEABUShaderParamInfo_t@@XZ 101a2770 f i BufferClearObeyStencil_dx9.obj
 0002:000897b0       ?GetInfo@CShaderParam@BufferClearObeyStencil_DX9@@QBEABUShaderParamInfo_t@@XZ 101a27b0 f i BufferClearObeyStencil_dx9.obj
 0002:000897f0       ?GetName@CShader@BufferClearObeyStencil@@UBEPBDXZ 101a27f0 f i BufferClearObeyStencil_dx9.obj
 0002:00089830       ?GetName@CShader@BufferClearObeyStencil_DX9@@UBEPBDXZ 101a2830 f i BufferClearObeyStencil_dx9.obj
 0002:00089870       ?GetParamCount@CShader@BufferClearObeyStencil@@UBEHXZ 101a2870 f i BufferClearObeyStencil_dx9.obj
 0002:000898d0       ?GetParamCount@CShader@BufferClearObeyStencil_DX9@@UBEHXZ 101a28d0 f i BufferClearObeyStencil_dx9.obj
 0002:00089930       ?GetParamInfo@CShader@BufferClearObeyStencil@@UBEABUShaderParamInfo_t@@H@Z 101a2930 f i BufferClearObeyStencil_dx9.obj
 0002:000899d0       ?GetParamInfo@CShader@BufferClearObeyStencil_DX9@@UBEABUShaderParamInfo_t@@H@Z 101a29d0 f i BufferClearObeyStencil_dx9.obj
 0002:00089a70       ?Grow@?$CUtlMemory@PAVCShaderParam@BufferClearObeyStencil_DX9@@H@@QAEXH@Z 101a2a70 f i BufferClearObeyStencil_dx9.obj
 0002:0008a0e0       ?GrowVector@?$CUtlVector@PAVCShaderParam@BufferClearObeyStencil_DX9@@V?$CUtlMemory@PAVCShaderParam@BufferClearObeyStencil_DX9@@H@@@@IAEXH@Z 101a30e0 f i BufferClearObeyStencil_dx9.obj
 0002:0008a200       ?InsertBefore@?$CUtlVector@PAVCShaderParam@BufferClearObeyStencil_DX9@@V?$CUtlMemory@PAVCShaderParam@BufferClearObeyStencil_DX9@@H@@@@QAEHHABQAVCShaderParam@BufferClearObeyStencil_DX9@@@Z 101a3200 f i BufferClearObeyStencil_dx9.obj
 0002:0008a480       ?IsExternallyAllocated@?$CUtlMemory@PAVCShaderParam@BufferClearObeyStencil@@H@@QBE_NXZ 101a3480 f i BufferClearObeyStencil_dx9.obj
 0002:0008a4f0       ?IsExternallyAllocated@?$CUtlMemory@PAVCShaderParam@BufferClearObeyStencil_DX9@@H@@QBE_NXZ 101a34f0 f i BufferClearObeyStencil_dx9.obj
 0002:0008a560       ?IsIdxValid@?$CUtlMemory@PAVCShaderParam@BufferClearObeyStencil@@H@@QBE_NH@Z 101a3560 f i BufferClearObeyStencil_dx9.obj
 0002:0008a5e0       ?IsIdxValid@?$CUtlMemory@PAVCShaderParam@BufferClearObeyStencil_DX9@@H@@QBE_NH@Z 101a35e0 f i BufferClearObeyStencil_dx9.obj
 0002:0008a660       ?IsReadOnly@?$CUtlMemory@PAVCShaderParam@BufferClearObeyStencil@@H@@QBE_NXZ 101a3660 f i BufferClearObeyStencil_dx9.obj
 0002:0008a6d0       ?IsReadOnly@?$CUtlMemory@PAVCShaderParam@BufferClearObeyStencil_DX9@@H@@QBE_NXZ 101a36d0 f i BufferClearObeyStencil_dx9.obj
 0002:0008a740       ?IsValidIndex@?$CUtlVector@PAVCShaderParam@BufferClearObeyStencil_DX9@@V?$CUtlMemory@PAVCShaderParam@BufferClearObeyStencil_DX9@@H@@@@QBE_NH@Z 101a3740 f i BufferClearObeyStencil_dx9.obj
 0002:0008a7b0       ?NumAllocated@?$CUtlMemory@PAVCShaderParam@BufferClearObeyStencil_DX9@@H@@QBEHXZ 101a37b0 f i BufferClearObeyStencil_dx9.obj
 0002:0008a7f0       ?OnDrawElements@CShader@BufferClearObeyStencil@@UAEXPAPAVIMaterialVar@@PAVIShaderShadow@@PAVIShaderDynamicAPI@@W4VertexCompressionType_t@@PAPAVCBasePerMaterialContextData@@@Z 101a37f0 f i BufferClearObeyStencil_dx9.obj
 0002:0008a830       ?OnDrawElements@CShader@BufferClearObeyStencil_DX9@@UAEXPAPAVIMaterialVar@@PAVIShaderShadow@@PAVIShaderDynamicAPI@@W4VertexCompressionType_t@@PAPAVCBasePerMaterialContextData@@@Z 101a3830 f i BufferClearObeyStencil_dx9.obj
 0002:0008ae40       ?OnInitShaderInstance@CShader@BufferClearObeyStencil@@UAEXPAPAVIMaterialVar@@PAVIShaderInit@@PBD@Z 101a3e40 f i BufferClearObeyStencil_dx9.obj
 0002:0008ae80       ?OnInitShaderInstance@CShader@BufferClearObeyStencil_DX9@@UAEXPAPAVIMaterialVar@@PAVIShaderInit@@PBD@Z 101a3e80 f i BufferClearObeyStencil_dx9.obj
 0002:0008af50       ?OnInitShaderParams@CShader@BufferClearObeyStencil_DX9@@UAEXPAPAVIMaterialVar@@PBD@Z 101a3f50 f i BufferClearObeyStencil_dx9.obj
 0002:0008af90       ?Purge@?$CUtlMemory@PAVCShaderParam@BufferClearObeyStencil@@H@@QAEXXZ 101a3f90 f i BufferClearObeyStencil_dx9.obj
 0002:0008b040       ?Purge@?$CUtlMemory@PAVCShaderParam@BufferClearObeyStencil_DX9@@H@@QAEXXZ 101a4040 f i BufferClearObeyStencil_dx9.obj
 0002:0008b0f0       ?Purge@?$CUtlVector@PAVCShaderParam@BufferClearObeyStencil@@V?$CUtlMemory@PAVCShaderParam@BufferClearObeyStencil@@H@@@@QAEXXZ 101a40f0 f i BufferClearObeyStencil_dx9.obj
 0002:0008b160       ?Purge@?$CUtlVector@PAVCShaderParam@BufferClearObeyStencil_DX9@@V?$CUtlMemory@PAVCShaderParam@BufferClearObeyStencil_DX9@@H@@@@QAEXXZ 101a4160 f i BufferClearObeyStencil_dx9.obj
 0002:0008b1d0       ?RemoveAll@?$CUtlVector@PAVCShaderParam@BufferClearObeyStencil@@V?$CUtlMemory@PAVCShaderParam@BufferClearObeyStencil@@H@@@@QAEXXZ 101a41d0 f i BufferClearObeyStencil_dx9.obj
 0002:0008b260       ?RemoveAll@?$CUtlVector@PAVCShaderParam@BufferClearObeyStencil_DX9@@V?$CUtlMemory@PAVCShaderParam@BufferClearObeyStencil_DX9@@H@@@@QAEXXZ 101a4260 f i BufferClearObeyStencil_dx9.obj
 0002:0008b2f0       ?ResetDbgInfo@?$CUtlVector@PAVCShaderParam@BufferClearObeyStencil@@V?$CUtlMemory@PAVCShaderParam@BufferClearObeyStencil@@H@@@@IAEXXZ 101a42f0 f i BufferClearObeyStencil_dx9.obj
 0002:0008b350       ?ResetDbgInfo@?$CUtlVector@PAVCShaderParam@BufferClearObeyStencil_DX9@@V?$CUtlMemory@PAVCShaderParam@BufferClearObeyStencil_DX9@@H@@@@IAEXXZ 101a4350 f i BufferClearObeyStencil_dx9.obj
 0002:0008b3b0       ?SetUSESCOLOR@bufferclearobeystencil_vs20_Static_Index@@QAEX_N@Z 101a43b0 f i BufferClearObeyStencil_dx9.obj
 0002:0008b430       ?ShiftElementsRight@?$CUtlVector@PAVCShaderParam@BufferClearObeyStencil_DX9@@V?$CUtlMemory@PAVCShaderParam@BufferClearObeyStencil_DX9@@H@@@@IAEXHH@Z 101a4430 f i BufferClearObeyStencil_dx9.obj
 0002:0008b5d0       ?ValidateGrowSize@?$CUtlMemory@PAVCShaderParam@BufferClearObeyStencil@@H@@IAEXXZ 101a45d0 f i BufferClearObeyStencil_dx9.obj
 0002:0008b610       ?ValidateGrowSize@?$CUtlMemory@PAVCShaderParam@BufferClearObeyStencil_DX9@@H@@IAEXXZ 101a4610 f i BufferClearObeyStencil_dx9.obj
 0002:0008b650       ??$CopyConstruct@PAVCShaderParam@Cable_DX9@@@@YAPAPAVCShaderParam@Cable_DX9@@PAPAV01@ABQAV01@@Z 101a4650 f i cable_dx9.obj
 0002:0008b6f0       ??$Destruct@PAVCShaderParam@Cable@@@@YAXPAPAVCShaderParam@Cable@@@Z 101a46f0 f i cable_dx9.obj
 0002:0008b750       ??$Destruct@PAVCShaderParam@Cable_DX9@@@@YAXPAPAVCShaderParam@Cable_DX9@@@Z 101a4750 f i cable_dx9.obj
 0002:0008b7b0       ??$MemAllocClassName@V?$CUtlMemory@PAVCShaderParam@Cable@@H@@@@YAPBDPAV?$CUtlMemory@PAVCShaderParam@Cable@@H@@@Z 101a47b0 f i cable_dx9.obj
 0002:0008b830       ??$MemAllocClassName@V?$CUtlMemory@PAVCShaderParam@Cable_DX9@@H@@@@YAPBDPAV?$CUtlMemory@PAVCShaderParam@Cable_DX9@@H@@@Z 101a4830 f i cable_dx9.obj
 0002:0008b8b0       ??$MemAllocClassName@V?$CUtlVector@PAVCShaderParam@Cable_DX9@@V?$CUtlMemory@PAVCShaderParam@Cable_DX9@@H@@@@@@YAPBDPAV?$CUtlVector@PAVCShaderParam@Cable_DX9@@V?$CUtlMemory@PAVCShaderParam@Cable_DX9@@H@@@@@Z 101a48b0 f i cable_dx9.obj
 0002:0008b930       ??0?$CUtlMemory@PAVCShaderParam@Cable@@H@@QAE@HH@Z 101a4930 f i cable_dx9.obj
 0002:0008bb20       ??0?$CUtlMemory@PAVCShaderParam@Cable_DX9@@H@@QAE@HH@Z 101a4b20 f i cable_dx9.obj
 0002:0008bd10       ??0?$CUtlVector@PAVCShaderParam@Cable@@V?$CUtlMemory@PAVCShaderParam@Cable@@H@@@@QAE@HH@Z 101a4d10 f i cable_dx9.obj
 0002:0008bd90       ??0?$CUtlVector@PAVCShaderParam@Cable_DX9@@V?$CUtlMemory@PAVCShaderParam@Cable_DX9@@H@@@@QAE@HH@Z 101a4d90 f i cable_dx9.obj
 0002:0008be10       ??0CShader@Cable@@QAE@XZ   101a4e10 f i cable_dx9.obj
 0002:0008be70       ??0CShader@Cable_DX9@@QAE@XZ 101a4e70 f i cable_dx9.obj
 0002:0008bed0       ??0CShaderParam@Cable_DX9@@QAE@PBDW4ShaderParamType_t@@00H@Z 101a4ed0 f i cable_dx9.obj
 0002:0008bf90       ??0cable_ps20b_Dynamic_Index@@QAE@PAVIShaderDynamicAPI@@@Z 101a4f90 f i cable_dx9.obj
 0002:0008c050       ??0cable_ps20b_Static_Index@@QAE@PAVIShaderShadow@@PAPAVIMaterialVar@@@Z 101a5050 f i cable_dx9.obj
 0002:0008c090       ??0cable_vs20_Dynamic_Index@@QAE@PAVIShaderDynamicAPI@@@Z 101a5090 f i cable_dx9.obj
 0002:0008c130       ??0cable_vs20_Static_Index@@QAE@PAVIShaderShadow@@PAPAVIMaterialVar@@@Z 101a5130 f i cable_dx9.obj
 0002:0008c1f0       ??1?$CUtlMemory@PAVCShaderParam@Cable@@H@@QAE@XZ 101a51f0 f i cable_dx9.obj
 0002:0008c240       ??1?$CUtlMemory@PAVCShaderParam@Cable_DX9@@H@@QAE@XZ 101a5240 f i cable_dx9.obj
 0002:0008c290       ??1?$CUtlVector@PAVCShaderParam@Cable@@V?$CUtlMemory@PAVCShaderParam@Cable@@H@@@@QAE@XZ 101a5290 f i cable_dx9.obj
 0002:0008c2f0       ??1?$CUtlVector@PAVCShaderParam@Cable_DX9@@V?$CUtlMemory@PAVCShaderParam@Cable_DX9@@H@@@@QAE@XZ 101a52f0 f i cable_dx9.obj
 0002:0008c350       ??A?$CUtlMemory@PAVCShaderParam@Cable@@H@@QAEAAPAVCShaderParam@Cable@@H@Z 101a5350 f i cable_dx9.obj
 0002:0008c550       ??A?$CUtlMemory@PAVCShaderParam@Cable_DX9@@H@@QAEAAPAVCShaderParam@Cable_DX9@@H@Z 101a5550 f i cable_dx9.obj
 0002:0008c750       ??A?$CUtlVector@PAVCShaderParam@Cable@@V?$CUtlMemory@PAVCShaderParam@Cable@@H@@@@QAEAAPAVCShaderParam@Cable@@H@Z 101a5750 f i cable_dx9.obj
 0002:0008c880       ??A?$CUtlVector@PAVCShaderParam@Cable_DX9@@V?$CUtlMemory@PAVCShaderParam@Cable_DX9@@H@@@@QAEAAPAVCShaderParam@Cable_DX9@@H@Z 101a5880 f i cable_dx9.obj
 0002:0008c9b0       ??BCShaderParam@Cable_DX9@@QAEHXZ 101a59b0 f i cable_dx9.obj
 0002:0008c9f0       ?AddToTail@?$CUtlVector@PAVCShaderParam@Cable_DX9@@V?$CUtlMemory@PAVCShaderParam@Cable_DX9@@H@@@@QAEHABQAVCShaderParam@Cable_DX9@@@Z 101a59f0 f i cable_dx9.obj
 0002:0008cb60       ?Base@?$CUtlMemory@PAVCShaderParam@Cable@@H@@QAEPAPAVCShaderParam@Cable@@XZ 101a5b60 f i cable_dx9.obj
 0002:0008cc80       ?Base@?$CUtlMemory@PAVCShaderParam@Cable_DX9@@H@@QAEPAPAVCShaderParam@Cable_DX9@@XZ 101a5c80 f i cable_dx9.obj
 0002:0008cda0       ?Base@?$CUtlVector@PAVCShaderParam@Cable@@V?$CUtlMemory@PAVCShaderParam@Cable@@H@@@@QAEPAPAVCShaderParam@Cable@@XZ 101a5da0 f i cable_dx9.obj
 0002:0008cdf0       ?Base@?$CUtlVector@PAVCShaderParam@Cable_DX9@@V?$CUtlMemory@PAVCShaderParam@Cable_DX9@@H@@@@QAEPAPAVCShaderParam@Cable_DX9@@XZ 101a5df0 f i cable_dx9.obj
 0002:0008ce40       ?Count@?$CUtlVector@PAVCShaderParam@Cable@@V?$CUtlMemory@PAVCShaderParam@Cable@@H@@@@QBEHXZ 101a5e40 f i cable_dx9.obj
 0002:0008ce80       ?Count@?$CUtlVector@PAVCShaderParam@Cable_DX9@@V?$CUtlMemory@PAVCShaderParam@Cable_DX9@@H@@@@QBEHXZ 101a5e80 f i cable_dx9.obj
 0002:0008cec0       ?Element@?$CUtlVector@PAVCShaderParam@Cable@@V?$CUtlMemory@PAVCShaderParam@Cable@@H@@@@QAEAAPAVCShaderParam@Cable@@H@Z 101a5ec0 f i cable_dx9.obj
 0002:0008cff0       ?Element@?$CUtlVector@PAVCShaderParam@Cable_DX9@@V?$CUtlMemory@PAVCShaderParam@Cable_DX9@@H@@@@QAEAAPAVCShaderParam@Cable_DX9@@H@Z 101a5ff0 f i cable_dx9.obj
 0002:0008d120       ?GetFallbackShader@CShader@Cable@@UBEPBDPAPAVIMaterialVar@@@Z 101a6120 f i cable_dx9.obj
 0002:0008d160       ?GetFallbackShader@CShader@Cable_DX9@@UBEPBDPAPAVIMaterialVar@@@Z 101a6160 f i cable_dx9.obj
 0002:0008d1a0       ?GetFlags@CShader@Cable@@UBEHXZ 101a61a0 f i cable_dx9.obj
 0002:0008d1e0       ?GetFlags@CShader@Cable_DX9@@UBEHXZ 101a61e0 f i cable_dx9.obj
 0002:0008d220       ?GetIndex@cable_ps20b_Dynamic_Index@@QAEHXZ 101a6220 f i cable_dx9.obj
 0002:0008d380       ?GetIndex@cable_ps20b_Static_Index@@QAEHXZ 101a6380 f i cable_dx9.obj
 0002:0008d3c0       ?GetIndex@cable_vs20_Dynamic_Index@@QAEHXZ 101a63c0 f i cable_dx9.obj
 0002:0008d4e0       ?GetIndex@cable_vs20_Static_Index@@QAEHXZ 101a64e0 f i cable_dx9.obj
 0002:0008d640       ?GetInfo@CShaderParam@Cable@@QBEABUShaderParamInfo_t@@XZ 101a6640 f i cable_dx9.obj
 0002:0008d680       ?GetInfo@CShaderParam@Cable_DX9@@QBEABUShaderParamInfo_t@@XZ 101a6680 f i cable_dx9.obj
 0002:0008d6c0       ?GetName@CShader@Cable@@UBEPBDXZ 101a66c0 f i cable_dx9.obj
 0002:0008d700       ?GetName@CShader@Cable_DX9@@UBEPBDXZ 101a6700 f i cable_dx9.obj
 0002:0008d740       ?GetParamCount@CShader@Cable@@UBEHXZ 101a6740 f i cable_dx9.obj
 0002:0008d7a0       ?GetParamCount@CShader@Cable_DX9@@UBEHXZ 101a67a0 f i cable_dx9.obj
 0002:0008d800       ?GetParamInfo@CShader@Cable@@UBEABUShaderParamInfo_t@@H@Z 101a6800 f i cable_dx9.obj
 0002:0008d8a0       ?GetParamInfo@CShader@Cable_DX9@@UBEABUShaderParamInfo_t@@H@Z 101a68a0 f i cable_dx9.obj
 0002:0008d940       ?Grow@?$CUtlMemory@PAVCShaderParam@Cable_DX9@@H@@QAEXH@Z 101a6940 f i cable_dx9.obj
 0002:0008dfb0       ?GrowVector@?$CUtlVector@PAVCShaderParam@Cable_DX9@@V?$CUtlMemory@PAVCShaderParam@Cable_DX9@@H@@@@IAEXH@Z 101a6fb0 f i cable_dx9.obj
 0002:0008e0d0       ?InsertBefore@?$CUtlVector@PAVCShaderParam@Cable_DX9@@V?$CUtlMemory@PAVCShaderParam@Cable_DX9@@H@@@@QAEHHABQAVCShaderParam@Cable_DX9@@@Z 101a70d0 f i cable_dx9.obj
 0002:0008e350       ?IsExternallyAllocated@?$CUtlMemory@PAVCShaderParam@Cable@@H@@QBE_NXZ 101a7350 f i cable_dx9.obj
 0002:0008e3c0       ?IsExternallyAllocated@?$CUtlMemory@PAVCShaderParam@Cable_DX9@@H@@QBE_NXZ 101a73c0 f i cable_dx9.obj
 0002:0008e430       ?IsIdxValid@?$CUtlMemory@PAVCShaderParam@Cable@@H@@QBE_NH@Z 101a7430 f i cable_dx9.obj
 0002:0008e4b0       ?IsIdxValid@?$CUtlMemory@PAVCShaderParam@Cable_DX9@@H@@QBE_NH@Z 101a74b0 f i cable_dx9.obj
 0002:0008e530       ?IsReadOnly@?$CUtlMemory@PAVCShaderParam@Cable@@H@@QBE_NXZ 101a7530 f i cable_dx9.obj
 0002:0008e5a0       ?IsReadOnly@?$CUtlMemory@PAVCShaderParam@Cable_DX9@@H@@QBE_NXZ 101a75a0 f i cable_dx9.obj
 0002:0008e610       ?IsValidIndex@?$CUtlVector@PAVCShaderParam@Cable_DX9@@V?$CUtlMemory@PAVCShaderParam@Cable_DX9@@H@@@@QBE_NH@Z 101a7610 f i cable_dx9.obj
 0002:0008e680       ?NumAllocated@?$CUtlMemory@PAVCShaderParam@Cable_DX9@@H@@QBEHXZ 101a7680 f i cable_dx9.obj
 0002:0008e6c0       ?OnDrawElements@CShader@Cable@@UAEXPAPAVIMaterialVar@@PAVIShaderShadow@@PAVIShaderDynamicAPI@@W4VertexCompressionType_t@@PAPAVCBasePerMaterialContextData@@@Z 101a76c0 f i cable_dx9.obj
 0002:0008e700       ?OnDrawElements@CShader@Cable_DX9@@UAEXPAPAVIMaterialVar@@PAVIShaderShadow@@PAVIShaderDynamicAPI@@W4VertexCompressionType_t@@PAPAVCBasePerMaterialContextData@@@Z 101a7700 f i cable_dx9.obj
 0002:0008ef50       ?OnInitShaderInstance@CShader@Cable@@UAEXPAPAVIMaterialVar@@PAVIShaderInit@@PBD@Z 101a7f50 f i cable_dx9.obj
 0002:0008ef90       ?OnInitShaderInstance@CShader@Cable_DX9@@UAEXPAPAVIMaterialVar@@PAVIShaderInit@@PBD@Z 101a7f90 f i cable_dx9.obj
 0002:0008f000       ?Purge@?$CUtlMemory@PAVCShaderParam@Cable@@H@@QAEXXZ 101a8000 f i cable_dx9.obj
 0002:0008f0b0       ?Purge@?$CUtlMemory@PAVCShaderParam@Cable_DX9@@H@@QAEXXZ 101a80b0 f i cable_dx9.obj
 0002:0008f160       ?Purge@?$CUtlVector@PAVCShaderParam@Cable@@V?$CUtlMemory@PAVCShaderParam@Cable@@H@@@@QAEXXZ 101a8160 f i cable_dx9.obj
 0002:0008f1d0       ?Purge@?$CUtlVector@PAVCShaderParam@Cable_DX9@@V?$CUtlMemory@PAVCShaderParam@Cable_DX9@@H@@@@QAEXXZ 101a81d0 f i cable_dx9.obj
 0002:0008f240       ?RemoveAll@?$CUtlVector@PAVCShaderParam@Cable@@V?$CUtlMemory@PAVCShaderParam@Cable@@H@@@@QAEXXZ 101a8240 f i cable_dx9.obj
 0002:0008f2d0       ?RemoveAll@?$CUtlVector@PAVCShaderParam@Cable_DX9@@V?$CUtlMemory@PAVCShaderParam@Cable_DX9@@H@@@@QAEXXZ 101a82d0 f i cable_dx9.obj
 0002:0008f360       ?ResetDbgInfo@?$CUtlVector@PAVCShaderParam@Cable@@V?$CUtlMemory@PAVCShaderParam@Cable@@H@@@@IAEXXZ 101a8360 f i cable_dx9.obj
 0002:0008f3c0       ?ResetDbgInfo@?$CUtlVector@PAVCShaderParam@Cable_DX9@@V?$CUtlMemory@PAVCShaderParam@Cable_DX9@@H@@@@IAEXXZ 101a83c0 f i cable_dx9.obj
 0002:0008f420       ?SetWRITE_DEPTH_TO_DESTALPHA@cable_ps20b_Dynamic_Index@@QAEX_N@Z 101a8420 f i cable_dx9.obj
 0002:0008f4a0       ?ShiftElementsRight@?$CUtlVector@PAVCShaderParam@Cable_DX9@@V?$CUtlMemory@PAVCShaderParam@Cable_DX9@@H@@@@IAEXHH@Z 101a84a0 f i cable_dx9.obj
 0002:0008f640       ?ValidateGrowSize@?$CUtlMemory@PAVCShaderParam@Cable@@H@@IAEXXZ 101a8640 f i cable_dx9.obj
 0002:0008f680       ?ValidateGrowSize@?$CUtlMemory@PAVCShaderParam@Cable_DX9@@H@@IAEXXZ 101a8680 f i cable_dx9.obj
 0002:0008f6c0       ??$CopyConstruct@PAVCShaderParam@Cloak_DX90@@@@YAPAPAVCShaderParam@Cloak_DX90@@PAPAV01@ABQAV01@@Z 101a86c0 f i cloak.obj
 0002:0008f760       ??$Destruct@PAVCShaderParam@Cloak@@@@YAXPAPAVCShaderParam@Cloak@@@Z 101a8760 f i cloak.obj
 0002:0008f7c0       ??$Destruct@PAVCShaderParam@Cloak_DX90@@@@YAXPAPAVCShaderParam@Cloak_DX90@@@Z 101a87c0 f i cloak.obj
 0002:0008f820       ??$MemAllocClassName@V?$CUtlMemory@PAVCShaderParam@Cloak@@H@@@@YAPBDPAV?$CUtlMemory@PAVCShaderParam@Cloak@@H@@@Z 101a8820 f i cloak.obj
 0002:0008f8a0       ??$MemAllocClassName@V?$CUtlMemory@PAVCShaderParam@Cloak_DX90@@H@@@@YAPBDPAV?$CUtlMemory@PAVCShaderParam@Cloak_DX90@@H@@@Z 101a88a0 f i cloak.obj
 0002:0008f920       ??$MemAllocClassName@V?$CUtlVector@PAVCShaderParam@Cloak_DX90@@V?$CUtlMemory@PAVCShaderParam@Cloak_DX90@@H@@@@@@YAPBDPAV?$CUtlVector@PAVCShaderParam@Cloak_DX90@@V?$CUtlMemory@PAVCShaderParam@Cloak_DX90@@H@@@@@Z 101a8920 f i cloak.obj
 0002:0008f9a0       ??0?$CUtlMemory@PAVCShaderParam@Cloak@@H@@QAE@HH@Z 101a89a0 f i cloak.obj
 0002:0008fb90       ??0?$CUtlMemory@PAVCShaderParam@Cloak_DX90@@H@@QAE@HH@Z 101a8b90 f i cloak.obj
 0002:0008fd80       ??0?$CUtlVector@PAVCShaderParam@Cloak@@V?$CUtlMemory@PAVCShaderParam@Cloak@@H@@@@QAE@HH@Z 101a8d80 f i cloak.obj
 0002:0008fe00       ??0?$CUtlVector@PAVCShaderParam@Cloak_DX90@@V?$CUtlMemory@PAVCShaderParam@Cloak_DX90@@H@@@@QAE@HH@Z 101a8e00 f i cloak.obj
 0002:0008fe80       ??0CShader@Cloak@@QAE@XZ   101a8e80 f i cloak.obj
 0002:0008fee0       ??0CShader@Cloak_DX90@@QAE@XZ 101a8ee0 f i cloak.obj
 0002:0008ff40       ??0CShaderParam@Cloak_DX90@@QAE@PBDW4ShaderParamType_t@@00H@Z 101a8f40 f i cloak.obj
 0002:00090000       ??0CShaderParam@Cloak_DX90@@QAE@W4ShaderMaterialVars_t@@W4ShaderParamType_t@@PBD2H@Z 101a9000 f i cloak.obj
 0002:00090170       ??0Cloak_DX9_Vars_t@@QAE@XZ 101a9170 f i cloak.obj
 0002:000901d0       ??1?$CUtlMemory@PAVCShaderParam@Cloak@@H@@QAE@XZ 101a91d0 f i cloak.obj
 0002:00090220       ??1?$CUtlMemory@PAVCShaderParam@Cloak_DX90@@H@@QAE@XZ 101a9220 f i cloak.obj
 0002:00090270       ??1?$CUtlVector@PAVCShaderParam@Cloak@@V?$CUtlMemory@PAVCShaderParam@Cloak@@H@@@@QAE@XZ 101a9270 f i cloak.obj
 0002:000902d0       ??1?$CUtlVector@PAVCShaderParam@Cloak_DX90@@V?$CUtlMemory@PAVCShaderParam@Cloak_DX90@@H@@@@QAE@XZ 101a92d0 f i cloak.obj
 0002:00090330       ??A?$CUtlMemory@PAVCShaderParam@Cloak@@H@@QAEAAPAVCShaderParam@Cloak@@H@Z 101a9330 f i cloak.obj
 0002:00090530       ??A?$CUtlMemory@PAVCShaderParam@Cloak_DX90@@H@@QAEAAPAVCShaderParam@Cloak_DX90@@H@Z 101a9530 f i cloak.obj
 0002:00090730       ??A?$CUtlVector@PAVCShaderParam@Cloak@@V?$CUtlMemory@PAVCShaderParam@Cloak@@H@@@@QAEAAPAVCShaderParam@Cloak@@H@Z 101a9730 f i cloak.obj
 0002:00090860       ??A?$CUtlVector@PAVCShaderParam@Cloak_DX90@@V?$CUtlMemory@PAVCShaderParam@Cloak_DX90@@H@@@@QAEAAPAVCShaderParam@Cloak_DX90@@H@Z 101a9860 f i cloak.obj
 0002:00090990       ??BCShaderParam@Cloak_DX90@@QAEHXZ 101a9990 f i cloak.obj
 0002:000909d0       ?AddToTail@?$CUtlVector@PAVCShaderParam@Cloak_DX90@@V?$CUtlMemory@PAVCShaderParam@Cloak_DX90@@H@@@@QAEHABQAVCShaderParam@Cloak_DX90@@@Z 101a99d0 f i cloak.obj
 0002:00090b40       ?Base@?$CUtlMemory@PAVCShaderParam@Cloak@@H@@QAEPAPAVCShaderParam@Cloak@@XZ 101a9b40 f i cloak.obj
 0002:00090c60       ?Base@?$CUtlMemory@PAVCShaderParam@Cloak_DX90@@H@@QAEPAPAVCShaderParam@Cloak_DX90@@XZ 101a9c60 f i cloak.obj
 0002:00090d80       ?Base@?$CUtlVector@PAVCShaderParam@Cloak@@V?$CUtlMemory@PAVCShaderParam@Cloak@@H@@@@QAEPAPAVCShaderParam@Cloak@@XZ 101a9d80 f i cloak.obj
 0002:00090dd0       ?Base@?$CUtlVector@PAVCShaderParam@Cloak_DX90@@V?$CUtlMemory@PAVCShaderParam@Cloak_DX90@@H@@@@QAEPAPAVCShaderParam@Cloak_DX90@@XZ 101a9dd0 f i cloak.obj
 0002:00090e20       ?Count@?$CUtlVector@PAVCShaderParam@Cloak@@V?$CUtlMemory@PAVCShaderParam@Cloak@@H@@@@QBEHXZ 101a9e20 f i cloak.obj
 0002:00090e60       ?Count@?$CUtlVector@PAVCShaderParam@Cloak_DX90@@V?$CUtlMemory@PAVCShaderParam@Cloak_DX90@@H@@@@QBEHXZ 101a9e60 f i cloak.obj
 0002:00090ea0       ?Element@?$CUtlVector@PAVCShaderParam@Cloak@@V?$CUtlMemory@PAVCShaderParam@Cloak@@H@@@@QAEAAPAVCShaderParam@Cloak@@H@Z 101a9ea0 f i cloak.obj
 0002:00090fd0       ?Element@?$CUtlVector@PAVCShaderParam@Cloak_DX90@@V?$CUtlMemory@PAVCShaderParam@Cloak_DX90@@H@@@@QAEAAPAVCShaderParam@Cloak_DX90@@H@Z 101a9fd0 f i cloak.obj
 0002:00091100       ?GetFallbackShader@CShader@Cloak@@UBEPBDPAPAVIMaterialVar@@@Z 101aa100 f i cloak.obj
 0002:00091140       ?GetFallbackShader@CShader@Cloak_DX90@@UBEPBDPAPAVIMaterialVar@@@Z 101aa140 f i cloak.obj
 0002:00091180       ?GetFlags@CShader@Cloak@@UBEHXZ 101aa180 f i cloak.obj
 0002:000911c0       ?GetFlags@CShader@Cloak_DX90@@UBEHXZ 101aa1c0 f i cloak.obj
 0002:00091200       ?GetInfo@CShaderParam@Cloak@@QBEABUShaderParamInfo_t@@XZ 101aa200 f i cloak.obj
 0002:00091240       ?GetInfo@CShaderParam@Cloak_DX90@@QBEABUShaderParamInfo_t@@XZ 101aa240 f i cloak.obj
 0002:00091280       ?GetName@CShader@Cloak@@UBEPBDXZ 101aa280 f i cloak.obj
 0002:000912c0       ?GetName@CShader@Cloak_DX90@@UBEPBDXZ 101aa2c0 f i cloak.obj
 0002:00091300       ?GetParamCount@CShader@Cloak@@UBEHXZ 101aa300 f i cloak.obj
 0002:00091360       ?GetParamCount@CShader@Cloak_DX90@@UBEHXZ 101aa360 f i cloak.obj
 0002:000913c0       ?GetParamInfo@CShader@Cloak@@UBEABUShaderParamInfo_t@@H@Z 101aa3c0 f i cloak.obj
 0002:00091460       ?GetParamInfo@CShader@Cloak_DX90@@UBEABUShaderParamInfo_t@@H@Z 101aa460 f i cloak.obj
 0002:00091500       ?Grow@?$CUtlMemory@PAVCShaderParam@Cloak_DX90@@H@@QAEXH@Z 101aa500 f i cloak.obj
 0002:00091b70       ?GrowVector@?$CUtlVector@PAVCShaderParam@Cloak_DX90@@V?$CUtlMemory@PAVCShaderParam@Cloak_DX90@@H@@@@IAEXH@Z 101aab70 f i cloak.obj
 0002:00091c90       ?InsertBefore@?$CUtlVector@PAVCShaderParam@Cloak_DX90@@V?$CUtlMemory@PAVCShaderParam@Cloak_DX90@@H@@@@QAEHHABQAVCShaderParam@Cloak_DX90@@@Z 101aac90 f i cloak.obj
 0002:00091f10       ?IsExternallyAllocated@?$CUtlMemory@PAVCShaderParam@Cloak@@H@@QBE_NXZ 101aaf10 f i cloak.obj
 0002:00091f80       ?IsExternallyAllocated@?$CUtlMemory@PAVCShaderParam@Cloak_DX90@@H@@QBE_NXZ 101aaf80 f i cloak.obj
 0002:00091ff0       ?IsIdxValid@?$CUtlMemory@PAVCShaderParam@Cloak@@H@@QBE_NH@Z 101aaff0 f i cloak.obj
 0002:00092070       ?IsIdxValid@?$CUtlMemory@PAVCShaderParam@Cloak_DX90@@H@@QBE_NH@Z 101ab070 f i cloak.obj
 0002:000920f0       ?IsReadOnly@?$CUtlMemory@PAVCShaderParam@Cloak@@H@@QBE_NXZ 101ab0f0 f i cloak.obj
 0002:00092160       ?IsReadOnly@?$CUtlMemory@PAVCShaderParam@Cloak_DX90@@H@@QBE_NXZ 101ab160 f i cloak.obj
 0002:000921d0       ?IsTranslucent@CShader@Cloak_DX90@@UBE_NPAPAVIMaterialVar@@@Z 101ab1d0 f i cloak.obj
 0002:00092290       ?IsValidIndex@?$CUtlVector@PAVCShaderParam@Cloak_DX90@@V?$CUtlMemory@PAVCShaderParam@Cloak_DX90@@H@@@@QBE_NH@Z 101ab290 f i cloak.obj
 0002:00092300       ?NeedsPowerOfTwoFrameBufferTexture@CShader@Cloak_DX90@@UBE_NPAPAVIMaterialVar@@_N@Z 101ab300 f i cloak.obj
 0002:000923d0       ?NumAllocated@?$CUtlMemory@PAVCShaderParam@Cloak_DX90@@H@@QBEHXZ 101ab3d0 f i cloak.obj
 0002:00092410       ?OnDrawElements@CShader@Cloak@@UAEXPAPAVIMaterialVar@@PAVIShaderShadow@@PAVIShaderDynamicAPI@@W4VertexCompressionType_t@@PAPAVCBasePerMaterialContextData@@@Z 101ab410 f i cloak.obj
 0002:00092450       ?OnDrawElements@CShader@Cloak_DX90@@UAEXPAPAVIMaterialVar@@PAVIShaderShadow@@PAVIShaderDynamicAPI@@W4VertexCompressionType_t@@PAPAVCBasePerMaterialContextData@@@Z 101ab450 f i cloak.obj
 0002:00092510       ?OnInitShaderInstance@CShader@Cloak@@UAEXPAPAVIMaterialVar@@PAVIShaderInit@@PBD@Z 101ab510 f i cloak.obj
 0002:00092550       ?OnInitShaderInstance@CShader@Cloak_DX90@@UAEXPAPAVIMaterialVar@@PAVIShaderInit@@PBD@Z 101ab550 f i cloak.obj
 0002:00092600       ?OnInitShaderParams@CShader@Cloak_DX90@@UAEXPAPAVIMaterialVar@@PBD@Z 101ab600 f i cloak.obj
 0002:000926c0       ?Purge@?$CUtlMemory@PAVCShaderParam@Cloak@@H@@QAEXXZ 101ab6c0 f i cloak.obj
 0002:00092770       ?Purge@?$CUtlMemory@PAVCShaderParam@Cloak_DX90@@H@@QAEXXZ 101ab770 f i cloak.obj
 0002:00092820       ?Purge@?$CUtlVector@PAVCShaderParam@Cloak@@V?$CUtlMemory@PAVCShaderParam@Cloak@@H@@@@QAEXXZ 101ab820 f i cloak.obj
 0002:00092890       ?Purge@?$CUtlVector@PAVCShaderParam@Cloak_DX90@@V?$CUtlMemory@PAVCShaderParam@Cloak_DX90@@H@@@@QAEXXZ 101ab890 f i cloak.obj
 0002:00092900       ?RemoveAll@?$CUtlVector@PAVCShaderParam@Cloak@@V?$CUtlMemory@PAVCShaderParam@Cloak@@H@@@@QAEXXZ 101ab900 f i cloak.obj
 0002:00092990       ?RemoveAll@?$CUtlVector@PAVCShaderParam@Cloak_DX90@@V?$CUtlMemory@PAVCShaderParam@Cloak_DX90@@H@@@@QAEXXZ 101ab990 f i cloak.obj
 0002:00092a20       ?ResetDbgInfo@?$CUtlVector@PAVCShaderParam@Cloak@@V?$CUtlMemory@PAVCShaderParam@Cloak@@H@@@@IAEXXZ 101aba20 f i cloak.obj
 0002:00092a80       ?ResetDbgInfo@?$CUtlVector@PAVCShaderParam@Cloak_DX90@@V?$CUtlMemory@PAVCShaderParam@Cloak_DX90@@H@@@@IAEXXZ 101aba80 f i cloak.obj
 0002:00092ae0       ?SetupVars@CShader@Cloak_DX90@@QAEXAAUCloak_DX9_Vars_t@@@Z 101abae0 f i cloak.obj
 0002:00092ce0       ?ShiftElementsRight@?$CUtlVector@PAVCShaderParam@Cloak_DX90@@V?$CUtlMemory@PAVCShaderParam@Cloak_DX90@@H@@@@IAEXHH@Z 101abce0 f i cloak.obj
 0002:00092e80       ?ValidateGrowSize@?$CUtlMemory@PAVCShaderParam@Cloak@@H@@IAEXXZ 101abe80 f i cloak.obj
 0002:00092ec0       ?ValidateGrowSize@?$CUtlMemory@PAVCShaderParam@Cloak_DX90@@H@@IAEXXZ 101abec0 f i cloak.obj
 0002:00092f00       ??$Lerp@M@@YAMMABM0@Z      101abf00 f i cloak_blended_pass_helper.obj
 0002:00092f60       ??0cloak_blended_pass_ps20b_Dynamic_Index@@QAE@PAVIShaderDynamicAPI@@@Z 101abf60 f i cloak_blended_pass_helper.obj
 0002:00092fa0       ??0cloak_blended_pass_ps20b_Static_Index@@QAE@PAVIShaderShadow@@PAPAVIMaterialVar@@@Z 101abfa0 f i cloak_blended_pass_helper.obj
 0002:00092ff0       ??0cloak_blended_pass_ps30_Dynamic_Index@@QAE@PAVIShaderDynamicAPI@@@Z 101abff0 f i cloak_blended_pass_helper.obj
 0002:00093030       ??0cloak_blended_pass_ps30_Static_Index@@QAE@PAVIShaderShadow@@PAPAVIMaterialVar@@@Z 101ac030 f i cloak_blended_pass_helper.obj
 0002:00093080       ??0cloak_blended_pass_vs20_Dynamic_Index@@QAE@PAVIShaderDynamicAPI@@@Z 101ac080 f i cloak_blended_pass_helper.obj
 0002:000930f0       ??0cloak_blended_pass_vs20_Static_Index@@QAE@PAVIShaderShadow@@PAPAVIMaterialVar@@@Z 101ac0f0 f i cloak_blended_pass_helper.obj
 0002:00093140       ??0cloak_blended_pass_vs30_Dynamic_Index@@QAE@PAVIShaderDynamicAPI@@@Z 101ac140 f i cloak_blended_pass_helper.obj
 0002:000931f0       ??0cloak_blended_pass_vs30_Static_Index@@QAE@PAVIShaderShadow@@PAPAVIMaterialVar@@@Z 101ac1f0 f i cloak_blended_pass_helper.obj
 0002:00093240       ?CloakBlendedPassIsFullyOpaque@@YA_NPAPAVIMaterialVar@@AAUCloakBlendedPassVars_t@@@Z 101ac240 f   cloak_blended_pass_helper.obj
 0002:00093640       ?DrawCloakBlendedPass@@YAXPAVCBaseVSShader@@PAPAVIMaterialVar@@PAVIShaderDynamicAPI@@PAVIShaderShadow@@AAUCloakBlendedPassVars_t@@W4VertexCompressionType_t@@@Z 101ac640 f   cloak_blended_pass_helper.obj
 0002:000949e0       ?GetIndex@cloak_blended_pass_ps20b_Dynamic_Index@@QAEHXZ 101ad9e0 f i cloak_blended_pass_helper.obj
 0002:00094a20       ?GetIndex@cloak_blended_pass_ps20b_Static_Index@@QAEHXZ 101ada20 f i cloak_blended_pass_helper.obj
 0002:00094b40       ?GetIndex@cloak_blended_pass_ps30_Dynamic_Index@@QAEHXZ 101adb40 f i cloak_blended_pass_helper.obj
 0002:00094b80       ?GetIndex@cloak_blended_pass_ps30_Static_Index@@QAEHXZ 101adb80 f i cloak_blended_pass_helper.obj
 0002:00094ca0       ?GetIndex@cloak_blended_pass_vs20_Dynamic_Index@@QAEHXZ 101adca0 f i cloak_blended_pass_helper.obj
 0002:00094e00       ?GetIndex@cloak_blended_pass_vs20_Static_Index@@QAEHXZ 101ade00 f i cloak_blended_pass_helper.obj
 0002:00094f20       ?GetIndex@cloak_blended_pass_vs30_Dynamic_Index@@QAEHXZ 101adf20 f i cloak_blended_pass_helper.obj
 0002:000950a0       ?GetIndex@cloak_blended_pass_vs30_Static_Index@@QAEHXZ 101ae0a0 f i cloak_blended_pass_helper.obj
 0002:000951c0       ?InitCloakBlendedPass@@YAXPAVCBaseVSShader@@PAPAVIMaterialVar@@AAUCloakBlendedPassVars_t@@@Z 101ae1c0 f   cloak_blended_pass_helper.obj
 0002:00095270       ?InitParamsCloakBlendedPass@@YAXPAVCBaseVSShader@@PAPAVIMaterialVar@@PBDAAUCloakBlendedPassVars_t@@@Z 101ae270 f   cloak_blended_pass_helper.obj
 0002:00095560       ?SetBUMPMAP@cloak_blended_pass_ps20b_Static_Index@@QAEXH@Z 101ae560 f i cloak_blended_pass_helper.obj
 0002:00095680       ?SetBUMPMAP@cloak_blended_pass_ps30_Static_Index@@QAEXH@Z 101ae680 f i cloak_blended_pass_helper.obj
 0002:000957a0       ?SetBUMPMAP@cloak_blended_pass_vs20_Static_Index@@QAEXH@Z 101ae7a0 f i cloak_blended_pass_helper.obj
 0002:000958c0       ?SetBUMPMAP@cloak_blended_pass_vs30_Static_Index@@QAEXH@Z 101ae8c0 f i cloak_blended_pass_helper.obj
 0002:000959e0       ?SetCOMPRESSED_VERTS@cloak_blended_pass_vs20_Dynamic_Index@@QAEXH@Z 101ae9e0 f i cloak_blended_pass_helper.obj
 0002:00095b00       ?SetCOMPRESSED_VERTS@cloak_blended_pass_vs30_Dynamic_Index@@QAEXH@Z 101aeb00 f i cloak_blended_pass_helper.obj
 0002:00095c20       ?SetSKINNING@cloak_blended_pass_vs20_Dynamic_Index@@QAEX_N@Z 101aec20 f i cloak_blended_pass_helper.obj
 0002:00095ca0       ?SetSKINNING@cloak_blended_pass_vs30_Dynamic_Index@@QAEX_N@Z 101aeca0 f i cloak_blended_pass_helper.obj
 0002:00095d20       ?UseBumpmapping@MaterialSystem_Config_t@@QBE_NXZ 101aed20 f i cloak_blended_pass_helper.obj
 0002:00095d90       ??0cloak_ps20b_Dynamic_Index@@QAE@PAVIShaderDynamicAPI@@@Z 101aed90 f i cloak_dx9_helper.obj
 0002:00095e60       ??0cloak_ps20b_Static_Index@@QAE@PAVIShaderShadow@@PAPAVIMaterialVar@@@Z 101aee60 f i cloak_dx9_helper.obj
 0002:00095eb0       ??0cloak_ps30_Dynamic_Index@@QAE@PAVIShaderDynamicAPI@@@Z 101aeeb0 f i cloak_dx9_helper.obj
 0002:00095f80       ??0cloak_ps30_Static_Index@@QAE@PAVIShaderShadow@@PAPAVIMaterialVar@@@Z 101aef80 f i cloak_dx9_helper.obj
 0002:00095fd0       ??0cloak_vs20_Dynamic_Index@@QAE@PAVIShaderDynamicAPI@@@Z 101aefd0 f i cloak_dx9_helper.obj
 0002:000960a0       ??0cloak_vs20_Static_Index@@QAE@PAVIShaderShadow@@PAPAVIMaterialVar@@@Z 101af0a0 f i cloak_dx9_helper.obj
 0002:00096170       ??0cloak_vs30_Dynamic_Index@@QAE@PAVIShaderDynamicAPI@@@Z 101af170 f i cloak_dx9_helper.obj
 0002:00096270       ??0cloak_vs30_Static_Index@@QAE@PAVIShaderShadow@@PAPAVIMaterialVar@@@Z 101af270 f i cloak_dx9_helper.obj
 0002:00096310       ?DrawCloak_DX9@@YAXPAVCBaseVSShader@@PAPAVIMaterialVar@@PAVIShaderDynamicAPI@@PAVIShaderShadow@@AAUCloak_DX9_Vars_t@@W4VertexCompressionType_t@@@Z 101af310 f   cloak_dx9_helper.obj
 0002:000980c0       ?GetBool@ConVar@@QBE_NXZ   101b10c0 f i cloak_dx9_helper.obj
 0002:00098140       ?GetIndex@cloak_ps20b_Dynamic_Index@@QAEHXZ 101b1140 f i cloak_dx9_helper.obj
 0002:000982c0       ?GetIndex@cloak_ps20b_Static_Index@@QAEHXZ 101b12c0 f i cloak_dx9_helper.obj
 0002:000983e0       ?GetIndex@cloak_ps30_Dynamic_Index@@QAEHXZ 101b13e0 f i cloak_dx9_helper.obj
 0002:00098560       ?GetIndex@cloak_ps30_Static_Index@@QAEHXZ 101b1560 f i cloak_dx9_helper.obj
 0002:00098680       ?GetIndex@cloak_vs20_Dynamic_Index@@QAEHXZ 101b1680 f i cloak_dx9_helper.obj
 0002:00098800       ?GetIndex@cloak_vs20_Static_Index@@QAEHXZ 101b1800 f i cloak_dx9_helper.obj
 0002:00098980       ?GetIndex@cloak_vs30_Dynamic_Index@@QAEHXZ 101b1980 f i cloak_dx9_helper.obj
 0002:00098b20       ?GetIndex@cloak_vs30_Static_Index@@QAEHXZ 101b1b20 f i cloak_dx9_helper.obj
 0002:00098ca0       ?InitCloak_DX9@@YAXPAVCBaseVSShader@@PAPAVIMaterialVar@@AAUCloak_DX9_Vars_t@@@Z 101b1ca0 f   cloak_dx9_helper.obj
 0002:00098de0       ?InitParamsCloak_DX9@@YAXPAVCBaseVSShader@@PAPAVIMaterialVar@@PBDAAUCloak_DX9_Vars_t@@@Z 101b1de0 f   cloak_dx9_helper.obj
 0002:00098f60       ?SetCOMPRESSED_VERTS@cloak_vs20_Dynamic_Index@@QAEXH@Z 101b1f60 f i cloak_dx9_helper.obj
 0002:00099080       ?SetCOMPRESSED_VERTS@cloak_vs30_Dynamic_Index@@QAEXH@Z 101b2080 f i cloak_dx9_helper.obj
 0002:000991a0       ?SetLIGHTWARPTEXTURE@cloak_ps20b_Static_Index@@QAEX_N@Z 101b21a0 f i cloak_dx9_helper.obj
 0002:00099220       ?SetLIGHTWARPTEXTURE@cloak_ps30_Static_Index@@QAEX_N@Z 101b2220 f i cloak_dx9_helper.obj
 0002:000992a0       ?SetMODEL@cloak_vs20_Static_Index@@QAEX_N@Z 101b22a0 f i cloak_dx9_helper.obj
 0002:00099320       ?SetMODEL@cloak_vs30_Static_Index@@QAEX_N@Z 101b2320 f i cloak_dx9_helper.obj
 0002:000993a0       ?SetNUM_LIGHTS@cloak_ps20b_Dynamic_Index@@QAEXH@Z 101b23a0 f i cloak_dx9_helper.obj
 0002:000994c0       ?SetNUM_LIGHTS@cloak_ps30_Dynamic_Index@@QAEXH@Z 101b24c0 f i cloak_dx9_helper.obj
 0002:000995e0       ?SetSKINNING@cloak_vs20_Dynamic_Index@@QAEX_N@Z 101b25e0 f i cloak_dx9_helper.obj
 0002:00099660       ?SetSKINNING@cloak_vs30_Dynamic_Index@@QAEX_N@Z 101b2660 f i cloak_dx9_helper.obj
 0002:000996e0       ?SetWRITEWATERFOGTODESTALPHA@cloak_ps20b_Dynamic_Index@@QAEX_N@Z 101b26e0 f i cloak_dx9_helper.obj
 0002:00099760       ?SetWRITEWATERFOGTODESTALPHA@cloak_ps30_Dynamic_Index@@QAEX_N@Z 101b2760 f i cloak_dx9_helper.obj
 0002:000997e0       ??$CopyConstruct@PAVCShaderParam@ColorCorrection@@@@YAPAPAVCShaderParam@ColorCorrection@@PAPAV01@ABQAV01@@Z 101b27e0 f i colorcorrection.obj
 0002:00099880       ??$Destruct@PAVCShaderParam@ColorCorrection@@@@YAXPAPAVCShaderParam@ColorCorrection@@@Z 101b2880 f i colorcorrection.obj
 0002:000998e0       ??$MemAllocClassName@V?$CUtlMemory@PAVCShaderParam@ColorCorrection@@H@@@@YAPBDPAV?$CUtlMemory@PAVCShaderParam@ColorCorrection@@H@@@Z 101b28e0 f i colorcorrection.obj
 0002:00099960       ??$MemAllocClassName@V?$CUtlVector@PAVCShaderParam@ColorCorrection@@V?$CUtlMemory@PAVCShaderParam@ColorCorrection@@H@@@@@@YAPBDPAV?$CUtlVector@PAVCShaderParam@ColorCorrection@@V?$CUtlMemory@PAVCShaderParam@ColorCorrection@@H@@@@@Z 101b2960 f i colorcorrection.obj
 0002:000999e0       ??0?$CUtlMemory@PAVCShaderParam@ColorCorrection@@H@@QAE@HH@Z 101b29e0 f i colorcorrection.obj
 0002:00099bd0       ??0?$CUtlVector@PAVCShaderParam@ColorCorrection@@V?$CUtlMemory@PAVCShaderParam@ColorCorrection@@H@@@@QAE@HH@Z 101b2bd0 f i colorcorrection.obj
 0002:00099c50       ??0CShader@ColorCorrection@@QAE@XZ 101b2c50 f i colorcorrection.obj
 0002:00099cb0       ??0CShaderParam@ColorCorrection@@QAE@PBDW4ShaderParamType_t@@00H@Z 101b2cb0 f i colorcorrection.obj
 0002:00099d70       ??0colorcorrection_ps20b_Dynamic_Index@@QAE@PAVIShaderDynamicAPI@@@Z 101b2d70 f i colorcorrection.obj
 0002:00099dc0       ??0colorcorrection_ps20b_Static_Index@@QAE@PAVIShaderShadow@@PAPAVIMaterialVar@@@Z 101b2dc0 f i colorcorrection.obj
 0002:00099e00       ??1?$CUtlMemory@PAVCShaderParam@ColorCorrection@@H@@QAE@XZ 101b2e00 f i colorcorrection.obj
 0002:00099e50       ??1?$CUtlVector@PAVCShaderParam@ColorCorrection@@V?$CUtlMemory@PAVCShaderParam@ColorCorrection@@H@@@@QAE@XZ 101b2e50 f i colorcorrection.obj
 0002:00099eb0       ??A?$CUtlMemory@PAVCShaderParam@ColorCorrection@@H@@QAEAAPAVCShaderParam@ColorCorrection@@H@Z 101b2eb0 f i colorcorrection.obj
 0002:0009a0b0       ??A?$CUtlVector@PAVCShaderParam@ColorCorrection@@V?$CUtlMemory@PAVCShaderParam@ColorCorrection@@H@@@@QAEAAPAVCShaderParam@ColorCorrection@@H@Z 101b30b0 f i colorcorrection.obj
 0002:0009a1e0       ??BCShaderParam@ColorCorrection@@QAEHXZ 101b31e0 f i colorcorrection.obj
 0002:0009a220       ?AddToTail@?$CUtlVector@PAVCShaderParam@ColorCorrection@@V?$CUtlMemory@PAVCShaderParam@ColorCorrection@@H@@@@QAEHABQAVCShaderParam@ColorCorrection@@@Z 101b3220 f i colorcorrection.obj
 0002:0009a390       ?Base@?$CUtlMemory@PAVCShaderParam@ColorCorrection@@H@@QAEPAPAVCShaderParam@ColorCorrection@@XZ 101b3390 f i colorcorrection.obj
 0002:0009a4b0       ?Base@?$CUtlVector@PAVCShaderParam@ColorCorrection@@V?$CUtlMemory@PAVCShaderParam@ColorCorrection@@H@@@@QAEPAPAVCShaderParam@ColorCorrection@@XZ 101b34b0 f i colorcorrection.obj
 0002:0009a500       ?Count@?$CUtlVector@PAVCShaderParam@ColorCorrection@@V?$CUtlMemory@PAVCShaderParam@ColorCorrection@@H@@@@QBEHXZ 101b3500 f i colorcorrection.obj
 0002:0009a540       ?Element@?$CUtlVector@PAVCShaderParam@ColorCorrection@@V?$CUtlMemory@PAVCShaderParam@ColorCorrection@@H@@@@QAEAAPAVCShaderParam@ColorCorrection@@H@Z 101b3540 f i colorcorrection.obj
 0002:0009a670       ?GetFallbackShader@CShader@ColorCorrection@@UBEPBDPAPAVIMaterialVar@@@Z 101b3670 f i colorcorrection.obj
 0002:0009a6b0       ?GetFlags@CShader@ColorCorrection@@UBEHXZ 101b36b0 f i colorcorrection.obj
 0002:0009a6f0       ?GetIndex@colorcorrection_ps20b_Dynamic_Index@@QAEHXZ 101b36f0 f i colorcorrection.obj
 0002:0009a810       ?GetIndex@colorcorrection_ps20b_Static_Index@@QAEHXZ 101b3810 f i colorcorrection.obj
 0002:0009a850       ?GetInfo@CShaderParam@ColorCorrection@@QBEABUShaderParamInfo_t@@XZ 101b3850 f i colorcorrection.obj
 0002:0009a890       ?GetName@CShader@ColorCorrection@@UBEPBDXZ 101b3890 f i colorcorrection.obj
 0002:0009a8d0       ?GetParamCount@CShader@ColorCorrection@@UBEHXZ 101b38d0 f i colorcorrection.obj
 0002:0009a930       ?GetParamInfo@CShader@ColorCorrection@@UBEABUShaderParamInfo_t@@H@Z 101b3930 f i colorcorrection.obj
 0002:0009a9d0       ?Grow@?$CUtlMemory@PAVCShaderParam@ColorCorrection@@H@@QAEXH@Z 101b39d0 f i colorcorrection.obj
 0002:0009b040       ?GrowVector@?$CUtlVector@PAVCShaderParam@ColorCorrection@@V?$CUtlMemory@PAVCShaderParam@ColorCorrection@@H@@@@IAEXH@Z 101b4040 f i colorcorrection.obj
 0002:0009b160       ?InsertBefore@?$CUtlVector@PAVCShaderParam@ColorCorrection@@V?$CUtlMemory@PAVCShaderParam@ColorCorrection@@H@@@@QAEHHABQAVCShaderParam@ColorCorrection@@@Z 101b4160 f i colorcorrection.obj
 0002:0009b3e0       ?IsExternallyAllocated@?$CUtlMemory@PAVCShaderParam@ColorCorrection@@H@@QBE_NXZ 101b43e0 f i colorcorrection.obj
 0002:0009b450       ?IsIdxValid@?$CUtlMemory@PAVCShaderParam@ColorCorrection@@H@@QBE_NH@Z 101b4450 f i colorcorrection.obj
 0002:0009b4d0       ?IsReadOnly@?$CUtlMemory@PAVCShaderParam@ColorCorrection@@H@@QBE_NXZ 101b44d0 f i colorcorrection.obj
 0002:0009b540       ?IsValidIndex@?$CUtlVector@PAVCShaderParam@ColorCorrection@@V?$CUtlMemory@PAVCShaderParam@ColorCorrection@@H@@@@QBE_NH@Z 101b4540 f i colorcorrection.obj
 0002:0009b5b0       ?NumAllocated@?$CUtlMemory@PAVCShaderParam@ColorCorrection@@H@@QBEHXZ 101b45b0 f i colorcorrection.obj
 0002:0009b5f0       ?OnDrawElements@CShader@ColorCorrection@@UAEXPAPAVIMaterialVar@@PAVIShaderShadow@@PAVIShaderDynamicAPI@@W4VertexCompressionType_t@@PAPAVCBasePerMaterialContextData@@@Z 101b45f0 f i colorcorrection.obj
 0002:0009bdb0       ?OnInitShaderInstance@CShader@ColorCorrection@@UAEXPAPAVIMaterialVar@@PAVIShaderInit@@PBD@Z 101b4db0 f i colorcorrection.obj
 0002:0009bdf0       ?OnInitShaderParams@CShader@ColorCorrection@@UAEXPAPAVIMaterialVar@@PBD@Z 101b4df0 f i colorcorrection.obj
 0002:0009c1d0       ?Purge@?$CUtlMemory@PAVCShaderParam@ColorCorrection@@H@@QAEXXZ 101b51d0 f i colorcorrection.obj
 0002:0009c280       ?Purge@?$CUtlVector@PAVCShaderParam@ColorCorrection@@V?$CUtlMemory@PAVCShaderParam@ColorCorrection@@H@@@@QAEXXZ 101b5280 f i colorcorrection.obj
 0002:0009c2f0       ?RemoveAll@?$CUtlVector@PAVCShaderParam@ColorCorrection@@V?$CUtlMemory@PAVCShaderParam@ColorCorrection@@H@@@@QAEXXZ 101b52f0 f i colorcorrection.obj
 0002:0009c380       ?ResetDbgInfo@?$CUtlVector@PAVCShaderParam@ColorCorrection@@V?$CUtlMemory@PAVCShaderParam@ColorCorrection@@H@@@@IAEXXZ 101b5380 f i colorcorrection.obj
 0002:0009c3e0       ?SetNUM_LOOKUPS@colorcorrection_ps20b_Dynamic_Index@@QAEXH@Z 101b53e0 f i colorcorrection.obj
 0002:0009c500       ?ShiftElementsRight@?$CUtlVector@PAVCShaderParam@ColorCorrection@@V?$CUtlMemory@PAVCShaderParam@ColorCorrection@@H@@@@IAEXHH@Z 101b5500 f i colorcorrection.obj
 0002:0009c6a0       ?ValidateGrowSize@?$CUtlMemory@PAVCShaderParam@ColorCorrection@@H@@IAEXXZ 101b56a0 f i colorcorrection.obj
 0002:0009c6e0       ??$Destruct@PAVCShaderParam@DebugMorphAccumulator@@@@YAXPAPAVCShaderParam@DebugMorphAccumulator@@@Z 101b56e0 f i debugmorphaccumulator_dx9.obj
 0002:0009c740       ??$MemAllocClassName@V?$CUtlMemory@PAVCShaderParam@DebugMorphAccumulator@@H@@@@YAPBDPAV?$CUtlMemory@PAVCShaderParam@DebugMorphAccumulator@@H@@@Z 101b5740 f i debugmorphaccumulator_dx9.obj
 0002:0009c7c0       ??0?$CUtlMemory@PAVCShaderParam@DebugMorphAccumulator@@H@@QAE@HH@Z 101b57c0 f i debugmorphaccumulator_dx9.obj
 0002:0009c9b0       ??0?$CUtlVector@PAVCShaderParam@DebugMorphAccumulator@@V?$CUtlMemory@PAVCShaderParam@DebugMorphAccumulator@@H@@@@QAE@HH@Z 101b59b0 f i debugmorphaccumulator_dx9.obj
 0002:0009ca30       ??0CShader@DebugMorphAccumulator@@QAE@XZ 101b5a30 f i debugmorphaccumulator_dx9.obj
 0002:0009ca90       ??0debugmorphaccumulator_ps30_Dynamic_Index@@QAE@PAVIShaderDynamicAPI@@@Z 101b5a90 f i debugmorphaccumulator_dx9.obj
 0002:0009cad0       ??0debugmorphaccumulator_ps30_Static_Index@@QAE@PAVIShaderShadow@@PAPAVIMaterialVar@@@Z 101b5ad0 f i debugmorphaccumulator_dx9.obj
 0002:0009cb10       ??0debugmorphaccumulator_vs30_Dynamic_Index@@QAE@PAVIShaderDynamicAPI@@@Z 101b5b10 f i debugmorphaccumulator_dx9.obj
 0002:0009cb50       ??0debugmorphaccumulator_vs30_Static_Index@@QAE@PAVIShaderShadow@@PAPAVIMaterialVar@@@Z 101b5b50 f i debugmorphaccumulator_dx9.obj
 0002:0009cb90       ??1?$CUtlMemory@PAVCShaderParam@DebugMorphAccumulator@@H@@QAE@XZ 101b5b90 f i debugmorphaccumulator_dx9.obj
 0002:0009cbe0       ??1?$CUtlVector@PAVCShaderParam@DebugMorphAccumulator@@V?$CUtlMemory@PAVCShaderParam@DebugMorphAccumulator@@H@@@@QAE@XZ 101b5be0 f i debugmorphaccumulator_dx9.obj
 0002:0009cc40       ??A?$CUtlMemory@PAVCShaderParam@DebugMorphAccumulator@@H@@QAEAAPAVCShaderParam@DebugMorphAccumulator@@H@Z 101b5c40 f i debugmorphaccumulator_dx9.obj
 0002:0009ce40       ??A?$CUtlVector@PAVCShaderParam@DebugMorphAccumulator@@V?$CUtlMemory@PAVCShaderParam@DebugMorphAccumulator@@H@@@@QAEAAPAVCShaderParam@DebugMorphAccumulator@@H@Z 101b5e40 f i debugmorphaccumulator_dx9.obj
 0002:0009cf70       ?Base@?$CUtlMemory@PAVCShaderParam@DebugMorphAccumulator@@H@@QAEPAPAVCShaderParam@DebugMorphAccumulator@@XZ 101b5f70 f i debugmorphaccumulator_dx9.obj
 0002:0009d090       ?Base@?$CUtlVector@PAVCShaderParam@DebugMorphAccumulator@@V?$CUtlMemory@PAVCShaderParam@DebugMorphAccumulator@@H@@@@QAEPAPAVCShaderParam@DebugMorphAccumulator@@XZ 101b6090 f i debugmorphaccumulator_dx9.obj
 0002:0009d0e0       ?Count@?$CUtlVector@PAVCShaderParam@DebugMorphAccumulator@@V?$CUtlMemory@PAVCShaderParam@DebugMorphAccumulator@@H@@@@QBEHXZ 101b60e0 f i debugmorphaccumulator_dx9.obj
 0002:0009d120       ?Element@?$CUtlVector@PAVCShaderParam@DebugMorphAccumulator@@V?$CUtlMemory@PAVCShaderParam@DebugMorphAccumulator@@H@@@@QAEAAPAVCShaderParam@DebugMorphAccumulator@@H@Z 101b6120 f i debugmorphaccumulator_dx9.obj
 0002:0009d250       ?GetFallbackShader@CShader@DebugMorphAccumulator@@UBEPBDPAPAVIMaterialVar@@@Z 101b6250 f i debugmorphaccumulator_dx9.obj
 0002:0009d290       ?GetFlags@CShader@DebugMorphAccumulator@@UBEHXZ 101b6290 f i debugmorphaccumulator_dx9.obj
 0002:0009d2d0       ?GetIndex@debugmorphaccumulator_ps30_Dynamic_Index@@QAEHXZ 101b62d0 f i debugmorphaccumulator_dx9.obj
 0002:0009d310       ?GetIndex@debugmorphaccumulator_ps30_Static_Index@@QAEHXZ 101b6310 f i debugmorphaccumulator_dx9.obj
 0002:0009d350       ?GetIndex@debugmorphaccumulator_vs30_Dynamic_Index@@QAEHXZ 101b6350 f i debugmorphaccumulator_dx9.obj
 0002:0009d390       ?GetIndex@debugmorphaccumulator_vs30_Static_Index@@QAEHXZ 101b6390 f i debugmorphaccumulator_dx9.obj
 0002:0009d3d0       ?GetInfo@CShaderParam@DebugMorphAccumulator@@QBEABUShaderParamInfo_t@@XZ 101b63d0 f i debugmorphaccumulator_dx9.obj
 0002:0009d410       ?GetName@CShader@DebugMorphAccumulator@@UBEPBDXZ 101b6410 f i debugmorphaccumulator_dx9.obj
 0002:0009d450       ?GetParamCount@CShader@DebugMorphAccumulator@@UBEHXZ 101b6450 f i debugmorphaccumulator_dx9.obj
 0002:0009d4b0       ?GetParamInfo@CShader@DebugMorphAccumulator@@UBEABUShaderParamInfo_t@@H@Z 101b64b0 f i debugmorphaccumulator_dx9.obj
 0002:0009d550       ?IsExternallyAllocated@?$CUtlMemory@PAVCShaderParam@DebugMorphAccumulator@@H@@QBE_NXZ 101b6550 f i debugmorphaccumulator_dx9.obj
 0002:0009d5c0       ?IsIdxValid@?$CUtlMemory@PAVCShaderParam@DebugMorphAccumulator@@H@@QBE_NH@Z 101b65c0 f i debugmorphaccumulator_dx9.obj
 0002:0009d640       ?IsReadOnly@?$CUtlMemory@PAVCShaderParam@DebugMorphAccumulator@@H@@QBE_NXZ 101b6640 f i debugmorphaccumulator_dx9.obj
 0002:0009d6b0       ?OnDrawElements@CShader@DebugMorphAccumulator@@UAEXPAPAVIMaterialVar@@PAVIShaderShadow@@PAVIShaderDynamicAPI@@W4VertexCompressionType_t@@PAPAVCBasePerMaterialContextData@@@Z 101b66b0 f i debugmorphaccumulator_dx9.obj
 0002:0009db00       ?OnInitShaderInstance@CShader@DebugMorphAccumulator@@UAEXPAPAVIMaterialVar@@PAVIShaderInit@@PBD@Z 101b6b00 f i debugmorphaccumulator_dx9.obj
 0002:0009db60       ?OnInitShaderParams@CShader@DebugMorphAccumulator@@UAEXPAPAVIMaterialVar@@PBD@Z 101b6b60 f i debugmorphaccumulator_dx9.obj
 0002:0009dba0       ?Purge@?$CUtlMemory@PAVCShaderParam@DebugMorphAccumulator@@H@@QAEXXZ 101b6ba0 f i debugmorphaccumulator_dx9.obj
 0002:0009dc50       ?Purge@?$CUtlVector@PAVCShaderParam@DebugMorphAccumulator@@V?$CUtlMemory@PAVCShaderParam@DebugMorphAccumulator@@H@@@@QAEXXZ 101b6c50 f i debugmorphaccumulator_dx9.obj
 0002:0009dcc0       ?RemoveAll@?$CUtlVector@PAVCShaderParam@DebugMorphAccumulator@@V?$CUtlMemory@PAVCShaderParam@DebugMorphAccumulator@@H@@@@QAEXXZ 101b6cc0 f i debugmorphaccumulator_dx9.obj
 0002:0009dd50       ?ResetDbgInfo@?$CUtlVector@PAVCShaderParam@DebugMorphAccumulator@@V?$CUtlMemory@PAVCShaderParam@DebugMorphAccumulator@@H@@@@IAEXXZ 101b6d50 f i debugmorphaccumulator_dx9.obj
 0002:0009ddb0       ?ValidateGrowSize@?$CUtlMemory@PAVCShaderParam@DebugMorphAccumulator@@H@@IAEXXZ 101b6db0 f i debugmorphaccumulator_dx9.obj
 0002:0009ddf0       ??$CopyConstruct@PAVCShaderParam@DebugMRTTexture@@@@YAPAPAVCShaderParam@DebugMRTTexture@@PAPAV01@ABQAV01@@Z 101b6df0 f i debugmrttexture.obj
 0002:0009de90       ??$Destruct@PAVCShaderParam@DebugMRTTexture@@@@YAXPAPAVCShaderParam@DebugMRTTexture@@@Z 101b6e90 f i debugmrttexture.obj
 0002:0009def0       ??$MemAllocClassName@V?$CUtlMemory@PAVCShaderParam@DebugMRTTexture@@H@@@@YAPBDPAV?$CUtlMemory@PAVCShaderParam@DebugMRTTexture@@H@@@Z 101b6ef0 f i debugmrttexture.obj
 0002:0009df70       ??$MemAllocClassName@V?$CUtlVector@PAVCShaderParam@DebugMRTTexture@@V?$CUtlMemory@PAVCShaderParam@DebugMRTTexture@@H@@@@@@YAPBDPAV?$CUtlVector@PAVCShaderParam@DebugMRTTexture@@V?$CUtlMemory@PAVCShaderParam@DebugMRTTexture@@H@@@@@Z 101b6f70 f i debugmrttexture.obj
 0002:0009dff0       ??0?$CUtlMemory@PAVCShaderParam@DebugMRTTexture@@H@@QAE@HH@Z 101b6ff0 f i debugmrttexture.obj
 0002:0009e1e0       ??0?$CUtlVector@PAVCShaderParam@DebugMRTTexture@@V?$CUtlMemory@PAVCShaderParam@DebugMRTTexture@@H@@@@QAE@HH@Z 101b71e0 f i debugmrttexture.obj
 0002:0009e260       ??0CShader@DebugMRTTexture@@QAE@XZ 101b7260 f i debugmrttexture.obj
 0002:0009e2c0       ??0CShaderParam@DebugMRTTexture@@QAE@PBDW4ShaderParamType_t@@00H@Z 101b72c0 f i debugmrttexture.obj
 0002:0009e380       ??0debugmrttexture_ps20b_Dynamic_Index@@QAE@PAVIShaderDynamicAPI@@@Z 101b7380 f i debugmrttexture.obj
 0002:0009e3c0       ??0debugmrttexture_ps20b_Static_Index@@QAE@PAVIShaderShadow@@PAPAVIMaterialVar@@@Z 101b73c0 f i debugmrttexture.obj
 0002:0009e410       ??0debugmrttexture_vs20_Dynamic_Index@@QAE@PAVIShaderDynamicAPI@@@Z 101b7410 f i debugmrttexture.obj
 0002:0009e450       ??0debugmrttexture_vs20_Static_Index@@QAE@PAVIShaderShadow@@PAPAVIMaterialVar@@@Z 101b7450 f i debugmrttexture.obj
 0002:0009e490       ??1?$CUtlMemory@PAVCShaderParam@DebugMRTTexture@@H@@QAE@XZ 101b7490 f i debugmrttexture.obj
 0002:0009e4e0       ??1?$CUtlVector@PAVCShaderParam@DebugMRTTexture@@V?$CUtlMemory@PAVCShaderParam@DebugMRTTexture@@H@@@@QAE@XZ 101b74e0 f i debugmrttexture.obj
 0002:0009e540       ??A?$CUtlMemory@PAVCShaderParam@DebugMRTTexture@@H@@QAEAAPAVCShaderParam@DebugMRTTexture@@H@Z 101b7540 f i debugmrttexture.obj
 0002:0009e740       ??A?$CUtlVector@PAVCShaderParam@DebugMRTTexture@@V?$CUtlMemory@PAVCShaderParam@DebugMRTTexture@@H@@@@QAEAAPAVCShaderParam@DebugMRTTexture@@H@Z 101b7740 f i debugmrttexture.obj
 0002:0009e870       ??BCShaderParam@DebugMRTTexture@@QAEHXZ 101b7870 f i debugmrttexture.obj
 0002:0009e8b0       ?AddToTail@?$CUtlVector@PAVCShaderParam@DebugMRTTexture@@V?$CUtlMemory@PAVCShaderParam@DebugMRTTexture@@H@@@@QAEHABQAVCShaderParam@DebugMRTTexture@@@Z 101b78b0 f i debugmrttexture.obj
 0002:0009ea20       ?Base@?$CUtlMemory@PAVCShaderParam@DebugMRTTexture@@H@@QAEPAPAVCShaderParam@DebugMRTTexture@@XZ 101b7a20 f i debugmrttexture.obj
 0002:0009eb40       ?Base@?$CUtlVector@PAVCShaderParam@DebugMRTTexture@@V?$CUtlMemory@PAVCShaderParam@DebugMRTTexture@@H@@@@QAEPAPAVCShaderParam@DebugMRTTexture@@XZ 101b7b40 f i debugmrttexture.obj
 0002:0009eb90       ?Count@?$CUtlVector@PAVCShaderParam@DebugMRTTexture@@V?$CUtlMemory@PAVCShaderParam@DebugMRTTexture@@H@@@@QBEHXZ 101b7b90 f i debugmrttexture.obj
 0002:0009ebd0       ?Element@?$CUtlVector@PAVCShaderParam@DebugMRTTexture@@V?$CUtlMemory@PAVCShaderParam@DebugMRTTexture@@H@@@@QAEAAPAVCShaderParam@DebugMRTTexture@@H@Z 101b7bd0 f i debugmrttexture.obj
 0002:0009ed00       ?GetFallbackShader@CShader@DebugMRTTexture@@UBEPBDPAPAVIMaterialVar@@@Z 101b7d00 f i debugmrttexture.obj
 0002:0009ed40       ?GetFlags@CShader@DebugMRTTexture@@UBEHXZ 101b7d40 f i debugmrttexture.obj
 0002:0009ed80       ?GetIndex@debugmrttexture_ps20b_Dynamic_Index@@QAEHXZ 101b7d80 f i debugmrttexture.obj
 0002:0009edc0       ?GetIndex@debugmrttexture_ps20b_Static_Index@@QAEHXZ 101b7dc0 f i debugmrttexture.obj
 0002:0009eee0       ?GetIndex@debugmrttexture_vs20_Dynamic_Index@@QAEHXZ 101b7ee0 f i debugmrttexture.obj
 0002:0009ef20       ?GetIndex@debugmrttexture_vs20_Static_Index@@QAEHXZ 101b7f20 f i debugmrttexture.obj
 0002:0009ef60       ?GetInfo@CShaderParam@DebugMRTTexture@@QBEABUShaderParamInfo_t@@XZ 101b7f60 f i debugmrttexture.obj
 0002:0009efa0       ?GetName@CShader@DebugMRTTexture@@UBEPBDXZ 101b7fa0 f i debugmrttexture.obj
 0002:0009efe0       ?GetParamCount@CShader@DebugMRTTexture@@UBEHXZ 101b7fe0 f i debugmrttexture.obj
 0002:0009f040       ?GetParamInfo@CShader@DebugMRTTexture@@UBEABUShaderParamInfo_t@@H@Z 101b8040 f i debugmrttexture.obj
 0002:0009f0e0       ?Grow@?$CUtlMemory@PAVCShaderParam@DebugMRTTexture@@H@@QAEXH@Z 101b80e0 f i debugmrttexture.obj
 0002:0009f750       ?GrowVector@?$CUtlVector@PAVCShaderParam@DebugMRTTexture@@V?$CUtlMemory@PAVCShaderParam@DebugMRTTexture@@H@@@@IAEXH@Z 101b8750 f i debugmrttexture.obj
 0002:0009f870       ?InsertBefore@?$CUtlVector@PAVCShaderParam@DebugMRTTexture@@V?$CUtlMemory@PAVCShaderParam@DebugMRTTexture@@H@@@@QAEHHABQAVCShaderParam@DebugMRTTexture@@@Z 101b8870 f i debugmrttexture.obj
 0002:0009faf0       ?IsExternallyAllocated@?$CUtlMemory@PAVCShaderParam@DebugMRTTexture@@H@@QBE_NXZ 101b8af0 f i debugmrttexture.obj
 0002:0009fb60       ?IsIdxValid@?$CUtlMemory@PAVCShaderParam@DebugMRTTexture@@H@@QBE_NH@Z 101b8b60 f i debugmrttexture.obj
 0002:0009fbe0       ?IsReadOnly@?$CUtlMemory@PAVCShaderParam@DebugMRTTexture@@H@@QBE_NXZ 101b8be0 f i debugmrttexture.obj
 0002:0009fc50       ?IsValidIndex@?$CUtlVector@PAVCShaderParam@DebugMRTTexture@@V?$CUtlMemory@PAVCShaderParam@DebugMRTTexture@@H@@@@QBE_NH@Z 101b8c50 f i debugmrttexture.obj
 0002:0009fcc0       ?NumAllocated@?$CUtlMemory@PAVCShaderParam@DebugMRTTexture@@H@@QBEHXZ 101b8cc0 f i debugmrttexture.obj
 0002:0009fd00       ?OnDrawElements@CShader@DebugMRTTexture@@UAEXPAPAVIMaterialVar@@PAVIShaderShadow@@PAVIShaderDynamicAPI@@W4VertexCompressionType_t@@PAPAVCBasePerMaterialContextData@@@Z 101b8d00 f i debugmrttexture.obj
 0002:000a0190       ?OnInitShaderInstance@CShader@DebugMRTTexture@@UAEXPAPAVIMaterialVar@@PAVIShaderInit@@PBD@Z 101b9190 f i debugmrttexture.obj
 0002:000a01f0       ?OnInitShaderParams@CShader@DebugMRTTexture@@UAEXPAPAVIMaterialVar@@PBD@Z 101b91f0 f i debugmrttexture.obj
 0002:000a0230       ?Purge@?$CUtlMemory@PAVCShaderParam@DebugMRTTexture@@H@@QAEXXZ 101b9230 f i debugmrttexture.obj
 0002:000a02e0       ?Purge@?$CUtlVector@PAVCShaderParam@DebugMRTTexture@@V?$CUtlMemory@PAVCShaderParam@DebugMRTTexture@@H@@@@QAEXXZ 101b92e0 f i debugmrttexture.obj
 0002:000a0350       ?RemoveAll@?$CUtlVector@PAVCShaderParam@DebugMRTTexture@@V?$CUtlMemory@PAVCShaderParam@DebugMRTTexture@@H@@@@QAEXXZ 101b9350 f i debugmrttexture.obj
 0002:000a03e0       ?ResetDbgInfo@?$CUtlVector@PAVCShaderParam@DebugMRTTexture@@V?$CUtlMemory@PAVCShaderParam@DebugMRTTexture@@H@@@@IAEXXZ 101b93e0 f i debugmrttexture.obj
 0002:000a0440       ?SetMRTINDEX@debugmrttexture_ps20b_Static_Index@@QAEXH@Z 101b9440 f i debugmrttexture.obj
 0002:000a0560       ?ShiftElementsRight@?$CUtlVector@PAVCShaderParam@DebugMRTTexture@@V?$CUtlMemory@PAVCShaderParam@DebugMRTTexture@@H@@@@IAEXHH@Z 101b9560 f i debugmrttexture.obj
 0002:000a0700       ?ValidateGrowSize@?$CUtlMemory@PAVCShaderParam@DebugMRTTexture@@H@@IAEXXZ 101b9700 f i debugmrttexture.obj
 0002:000a0740       ??$CopyConstruct@PAVCShaderParam@DebugTextureView_dx9@@@@YAPAPAVCShaderParam@DebugTextureView_dx9@@PAPAV01@ABQAV01@@Z 101b9740 f i DebugTextureView.obj
 0002:000a07e0       ??$Destruct@PAVCShaderParam@DebugTextureView@@@@YAXPAPAVCShaderParam@DebugTextureView@@@Z 101b97e0 f i DebugTextureView.obj
 0002:000a0840       ??$Destruct@PAVCShaderParam@DebugTextureView_dx9@@@@YAXPAPAVCShaderParam@DebugTextureView_dx9@@@Z 101b9840 f i DebugTextureView.obj
 0002:000a08a0       ??$MemAllocClassName@V?$CUtlMemory@PAVCShaderParam@DebugTextureView@@H@@@@YAPBDPAV?$CUtlMemory@PAVCShaderParam@DebugTextureView@@H@@@Z 101b98a0 f i DebugTextureView.obj
 0002:000a0920       ??$MemAllocClassName@V?$CUtlMemory@PAVCShaderParam@DebugTextureView_dx9@@H@@@@YAPBDPAV?$CUtlMemory@PAVCShaderParam@DebugTextureView_dx9@@H@@@Z 101b9920 f i DebugTextureView.obj
 0002:000a09a0       ??$MemAllocClassName@V?$CUtlVector@PAVCShaderParam@DebugTextureView_dx9@@V?$CUtlMemory@PAVCShaderParam@DebugTextureView_dx9@@H@@@@@@YAPBDPAV?$CUtlVector@PAVCShaderParam@DebugTextureView_dx9@@V?$CUtlMemory@PAVCShaderParam@DebugTextureView_dx9@@H@@@@@Z 101b99a0 f i DebugTextureView.obj
 0002:000a0a20       ??0?$CUtlMemory@PAVCShaderParam@DebugTextureView@@H@@QAE@HH@Z 101b9a20 f i DebugTextureView.obj
 0002:000a0c10       ??0?$CUtlMemory@PAVCShaderParam@DebugTextureView_dx9@@H@@QAE@HH@Z 101b9c10 f i DebugTextureView.obj
 0002:000a0e00       ??0?$CUtlVector@PAVCShaderParam@DebugTextureView@@V?$CUtlMemory@PAVCShaderParam@DebugTextureView@@H@@@@QAE@HH@Z 101b9e00 f i DebugTextureView.obj
 0002:000a0e80       ??0?$CUtlVector@PAVCShaderParam@DebugTextureView_dx9@@V?$CUtlMemory@PAVCShaderParam@DebugTextureView_dx9@@H@@@@QAE@HH@Z 101b9e80 f i DebugTextureView.obj
 0002:000a0f00       ??0CShader@DebugTextureView@@QAE@XZ 101b9f00 f i DebugTextureView.obj
 0002:000a0f60       ??0CShader@DebugTextureView_dx9@@QAE@XZ 101b9f60 f i DebugTextureView.obj
 0002:000a0fc0       ??0CShaderParam@DebugTextureView_dx9@@QAE@PBDW4ShaderParamType_t@@00H@Z 101b9fc0 f i DebugTextureView.obj
 0002:000a1080       ??0debugtextureview_ps20b_Dynamic_Index@@QAE@PAVIShaderDynamicAPI@@@Z 101ba080 f i DebugTextureView.obj
 0002:000a10d0       ??0debugtextureview_ps20b_Static_Index@@QAE@PAVIShaderShadow@@PAPAVIMaterialVar@@@Z 101ba0d0 f i DebugTextureView.obj
 0002:000a1120       ??0debugtextureview_vs20_Dynamic_Index@@QAE@PAVIShaderDynamicAPI@@@Z 101ba120 f i DebugTextureView.obj
 0002:000a1170       ??0debugtextureview_vs20_Static_Index@@QAE@PAVIShaderShadow@@PAPAVIMaterialVar@@@Z 101ba170 f i DebugTextureView.obj
 0002:000a11b0       ??1?$CUtlMemory@PAVCShaderParam@DebugTextureView@@H@@QAE@XZ 101ba1b0 f i DebugTextureView.obj
 0002:000a1200       ??1?$CUtlMemory@PAVCShaderParam@DebugTextureView_dx9@@H@@QAE@XZ 101ba200 f i DebugTextureView.obj
 0002:000a1250       ??1?$CUtlVector@PAVCShaderParam@DebugTextureView@@V?$CUtlMemory@PAVCShaderParam@DebugTextureView@@H@@@@QAE@XZ 101ba250 f i DebugTextureView.obj
 0002:000a12b0       ??1?$CUtlVector@PAVCShaderParam@DebugTextureView_dx9@@V?$CUtlMemory@PAVCShaderParam@DebugTextureView_dx9@@H@@@@QAE@XZ 101ba2b0 f i DebugTextureView.obj
 0002:000a1310       ??A?$CUtlMemory@PAVCShaderParam@DebugTextureView@@H@@QAEAAPAVCShaderParam@DebugTextureView@@H@Z 101ba310 f i DebugTextureView.obj
 0002:000a1510       ??A?$CUtlMemory@PAVCShaderParam@DebugTextureView_dx9@@H@@QAEAAPAVCShaderParam@DebugTextureView_dx9@@H@Z 101ba510 f i DebugTextureView.obj
 0002:000a1710       ??A?$CUtlVector@PAVCShaderParam@DebugTextureView@@V?$CUtlMemory@PAVCShaderParam@DebugTextureView@@H@@@@QAEAAPAVCShaderParam@DebugTextureView@@H@Z 101ba710 f i DebugTextureView.obj
 0002:000a1840       ??A?$CUtlVector@PAVCShaderParam@DebugTextureView_dx9@@V?$CUtlMemory@PAVCShaderParam@DebugTextureView_dx9@@H@@@@QAEAAPAVCShaderParam@DebugTextureView_dx9@@H@Z 101ba840 f i DebugTextureView.obj
 0002:000a1970       ??BCShaderParam@DebugTextureView_dx9@@QAEHXZ 101ba970 f i DebugTextureView.obj
 0002:000a19b0       ?AddToTail@?$CUtlVector@PAVCShaderParam@DebugTextureView_dx9@@V?$CUtlMemory@PAVCShaderParam@DebugTextureView_dx9@@H@@@@QAEHABQAVCShaderParam@DebugTextureView_dx9@@@Z 101ba9b0 f i DebugTextureView.obj
 0002:000a1b20       ?Base@?$CUtlMemory@PAVCShaderParam@DebugTextureView@@H@@QAEPAPAVCShaderParam@DebugTextureView@@XZ 101bab20 f i DebugTextureView.obj
 0002:000a1c40       ?Base@?$CUtlMemory@PAVCShaderParam@DebugTextureView_dx9@@H@@QAEPAPAVCShaderParam@DebugTextureView_dx9@@XZ 101bac40 f i DebugTextureView.obj
 0002:000a1d60       ?Base@?$CUtlVector@PAVCShaderParam@DebugTextureView@@V?$CUtlMemory@PAVCShaderParam@DebugTextureView@@H@@@@QAEPAPAVCShaderParam@DebugTextureView@@XZ 101bad60 f i DebugTextureView.obj
 0002:000a1db0       ?Base@?$CUtlVector@PAVCShaderParam@DebugTextureView_dx9@@V?$CUtlMemory@PAVCShaderParam@DebugTextureView_dx9@@H@@@@QAEPAPAVCShaderParam@DebugTextureView_dx9@@XZ 101badb0 f i DebugTextureView.obj
 0002:000a1e00       ?Count@?$CUtlVector@PAVCShaderParam@DebugTextureView@@V?$CUtlMemory@PAVCShaderParam@DebugTextureView@@H@@@@QBEHXZ 101bae00 f i DebugTextureView.obj
 0002:000a1e40       ?Count@?$CUtlVector@PAVCShaderParam@DebugTextureView_dx9@@V?$CUtlMemory@PAVCShaderParam@DebugTextureView_dx9@@H@@@@QBEHXZ 101bae40 f i DebugTextureView.obj
 0002:000a1e80       ?Element@?$CUtlVector@PAVCShaderParam@DebugTextureView@@V?$CUtlMemory@PAVCShaderParam@DebugTextureView@@H@@@@QAEAAPAVCShaderParam@DebugTextureView@@H@Z 101bae80 f i DebugTextureView.obj
 0002:000a1fb0       ?Element@?$CUtlVector@PAVCShaderParam@DebugTextureView_dx9@@V?$CUtlMemory@PAVCShaderParam@DebugTextureView_dx9@@H@@@@QAEAAPAVCShaderParam@DebugTextureView_dx9@@H@Z 101bafb0 f i DebugTextureView.obj
 0002:000a20e0       ?GetFallbackShader@CShader@DebugTextureView@@UBEPBDPAPAVIMaterialVar@@@Z 101bb0e0 f i DebugTextureView.obj
 0002:000a2120       ?GetFallbackShader@CShader@DebugTextureView_dx9@@UBEPBDPAPAVIMaterialVar@@@Z 101bb120 f i DebugTextureView.obj
 0002:000a2160       ?GetFlags@CShader@DebugTextureView@@UBEHXZ 101bb160 f i DebugTextureView.obj
 0002:000a21a0       ?GetFlags@CShader@DebugTextureView_dx9@@UBEHXZ 101bb1a0 f i DebugTextureView.obj
 0002:000a21e0       ?GetIndex@debugtextureview_ps20b_Dynamic_Index@@QAEHXZ 101bb1e0 f i DebugTextureView.obj
 0002:000a2300       ?GetIndex@debugtextureview_ps20b_Static_Index@@QAEHXZ 101bb300 f i DebugTextureView.obj
 0002:000a2420       ?GetIndex@debugtextureview_vs20_Dynamic_Index@@QAEHXZ 101bb420 f i DebugTextureView.obj
 0002:000a2540       ?GetIndex@debugtextureview_vs20_Static_Index@@QAEHXZ 101bb540 f i DebugTextureView.obj
 0002:000a2580       ?GetInfo@CShaderParam@DebugTextureView@@QBEABUShaderParamInfo_t@@XZ 101bb580 f i DebugTextureView.obj
 0002:000a25c0       ?GetInfo@CShaderParam@DebugTextureView_dx9@@QBEABUShaderParamInfo_t@@XZ 101bb5c0 f i DebugTextureView.obj
 0002:000a2600       ?GetName@CShader@DebugTextureView@@UBEPBDXZ 101bb600 f i DebugTextureView.obj
 0002:000a2640       ?GetName@CShader@DebugTextureView_dx9@@UBEPBDXZ 101bb640 f i DebugTextureView.obj
 0002:000a2680       ?GetParamCount@CShader@DebugTextureView@@UBEHXZ 101bb680 f i DebugTextureView.obj
 0002:000a26e0       ?GetParamCount@CShader@DebugTextureView_dx9@@UBEHXZ 101bb6e0 f i DebugTextureView.obj
 0002:000a2740       ?GetParamInfo@CShader@DebugTextureView@@UBEABUShaderParamInfo_t@@H@Z 101bb740 f i DebugTextureView.obj
 0002:000a27e0       ?GetParamInfo@CShader@DebugTextureView_dx9@@UBEABUShaderParamInfo_t@@H@Z 101bb7e0 f i DebugTextureView.obj
 0002:000a2880       ?Grow@?$CUtlMemory@PAVCShaderParam@DebugTextureView_dx9@@H@@QAEXH@Z 101bb880 f i DebugTextureView.obj
 0002:000a2ef0       ?GrowVector@?$CUtlVector@PAVCShaderParam@DebugTextureView_dx9@@V?$CUtlMemory@PAVCShaderParam@DebugTextureView_dx9@@H@@@@IAEXH@Z 101bbef0 f i DebugTextureView.obj
 0002:000a3010       ?InsertBefore@?$CUtlVector@PAVCShaderParam@DebugTextureView_dx9@@V?$CUtlMemory@PAVCShaderParam@DebugTextureView_dx9@@H@@@@QAEHHABQAVCShaderParam@DebugTextureView_dx9@@@Z 101bc010 f i DebugTextureView.obj
 0002:000a3290       ?IsExternallyAllocated@?$CUtlMemory@PAVCShaderParam@DebugTextureView@@H@@QBE_NXZ 101bc290 f i DebugTextureView.obj
 0002:000a3300       ?IsExternallyAllocated@?$CUtlMemory@PAVCShaderParam@DebugTextureView_dx9@@H@@QBE_NXZ 101bc300 f i DebugTextureView.obj
 0002:000a3370       ?IsIdxValid@?$CUtlMemory@PAVCShaderParam@DebugTextureView@@H@@QBE_NH@Z 101bc370 f i DebugTextureView.obj
 0002:000a33f0       ?IsIdxValid@?$CUtlMemory@PAVCShaderParam@DebugTextureView_dx9@@H@@QBE_NH@Z 101bc3f0 f i DebugTextureView.obj
 0002:000a3470       ?IsReadOnly@?$CUtlMemory@PAVCShaderParam@DebugTextureView@@H@@QBE_NXZ 101bc470 f i DebugTextureView.obj
 0002:000a34e0       ?IsReadOnly@?$CUtlMemory@PAVCShaderParam@DebugTextureView_dx9@@H@@QBE_NXZ 101bc4e0 f i DebugTextureView.obj
 0002:000a3550       ?IsValidIndex@?$CUtlVector@PAVCShaderParam@DebugTextureView_dx9@@V?$CUtlMemory@PAVCShaderParam@DebugTextureView_dx9@@H@@@@QBE_NH@Z 101bc550 f i DebugTextureView.obj
 0002:000a35c0       ?NumAllocated@?$CUtlMemory@PAVCShaderParam@DebugTextureView_dx9@@H@@QBEHXZ 101bc5c0 f i DebugTextureView.obj
 0002:000a3600       ?OnDrawElements@CShader@DebugTextureView@@UAEXPAPAVIMaterialVar@@PAVIShaderShadow@@PAVIShaderDynamicAPI@@W4VertexCompressionType_t@@PAPAVCBasePerMaterialContextData@@@Z 101bc600 f i DebugTextureView.obj
 0002:000a3640       ?OnDrawElements@CShader@DebugTextureView_dx9@@UAEXPAPAVIMaterialVar@@PAVIShaderShadow@@PAVIShaderDynamicAPI@@W4VertexCompressionType_t@@PAPAVCBasePerMaterialContextData@@@Z 101bc640 f i DebugTextureView.obj
 0002:000a3e60       ?OnInitShaderInstance@CShader@DebugTextureView@@UAEXPAPAVIMaterialVar@@PAVIShaderInit@@PBD@Z 101bce60 f i DebugTextureView.obj
 0002:000a3ea0       ?OnInitShaderInstance@CShader@DebugTextureView_dx9@@UAEXPAPAVIMaterialVar@@PAVIShaderInit@@PBD@Z 101bcea0 f i DebugTextureView.obj
 0002:000a3f40       ?Purge@?$CUtlMemory@PAVCShaderParam@DebugTextureView@@H@@QAEXXZ 101bcf40 f i DebugTextureView.obj
 0002:000a3ff0       ?Purge@?$CUtlMemory@PAVCShaderParam@DebugTextureView_dx9@@H@@QAEXXZ 101bcff0 f i DebugTextureView.obj
 0002:000a40a0       ?Purge@?$CUtlVector@PAVCShaderParam@DebugTextureView@@V?$CUtlMemory@PAVCShaderParam@DebugTextureView@@H@@@@QAEXXZ 101bd0a0 f i DebugTextureView.obj
 0002:000a4110       ?Purge@?$CUtlVector@PAVCShaderParam@DebugTextureView_dx9@@V?$CUtlMemory@PAVCShaderParam@DebugTextureView_dx9@@H@@@@QAEXXZ 101bd110 f i DebugTextureView.obj
 0002:000a4180       ?RemoveAll@?$CUtlVector@PAVCShaderParam@DebugTextureView@@V?$CUtlMemory@PAVCShaderParam@DebugTextureView@@H@@@@QAEXXZ 101bd180 f i DebugTextureView.obj
 0002:000a4210       ?RemoveAll@?$CUtlVector@PAVCShaderParam@DebugTextureView_dx9@@V?$CUtlMemory@PAVCShaderParam@DebugTextureView_dx9@@H@@@@QAEXXZ 101bd210 f i DebugTextureView.obj
 0002:000a42a0       ?ResetDbgInfo@?$CUtlVector@PAVCShaderParam@DebugTextureView@@V?$CUtlMemory@PAVCShaderParam@DebugTextureView@@H@@@@IAEXXZ 101bd2a0 f i DebugTextureView.obj
 0002:000a4300       ?ResetDbgInfo@?$CUtlVector@PAVCShaderParam@DebugTextureView_dx9@@V?$CUtlMemory@PAVCShaderParam@DebugTextureView_dx9@@H@@@@IAEXXZ 101bd300 f i DebugTextureView.obj
 0002:000a4360       ?SetCOMPRESSED_VERTS@debugtextureview_vs20_Dynamic_Index@@QAEXH@Z 101bd360 f i DebugTextureView.obj
 0002:000a4480       ?SetISCUBEMAP@debugtextureview_ps20b_Dynamic_Index@@QAEX_N@Z 101bd480 f i DebugTextureView.obj
 0002:000a4500       ?SetSHOWALPHA@debugtextureview_ps20b_Static_Index@@QAEX_N@Z 101bd500 f i DebugTextureView.obj
 0002:000a4580       ?ShiftElementsRight@?$CUtlVector@PAVCShaderParam@DebugTextureView_dx9@@V?$CUtlMemory@PAVCShaderParam@DebugTextureView_dx9@@H@@@@IAEXHH@Z 101bd580 f i DebugTextureView.obj
 0002:000a4720       ?ValidateGrowSize@?$CUtlMemory@PAVCShaderParam@DebugTextureView@@H@@IAEXXZ 101bd720 f i DebugTextureView.obj
 0002:000a4760       ?ValidateGrowSize@?$CUtlMemory@PAVCShaderParam@DebugTextureView_dx9@@H@@IAEXXZ 101bd760 f i DebugTextureView.obj
 0002:000a47a0       ??$CopyConstruct@PAVCShaderParam@DecalModulate_dx9@@@@YAPAPAVCShaderParam@DecalModulate_dx9@@PAPAV01@ABQAV01@@Z 101bd7a0 f i DecalModulate_dx9.obj
 0002:000a4840       ??$Destruct@PAVCShaderParam@DecalModulate@@@@YAXPAPAVCShaderParam@DecalModulate@@@Z 101bd840 f i DecalModulate_dx9.obj
 0002:000a48a0       ??$Destruct@PAVCShaderParam@DecalModulate_dx9@@@@YAXPAPAVCShaderParam@DecalModulate_dx9@@@Z 101bd8a0 f i DecalModulate_dx9.obj
 0002:000a4900       ??$MemAllocClassName@V?$CUtlMemory@PAVCShaderParam@DecalModulate@@H@@@@YAPBDPAV?$CUtlMemory@PAVCShaderParam@DecalModulate@@H@@@Z 101bd900 f i DecalModulate_dx9.obj
 0002:000a4980       ??$MemAllocClassName@V?$CUtlMemory@PAVCShaderParam@DecalModulate_dx9@@H@@@@YAPBDPAV?$CUtlMemory@PAVCShaderParam@DecalModulate_dx9@@H@@@Z 101bd980 f i DecalModulate_dx9.obj
 0002:000a4a00       ??$MemAllocClassName@V?$CUtlVector@PAVCShaderParam@DecalModulate_dx9@@V?$CUtlMemory@PAVCShaderParam@DecalModulate_dx9@@H@@@@@@YAPBDPAV?$CUtlVector@PAVCShaderParam@DecalModulate_dx9@@V?$CUtlMemory@PAVCShaderParam@DecalModulate_dx9@@H@@@@@Z 101bda00 f i DecalModulate_dx9.obj
 0002:000a4a80       ??0?$CUtlMemory@PAVCShaderParam@DecalModulate@@H@@QAE@HH@Z 101bda80 f i DecalModulate_dx9.obj
 0002:000a4c70       ??0?$CUtlMemory@PAVCShaderParam@DecalModulate_dx9@@H@@QAE@HH@Z 101bdc70 f i DecalModulate_dx9.obj
 0002:000a4e60       ??0?$CUtlVector@PAVCShaderParam@DecalModulate@@V?$CUtlMemory@PAVCShaderParam@DecalModulate@@H@@@@QAE@HH@Z 101bde60 f i DecalModulate_dx9.obj
 0002:000a4ee0       ??0?$CUtlVector@PAVCShaderParam@DecalModulate_dx9@@V?$CUtlMemory@PAVCShaderParam@DecalModulate_dx9@@H@@@@QAE@HH@Z 101bdee0 f i DecalModulate_dx9.obj
 0002:000a4f60       ??0CShader@DecalModulate@@QAE@XZ 101bdf60 f i DecalModulate_dx9.obj
 0002:000a4fc0       ??0CShader@DecalModulate_dx9@@QAE@XZ 101bdfc0 f i DecalModulate_dx9.obj
 0002:000a5020       ??0CShaderParam@DecalModulate_dx9@@QAE@PBDW4ShaderParamType_t@@00H@Z 101be020 f i DecalModulate_dx9.obj
 0002:000a50e0       ??0decalmodulate_ps20b_Dynamic_Index@@QAE@PAVIShaderDynamicAPI@@@Z 101be0e0 f i DecalModulate_dx9.obj
 0002:000a5180       ??0decalmodulate_ps20b_Static_Index@@QAE@PAVIShaderShadow@@PAPAVIMaterialVar@@@Z 101be180 f i DecalModulate_dx9.obj
 0002:000a51d0       ??0decalmodulate_ps30_Dynamic_Index@@QAE@PAVIShaderDynamicAPI@@@Z 101be1d0 f i DecalModulate_dx9.obj
 0002:000a5270       ??0decalmodulate_ps30_Static_Index@@QAE@PAVIShaderShadow@@PAPAVIMaterialVar@@@Z 101be270 f i DecalModulate_dx9.obj
 0002:000a52c0       ??0decalmodulate_vs20_Dynamic_Index@@QAE@PAVIShaderDynamicAPI@@@Z 101be2c0 f i DecalModulate_dx9.obj
 0002:000a5390       ??0decalmodulate_vs20_Static_Index@@QAE@PAVIShaderShadow@@PAPAVIMaterialVar@@@Z 101be390 f i DecalModulate_dx9.obj
 0002:000a5470       ??0decalmodulate_vs30_Dynamic_Index@@QAE@PAVIShaderDynamicAPI@@@Z 101be470 f i DecalModulate_dx9.obj
 0002:000a5570       ??0decalmodulate_vs30_Static_Index@@QAE@PAVIShaderShadow@@PAPAVIMaterialVar@@@Z 101be570 f i DecalModulate_dx9.obj
 0002:000a5620       ??1?$CUtlMemory@PAVCShaderParam@DecalModulate@@H@@QAE@XZ 101be620 f i DecalModulate_dx9.obj
 0002:000a5670       ??1?$CUtlMemory@PAVCShaderParam@DecalModulate_dx9@@H@@QAE@XZ 101be670 f i DecalModulate_dx9.obj
 0002:000a56c0       ??1?$CUtlVector@PAVCShaderParam@DecalModulate@@V?$CUtlMemory@PAVCShaderParam@DecalModulate@@H@@@@QAE@XZ 101be6c0 f i DecalModulate_dx9.obj
 0002:000a5720       ??1?$CUtlVector@PAVCShaderParam@DecalModulate_dx9@@V?$CUtlMemory@PAVCShaderParam@DecalModulate_dx9@@H@@@@QAE@XZ 101be720 f i DecalModulate_dx9.obj
 0002:000a5780       ??A?$CUtlMemory@PAVCShaderParam@DecalModulate@@H@@QAEAAPAVCShaderParam@DecalModulate@@H@Z 101be780 f i DecalModulate_dx9.obj
 0002:000a5980       ??A?$CUtlMemory@PAVCShaderParam@DecalModulate_dx9@@H@@QAEAAPAVCShaderParam@DecalModulate_dx9@@H@Z 101be980 f i DecalModulate_dx9.obj
 0002:000a5b80       ??A?$CUtlVector@PAVCShaderParam@DecalModulate@@V?$CUtlMemory@PAVCShaderParam@DecalModulate@@H@@@@QAEAAPAVCShaderParam@DecalModulate@@H@Z 101beb80 f i DecalModulate_dx9.obj
 0002:000a5cb0       ??A?$CUtlVector@PAVCShaderParam@DecalModulate_dx9@@V?$CUtlMemory@PAVCShaderParam@DecalModulate_dx9@@H@@@@QAEAAPAVCShaderParam@DecalModulate_dx9@@H@Z 101becb0 f i DecalModulate_dx9.obj
 0002:000a5de0       ??BCShaderParam@DecalModulate_dx9@@QAEHXZ 101bede0 f i DecalModulate_dx9.obj
 0002:000a5e20       ?AddToTail@?$CUtlVector@PAVCShaderParam@DecalModulate_dx9@@V?$CUtlMemory@PAVCShaderParam@DecalModulate_dx9@@H@@@@QAEHABQAVCShaderParam@DecalModulate_dx9@@@Z 101bee20 f i DecalModulate_dx9.obj
 0002:000a5f90       ?Base@?$CUtlMemory@PAVCShaderParam@DecalModulate@@H@@QAEPAPAVCShaderParam@DecalModulate@@XZ 101bef90 f i DecalModulate_dx9.obj
 0002:000a60b0       ?Base@?$CUtlMemory@PAVCShaderParam@DecalModulate_dx9@@H@@QAEPAPAVCShaderParam@DecalModulate_dx9@@XZ 101bf0b0 f i DecalModulate_dx9.obj
 0002:000a61d0       ?Base@?$CUtlVector@PAVCShaderParam@DecalModulate@@V?$CUtlMemory@PAVCShaderParam@DecalModulate@@H@@@@QAEPAPAVCShaderParam@DecalModulate@@XZ 101bf1d0 f i DecalModulate_dx9.obj
 0002:000a6220       ?Base@?$CUtlVector@PAVCShaderParam@DecalModulate_dx9@@V?$CUtlMemory@PAVCShaderParam@DecalModulate_dx9@@H@@@@QAEPAPAVCShaderParam@DecalModulate_dx9@@XZ 101bf220 f i DecalModulate_dx9.obj
 0002:000a6270       ?CShader_IsFlag2Set@@YA_NPAPAVIMaterialVar@@W4MaterialVarFlags2_t@@@Z 101bf270 f i DecalModulate_dx9.obj
 0002:000a62f0       ?Count@?$CUtlVector@PAVCShaderParam@DecalModulate@@V?$CUtlMemory@PAVCShaderParam@DecalModulate@@H@@@@QBEHXZ 101bf2f0 f i DecalModulate_dx9.obj
 0002:000a6330       ?Count@?$CUtlVector@PAVCShaderParam@DecalModulate_dx9@@V?$CUtlMemory@PAVCShaderParam@DecalModulate_dx9@@H@@@@QBEHXZ 101bf330 f i DecalModulate_dx9.obj
 0002:000a6370       ?Element@?$CUtlVector@PAVCShaderParam@DecalModulate@@V?$CUtlMemory@PAVCShaderParam@DecalModulate@@H@@@@QAEAAPAVCShaderParam@DecalModulate@@H@Z 101bf370 f i DecalModulate_dx9.obj
 0002:000a64a0       ?Element@?$CUtlVector@PAVCShaderParam@DecalModulate_dx9@@V?$CUtlMemory@PAVCShaderParam@DecalModulate_dx9@@H@@@@QAEAAPAVCShaderParam@DecalModulate_dx9@@H@Z 101bf4a0 f i DecalModulate_dx9.obj
 0002:000a65d0       ?GetFallbackShader@CShader@DecalModulate@@UBEPBDPAPAVIMaterialVar@@@Z 101bf5d0 f i DecalModulate_dx9.obj
 0002:000a6610       ?GetFallbackShader@CShader@DecalModulate_dx9@@UBEPBDPAPAVIMaterialVar@@@Z 101bf610 f i DecalModulate_dx9.obj
 0002:000a6650       ?GetFlags@CShader@DecalModulate@@UBEHXZ 101bf650 f i DecalModulate_dx9.obj
 0002:000a6690       ?GetFlags@CShader@DecalModulate_dx9@@UBEHXZ 101bf690 f i DecalModulate_dx9.obj
 0002:000a66d0       ?GetIndex@decalmodulate_ps20b_Dynamic_Index@@QAEHXZ 101bf6d0 f i DecalModulate_dx9.obj
 0002:000a67f0       ?GetIndex@decalmodulate_ps20b_Static_Index@@QAEHXZ 101bf7f0 f i DecalModulate_dx9.obj
 0002:000a6910       ?GetIndex@decalmodulate_ps30_Dynamic_Index@@QAEHXZ 101bf910 f i DecalModulate_dx9.obj
 0002:000a6a30       ?GetIndex@decalmodulate_ps30_Static_Index@@QAEHXZ 101bfa30 f i DecalModulate_dx9.obj
 0002:000a6b50       ?GetIndex@decalmodulate_vs20_Dynamic_Index@@QAEHXZ 101bfb50 f i DecalModulate_dx9.obj
 0002:000a6cd0       ?GetIndex@decalmodulate_vs20_Static_Index@@QAEHXZ 101bfcd0 f i DecalModulate_dx9.obj
 0002:000a6e70       ?GetIndex@decalmodulate_vs30_Dynamic_Index@@QAEHXZ 101bfe70 f i DecalModulate_dx9.obj
 0002:000a7010       ?GetIndex@decalmodulate_vs30_Static_Index@@QAEHXZ 101c0010 f i DecalModulate_dx9.obj
 0002:000a71b0       ?GetInfo@CShaderParam@DecalModulate@@QBEABUShaderParamInfo_t@@XZ 101c01b0 f i DecalModulate_dx9.obj
 0002:000a71f0       ?GetInfo@CShaderParam@DecalModulate_dx9@@QBEABUShaderParamInfo_t@@XZ 101c01f0 f i DecalModulate_dx9.obj
 0002:000a7230       ?GetName@CShader@DecalModulate@@UBEPBDXZ 101c0230 f i DecalModulate_dx9.obj
 0002:000a7270       ?GetName@CShader@DecalModulate_dx9@@UBEPBDXZ 101c0270 f i DecalModulate_dx9.obj
 0002:000a72b0       ?GetParamCount@CShader@DecalModulate@@UBEHXZ 101c02b0 f i DecalModulate_dx9.obj
 0002:000a7310       ?GetParamCount@CShader@DecalModulate_dx9@@UBEHXZ 101c0310 f i DecalModulate_dx9.obj
 0002:000a7370       ?GetParamInfo@CShader@DecalModulate@@UBEABUShaderParamInfo_t@@H@Z 101c0370 f i DecalModulate_dx9.obj
 0002:000a7410       ?GetParamInfo@CShader@DecalModulate_dx9@@UBEABUShaderParamInfo_t@@H@Z 101c0410 f i DecalModulate_dx9.obj
 0002:000a74b0       ?Grow@?$CUtlMemory@PAVCShaderParam@DecalModulate_dx9@@H@@QAEXH@Z 101c04b0 f i DecalModulate_dx9.obj
 0002:000a7b20       ?GrowVector@?$CUtlVector@PAVCShaderParam@DecalModulate_dx9@@V?$CUtlMemory@PAVCShaderParam@DecalModulate_dx9@@H@@@@IAEXH@Z 101c0b20 f i DecalModulate_dx9.obj
 0002:000a7c40       ?InsertBefore@?$CUtlVector@PAVCShaderParam@DecalModulate_dx9@@V?$CUtlMemory@PAVCShaderParam@DecalModulate_dx9@@H@@@@QAEHHABQAVCShaderParam@DecalModulate_dx9@@@Z 101c0c40 f i DecalModulate_dx9.obj
 0002:000a7ec0       ?IsExternallyAllocated@?$CUtlMemory@PAVCShaderParam@DecalModulate@@H@@QBE_NXZ 101c0ec0 f i DecalModulate_dx9.obj
 0002:000a7f30       ?IsExternallyAllocated@?$CUtlMemory@PAVCShaderParam@DecalModulate_dx9@@H@@QBE_NXZ 101c0f30 f i DecalModulate_dx9.obj
 0002:000a7fa0       ?IsIdxValid@?$CUtlMemory@PAVCShaderParam@DecalModulate@@H@@QBE_NH@Z 101c0fa0 f i DecalModulate_dx9.obj
 0002:000a8020       ?IsIdxValid@?$CUtlMemory@PAVCShaderParam@DecalModulate_dx9@@H@@QBE_NH@Z 101c1020 f i DecalModulate_dx9.obj
 0002:000a80a0       ?IsReadOnly@?$CUtlMemory@PAVCShaderParam@DecalModulate@@H@@QBE_NXZ 101c10a0 f i DecalModulate_dx9.obj
 0002:000a8110       ?IsReadOnly@?$CUtlMemory@PAVCShaderParam@DecalModulate_dx9@@H@@QBE_NXZ 101c1110 f i DecalModulate_dx9.obj
 0002:000a8180       ?IsValidIndex@?$CUtlVector@PAVCShaderParam@DecalModulate_dx9@@V?$CUtlMemory@PAVCShaderParam@DecalModulate_dx9@@H@@@@QBE_NH@Z 101c1180 f i DecalModulate_dx9.obj
 0002:000a81f0       ?NumAllocated@?$CUtlMemory@PAVCShaderParam@DecalModulate_dx9@@H@@QBEHXZ 101c11f0 f i DecalModulate_dx9.obj
 0002:000a8230       ?OnDrawElements@CShader@DecalModulate@@UAEXPAPAVIMaterialVar@@PAVIShaderShadow@@PAVIShaderDynamicAPI@@W4VertexCompressionType_t@@PAPAVCBasePerMaterialContextData@@@Z 101c1230 f i DecalModulate_dx9.obj
 0002:000a8270       ?OnDrawElements@CShader@DecalModulate_dx9@@UAEXPAPAVIMaterialVar@@PAVIShaderShadow@@PAVIShaderDynamicAPI@@W4VertexCompressionType_t@@PAPAVCBasePerMaterialContextData@@@Z 101c1270 f i DecalModulate_dx9.obj
 0002:000a9660       ?OnInitShaderInstance@CShader@DecalModulate@@UAEXPAPAVIMaterialVar@@PAVIShaderInit@@PBD@Z 101c2660 f i DecalModulate_dx9.obj
 0002:000a96a0       ?OnInitShaderInstance@CShader@DecalModulate_dx9@@UAEXPAPAVIMaterialVar@@PAVIShaderInit@@PBD@Z 101c26a0 f i DecalModulate_dx9.obj
 0002:000a9700       ?OnInitShaderParams@CShader@DecalModulate_dx9@@UAEXPAPAVIMaterialVar@@PBD@Z 101c2700 f i DecalModulate_dx9.obj
 0002:000a98e0       ?Purge@?$CUtlMemory@PAVCShaderParam@DecalModulate@@H@@QAEXXZ 101c28e0 f i DecalModulate_dx9.obj
 0002:000a9990       ?Purge@?$CUtlMemory@PAVCShaderParam@DecalModulate_dx9@@H@@QAEXXZ 101c2990 f i DecalModulate_dx9.obj
 0002:000a9a40       ?Purge@?$CUtlVector@PAVCShaderParam@DecalModulate@@V?$CUtlMemory@PAVCShaderParam@DecalModulate@@H@@@@QAEXXZ 101c2a40 f i DecalModulate_dx9.obj
 0002:000a9ab0       ?Purge@?$CUtlVector@PAVCShaderParam@DecalModulate_dx9@@V?$CUtlMemory@PAVCShaderParam@DecalModulate_dx9@@H@@@@QAEXXZ 101c2ab0 f i DecalModulate_dx9.obj
 0002:000a9b20       ?RemoveAll@?$CUtlVector@PAVCShaderParam@DecalModulate@@V?$CUtlMemory@PAVCShaderParam@DecalModulate@@H@@@@QAEXXZ 101c2b20 f i DecalModulate_dx9.obj
 0002:000a9bb0       ?RemoveAll@?$CUtlVector@PAVCShaderParam@DecalModulate_dx9@@V?$CUtlMemory@PAVCShaderParam@DecalModulate_dx9@@H@@@@QAEXXZ 101c2bb0 f i DecalModulate_dx9.obj
 0002:000a9c40       ?ResetDbgInfo@?$CUtlVector@PAVCShaderParam@DecalModulate@@V?$CUtlMemory@PAVCShaderParam@DecalModulate@@H@@@@IAEXXZ 101c2c40 f i DecalModulate_dx9.obj
 0002:000a9ca0       ?ResetDbgInfo@?$CUtlVector@PAVCShaderParam@DecalModulate_dx9@@V?$CUtlMemory@PAVCShaderParam@DecalModulate_dx9@@H@@@@IAEXXZ 101c2ca0 f i DecalModulate_dx9.obj
 0002:000a9d00       ?SetCOMPRESSED_VERTS@decalmodulate_vs20_Dynamic_Index@@QAEXH@Z 101c2d00 f i DecalModulate_dx9.obj
 0002:000a9e30       ?SetCOMPRESSED_VERTS@decalmodulate_vs30_Dynamic_Index@@QAEXH@Z 101c2e30 f i DecalModulate_dx9.obj
 0002:000a9f60       ?SetLIGHTING_PREVIEW@decalmodulate_vs20_Static_Index@@QAEX_N@Z 101c2f60 f i DecalModulate_dx9.obj
 0002:000a9fe0       ?SetLIGHTING_PREVIEW@decalmodulate_vs30_Static_Index@@QAEX_N@Z 101c2fe0 f i DecalModulate_dx9.obj
 0002:000aa060       ?SetSKINNING@decalmodulate_vs20_Dynamic_Index@@QAEXH@Z 101c3060 f i DecalModulate_dx9.obj
 0002:000aa190       ?SetSKINNING@decalmodulate_vs30_Dynamic_Index@@QAEX_N@Z 101c3190 f i DecalModulate_dx9.obj
 0002:000aa210       ?SetVERTEXALPHA@decalmodulate_ps20b_Static_Index@@QAEX_N@Z 101c3210 f i DecalModulate_dx9.obj
 0002:000aa290       ?SetVERTEXALPHA@decalmodulate_ps30_Static_Index@@QAEX_N@Z 101c3290 f i DecalModulate_dx9.obj
 0002:000aa310       ?SetVERTEXCOLOR@decalmodulate_vs20_Static_Index@@QAEX_N@Z 101c3310 f i DecalModulate_dx9.obj
 0002:000aa390       ?SetVERTEXCOLOR@decalmodulate_vs30_Static_Index@@QAEX_N@Z 101c3390 f i DecalModulate_dx9.obj
 0002:000aa410       ?ShiftElementsRight@?$CUtlVector@PAVCShaderParam@DecalModulate_dx9@@V?$CUtlMemory@PAVCShaderParam@DecalModulate_dx9@@H@@@@IAEXHH@Z 101c3410 f i DecalModulate_dx9.obj
 0002:000aa5b0       ?ValidateGrowSize@?$CUtlMemory@PAVCShaderParam@DecalModulate@@H@@IAEXXZ 101c35b0 f i DecalModulate_dx9.obj
 0002:000aa5f0       ?ValidateGrowSize@?$CUtlMemory@PAVCShaderParam@DecalModulate_dx9@@H@@IAEXXZ 101c35f0 f i DecalModulate_dx9.obj
 0002:000aa630       ??$CopyConstruct@PAVCShaderParam@DepthOfField_dx9@@@@YAPAPAVCShaderParam@DepthOfField_dx9@@PAPAV01@ABQAV01@@Z 101c3630 f i DepthOfField_dx9.obj
 0002:000aa6d0       ??$Destruct@PAVCShaderParam@DepthOfField@@@@YAXPAPAVCShaderParam@DepthOfField@@@Z 101c36d0 f i DepthOfField_dx9.obj
 0002:000aa730       ??$Destruct@PAVCShaderParam@DepthOfField_dx9@@@@YAXPAPAVCShaderParam@DepthOfField_dx9@@@Z 101c3730 f i DepthOfField_dx9.obj
 0002:000aa790       ??$MemAllocClassName@V?$CUtlMemory@PAVCShaderParam@DepthOfField@@H@@@@YAPBDPAV?$CUtlMemory@PAVCShaderParam@DepthOfField@@H@@@Z 101c3790 f i DepthOfField_dx9.obj
 0002:000aa810       ??$MemAllocClassName@V?$CUtlMemory@PAVCShaderParam@DepthOfField_dx9@@H@@@@YAPBDPAV?$CUtlMemory@PAVCShaderParam@DepthOfField_dx9@@H@@@Z 101c3810 f i DepthOfField_dx9.obj
 0002:000aa890       ??$MemAllocClassName@V?$CUtlVector@PAVCShaderParam@DepthOfField_dx9@@V?$CUtlMemory@PAVCShaderParam@DepthOfField_dx9@@H@@@@@@YAPBDPAV?$CUtlVector@PAVCShaderParam@DepthOfField_dx9@@V?$CUtlMemory@PAVCShaderParam@DepthOfField_dx9@@H@@@@@Z 101c3890 f i DepthOfField_dx9.obj
 0002:000aa910       ??0?$CUtlMemory@PAVCShaderParam@DepthOfField@@H@@QAE@HH@Z 101c3910 f i DepthOfField_dx9.obj
 0002:000aab00       ??0?$CUtlMemory@PAVCShaderParam@DepthOfField_dx9@@H@@QAE@HH@Z 101c3b00 f i DepthOfField_dx9.obj
 0002:000aacf0       ??0?$CUtlVector@PAVCShaderParam@DepthOfField@@V?$CUtlMemory@PAVCShaderParam@DepthOfField@@H@@@@QAE@HH@Z 101c3cf0 f i DepthOfField_dx9.obj
 0002:000aad70       ??0?$CUtlVector@PAVCShaderParam@DepthOfField_dx9@@V?$CUtlMemory@PAVCShaderParam@DepthOfField_dx9@@H@@@@QAE@HH@Z 101c3d70 f i DepthOfField_dx9.obj
 0002:000aadf0       ??0CShader@DepthOfField@@QAE@XZ 101c3df0 f i DepthOfField_dx9.obj
 0002:000aae50       ??0CShader@DepthOfField_dx9@@QAE@XZ 101c3e50 f i DepthOfField_dx9.obj
 0002:000aaeb0       ??0CShaderParam@DepthOfField_dx9@@QAE@PBDW4ShaderParamType_t@@00H@Z 101c3eb0 f i DepthOfField_dx9.obj
 0002:000aaf70       ??0depth_of_field_ps20b_Dynamic_Index@@QAE@PAVIShaderDynamicAPI@@@Z 101c3f70 f i DepthOfField_dx9.obj
 0002:000aafc0       ??0depth_of_field_ps20b_Static_Index@@QAE@PAVIShaderShadow@@PAPAVIMaterialVar@@@Z 101c3fc0 f i DepthOfField_dx9.obj
 0002:000ab000       ??0depth_of_field_vs20_Dynamic_Index@@QAE@PAVIShaderDynamicAPI@@@Z 101c4000 f i DepthOfField_dx9.obj
 0002:000ab040       ??0depth_of_field_vs20_Static_Index@@QAE@PAVIShaderShadow@@PAPAVIMaterialVar@@@Z 101c4040 f i DepthOfField_dx9.obj
 0002:000ab080       ??1?$CUtlMemory@PAVCShaderParam@DepthOfField@@H@@QAE@XZ 101c4080 f i DepthOfField_dx9.obj
 0002:000ab0d0       ??1?$CUtlMemory@PAVCShaderParam@DepthOfField_dx9@@H@@QAE@XZ 101c40d0 f i DepthOfField_dx9.obj
 0002:000ab120       ??1?$CUtlVector@PAVCShaderParam@DepthOfField@@V?$CUtlMemory@PAVCShaderParam@DepthOfField@@H@@@@QAE@XZ 101c4120 f i DepthOfField_dx9.obj
 0002:000ab180       ??1?$CUtlVector@PAVCShaderParam@DepthOfField_dx9@@V?$CUtlMemory@PAVCShaderParam@DepthOfField_dx9@@H@@@@QAE@XZ 101c4180 f i DepthOfField_dx9.obj
 0002:000ab1e0       ??A?$CUtlMemory@PAVCShaderParam@DepthOfField@@H@@QAEAAPAVCShaderParam@DepthOfField@@H@Z 101c41e0 f i DepthOfField_dx9.obj
 0002:000ab3e0       ??A?$CUtlMemory@PAVCShaderParam@DepthOfField_dx9@@H@@QAEAAPAVCShaderParam@DepthOfField_dx9@@H@Z 101c43e0 f i DepthOfField_dx9.obj
 0002:000ab5e0       ??A?$CUtlVector@PAVCShaderParam@DepthOfField@@V?$CUtlMemory@PAVCShaderParam@DepthOfField@@H@@@@QAEAAPAVCShaderParam@DepthOfField@@H@Z 101c45e0 f i DepthOfField_dx9.obj
 0002:000ab710       ??A?$CUtlVector@PAVCShaderParam@DepthOfField_dx9@@V?$CUtlMemory@PAVCShaderParam@DepthOfField_dx9@@H@@@@QAEAAPAVCShaderParam@DepthOfField_dx9@@H@Z 101c4710 f i DepthOfField_dx9.obj
 0002:000ab840       ??BCShaderParam@DepthOfField_dx9@@QAEHXZ 101c4840 f i DepthOfField_dx9.obj
 0002:000ab880       ?AddToTail@?$CUtlVector@PAVCShaderParam@DepthOfField_dx9@@V?$CUtlMemory@PAVCShaderParam@DepthOfField_dx9@@H@@@@QAEHABQAVCShaderParam@DepthOfField_dx9@@@Z 101c4880 f i DepthOfField_dx9.obj
 0002:000ab9f0       ?Base@?$CUtlMemory@PAVCShaderParam@DepthOfField@@H@@QAEPAPAVCShaderParam@DepthOfField@@XZ 101c49f0 f i DepthOfField_dx9.obj
 0002:000abb10       ?Base@?$CUtlMemory@PAVCShaderParam@DepthOfField_dx9@@H@@QAEPAPAVCShaderParam@DepthOfField_dx9@@XZ 101c4b10 f i DepthOfField_dx9.obj
 0002:000abc30       ?Base@?$CUtlVector@PAVCShaderParam@DepthOfField@@V?$CUtlMemory@PAVCShaderParam@DepthOfField@@H@@@@QAEPAPAVCShaderParam@DepthOfField@@XZ 101c4c30 f i DepthOfField_dx9.obj
 0002:000abc80       ?Base@?$CUtlVector@PAVCShaderParam@DepthOfField_dx9@@V?$CUtlMemory@PAVCShaderParam@DepthOfField_dx9@@H@@@@QAEPAPAVCShaderParam@DepthOfField_dx9@@XZ 101c4c80 f i DepthOfField_dx9.obj
 0002:000abcd0       ?Count@?$CUtlVector@PAVCShaderParam@DepthOfField@@V?$CUtlMemory@PAVCShaderParam@DepthOfField@@H@@@@QBEHXZ 101c4cd0 f i DepthOfField_dx9.obj
 0002:000abd10       ?Count@?$CUtlVector@PAVCShaderParam@DepthOfField_dx9@@V?$CUtlMemory@PAVCShaderParam@DepthOfField_dx9@@H@@@@QBEHXZ 101c4d10 f i DepthOfField_dx9.obj
 0002:000abd50       ?Element@?$CUtlVector@PAVCShaderParam@DepthOfField@@V?$CUtlMemory@PAVCShaderParam@DepthOfField@@H@@@@QAEAAPAVCShaderParam@DepthOfField@@H@Z 101c4d50 f i DepthOfField_dx9.obj
 0002:000abe80       ?Element@?$CUtlVector@PAVCShaderParam@DepthOfField_dx9@@V?$CUtlMemory@PAVCShaderParam@DepthOfField_dx9@@H@@@@QAEAAPAVCShaderParam@DepthOfField_dx9@@H@Z 101c4e80 f i DepthOfField_dx9.obj
 0002:000abfb0       ?GetFallbackShader@CShader@DepthOfField@@UBEPBDPAPAVIMaterialVar@@@Z 101c4fb0 f i DepthOfField_dx9.obj
 0002:000abff0       ?GetFallbackShader@CShader@DepthOfField_dx9@@UBEPBDPAPAVIMaterialVar@@@Z 101c4ff0 f i DepthOfField_dx9.obj
 0002:000ac070       ?GetFlags@CShader@DepthOfField@@UBEHXZ 101c5070 f i DepthOfField_dx9.obj
 0002:000ac0b0       ?GetFlags@CShader@DepthOfField_dx9@@UBEHXZ 101c50b0 f i DepthOfField_dx9.obj
 0002:000ac0f0       ?GetIndex@depth_of_field_ps20b_Dynamic_Index@@QAEHXZ 101c50f0 f i DepthOfField_dx9.obj
 0002:000ac210       ?GetIndex@depth_of_field_ps20b_Static_Index@@QAEHXZ 101c5210 f i DepthOfField_dx9.obj
 0002:000ac250       ?GetIndex@depth_of_field_vs20_Dynamic_Index@@QAEHXZ 101c5250 f i DepthOfField_dx9.obj
 0002:000ac290       ?GetIndex@depth_of_field_vs20_Static_Index@@QAEHXZ 101c5290 f i DepthOfField_dx9.obj
 0002:000ac2d0       ?GetInfo@CShaderParam@DepthOfField@@QBEABUShaderParamInfo_t@@XZ 101c52d0 f i DepthOfField_dx9.obj
 0002:000ac310       ?GetInfo@CShaderParam@DepthOfField_dx9@@QBEABUShaderParamInfo_t@@XZ 101c5310 f i DepthOfField_dx9.obj
 0002:000ac350       ?GetName@CShader@DepthOfField@@UBEPBDXZ 101c5350 f i DepthOfField_dx9.obj
 0002:000ac390       ?GetName@CShader@DepthOfField_dx9@@UBEPBDXZ 101c5390 f i DepthOfField_dx9.obj
 0002:000ac3d0       ?GetParamCount@CShader@DepthOfField@@UBEHXZ 101c53d0 f i DepthOfField_dx9.obj
 0002:000ac430       ?GetParamCount@CShader@DepthOfField_dx9@@UBEHXZ 101c5430 f i DepthOfField_dx9.obj
 0002:000ac490       ?GetParamInfo@CShader@DepthOfField@@UBEABUShaderParamInfo_t@@H@Z 101c5490 f i DepthOfField_dx9.obj
 0002:000ac530       ?GetParamInfo@CShader@DepthOfField_dx9@@UBEABUShaderParamInfo_t@@H@Z 101c5530 f i DepthOfField_dx9.obj
 0002:000ac5d0       ?Grow@?$CUtlMemory@PAVCShaderParam@DepthOfField_dx9@@H@@QAEXH@Z 101c55d0 f i DepthOfField_dx9.obj
 0002:000acc40       ?GrowVector@?$CUtlVector@PAVCShaderParam@DepthOfField_dx9@@V?$CUtlMemory@PAVCShaderParam@DepthOfField_dx9@@H@@@@IAEXH@Z 101c5c40 f i DepthOfField_dx9.obj
 0002:000acd60       ?InsertBefore@?$CUtlVector@PAVCShaderParam@DepthOfField_dx9@@V?$CUtlMemory@PAVCShaderParam@DepthOfField_dx9@@H@@@@QAEHHABQAVCShaderParam@DepthOfField_dx9@@@Z 101c5d60 f i DepthOfField_dx9.obj
 0002:000acfe0       ?IsExternallyAllocated@?$CUtlMemory@PAVCShaderParam@DepthOfField@@H@@QBE_NXZ 101c5fe0 f i DepthOfField_dx9.obj
 0002:000ad050       ?IsExternallyAllocated@?$CUtlMemory@PAVCShaderParam@DepthOfField_dx9@@H@@QBE_NXZ 101c6050 f i DepthOfField_dx9.obj
 0002:000ad0c0       ?IsIdxValid@?$CUtlMemory@PAVCShaderParam@DepthOfField@@H@@QBE_NH@Z 101c60c0 f i DepthOfField_dx9.obj
 0002:000ad140       ?IsIdxValid@?$CUtlMemory@PAVCShaderParam@DepthOfField_dx9@@H@@QBE_NH@Z 101c6140 f i DepthOfField_dx9.obj
 0002:000ad1c0       ?IsReadOnly@?$CUtlMemory@PAVCShaderParam@DepthOfField@@H@@QBE_NXZ 101c61c0 f i DepthOfField_dx9.obj
 0002:000ad230       ?IsReadOnly@?$CUtlMemory@PAVCShaderParam@DepthOfField_dx9@@H@@QBE_NXZ 101c6230 f i DepthOfField_dx9.obj
 0002:000ad2a0       ?IsValidIndex@?$CUtlVector@PAVCShaderParam@DepthOfField_dx9@@V?$CUtlMemory@PAVCShaderParam@DepthOfField_dx9@@H@@@@QBE_NH@Z 101c62a0 f i DepthOfField_dx9.obj
 0002:000ad310       ?NumAllocated@?$CUtlMemory@PAVCShaderParam@DepthOfField_dx9@@H@@QBEHXZ 101c6310 f i DepthOfField_dx9.obj
 0002:000ad350       ?OnDrawElements@CShader@DepthOfField@@UAEXPAPAVIMaterialVar@@PAVIShaderShadow@@PAVIShaderDynamicAPI@@W4VertexCompressionType_t@@PAPAVCBasePerMaterialContextData@@@Z 101c6350 f i DepthOfField_dx9.obj
 0002:000ad390       ?OnDrawElements@CShader@DepthOfField_dx9@@UAEXPAPAVIMaterialVar@@PAVIShaderShadow@@PAVIShaderDynamicAPI@@W4VertexCompressionType_t@@PAPAVCBasePerMaterialContextData@@@Z 101c6390 f i DepthOfField_dx9.obj
 0002:000ae4b0       ?OnInitShaderInstance@CShader@DepthOfField@@UAEXPAPAVIMaterialVar@@PAVIShaderInit@@PBD@Z 101c74b0 f i DepthOfField_dx9.obj
 0002:000ae4f0       ?OnInitShaderInstance@CShader@DepthOfField_dx9@@UAEXPAPAVIMaterialVar@@PAVIShaderInit@@PBD@Z 101c74f0 f i DepthOfField_dx9.obj
 0002:000ae5f0       ?OnInitShaderParams@CShader@DepthOfField_dx9@@UAEXPAPAVIMaterialVar@@PBD@Z 101c75f0 f i DepthOfField_dx9.obj
 0002:000aecd0       ?Purge@?$CUtlMemory@PAVCShaderParam@DepthOfField@@H@@QAEXXZ 101c7cd0 f i DepthOfField_dx9.obj
 0002:000aed80       ?Purge@?$CUtlMemory@PAVCShaderParam@DepthOfField_dx9@@H@@QAEXXZ 101c7d80 f i DepthOfField_dx9.obj
 0002:000aee30       ?Purge@?$CUtlVector@PAVCShaderParam@DepthOfField@@V?$CUtlMemory@PAVCShaderParam@DepthOfField@@H@@@@QAEXXZ 101c7e30 f i DepthOfField_dx9.obj
 0002:000aeea0       ?Purge@?$CUtlVector@PAVCShaderParam@DepthOfField_dx9@@V?$CUtlMemory@PAVCShaderParam@DepthOfField_dx9@@H@@@@QAEXXZ 101c7ea0 f i DepthOfField_dx9.obj
 0002:000aef10       ?RemoveAll@?$CUtlVector@PAVCShaderParam@DepthOfField@@V?$CUtlMemory@PAVCShaderParam@DepthOfField@@H@@@@QAEXXZ 101c7f10 f i DepthOfField_dx9.obj
 0002:000aefa0       ?RemoveAll@?$CUtlVector@PAVCShaderParam@DepthOfField_dx9@@V?$CUtlMemory@PAVCShaderParam@DepthOfField_dx9@@H@@@@QAEXXZ 101c7fa0 f i DepthOfField_dx9.obj
 0002:000af030       ?ResetDbgInfo@?$CUtlVector@PAVCShaderParam@DepthOfField@@V?$CUtlMemory@PAVCShaderParam@DepthOfField@@H@@@@IAEXXZ 101c8030 f i DepthOfField_dx9.obj
 0002:000af090       ?ResetDbgInfo@?$CUtlVector@PAVCShaderParam@DepthOfField_dx9@@V?$CUtlMemory@PAVCShaderParam@DepthOfField_dx9@@H@@@@IAEXXZ 101c8090 f i DepthOfField_dx9.obj
 0002:000af0f0       ?SetQUALITY@depth_of_field_ps20b_Dynamic_Index@@QAEXH@Z 101c80f0 f i DepthOfField_dx9.obj
 0002:000af210       ?ShiftElementsRight@?$CUtlVector@PAVCShaderParam@DepthOfField_dx9@@V?$CUtlMemory@PAVCShaderParam@DepthOfField_dx9@@H@@@@IAEXHH@Z 101c8210 f i DepthOfField_dx9.obj
 0002:000af3b0       ?ValidateGrowSize@?$CUtlMemory@PAVCShaderParam@DepthOfField@@H@@IAEXXZ 101c83b0 f i DepthOfField_dx9.obj
 0002:000af3f0       ?ValidateGrowSize@?$CUtlMemory@PAVCShaderParam@DepthOfField_dx9@@H@@IAEXXZ 101c83f0 f i DepthOfField_dx9.obj
 0002:000af430       ??$CopyConstruct@PAVCShaderParam@DepthWrite@@@@YAPAPAVCShaderParam@DepthWrite@@PAPAV01@ABQAV01@@Z 101c8430 f i depthwrite.obj
 0002:000af4d0       ??$Destruct@PAVCShaderParam@DepthWrite@@@@YAXPAPAVCShaderParam@DepthWrite@@@Z 101c84d0 f i depthwrite.obj
 0002:000af530       ??$MemAllocClassName@V?$CUtlMemory@PAVCShaderParam@DepthWrite@@H@@@@YAPBDPAV?$CUtlMemory@PAVCShaderParam@DepthWrite@@H@@@Z 101c8530 f i depthwrite.obj
 0002:000af5b0       ??$MemAllocClassName@V?$CUtlVector@PAVCShaderParam@DepthWrite@@V?$CUtlMemory@PAVCShaderParam@DepthWrite@@H@@@@@@YAPBDPAV?$CUtlVector@PAVCShaderParam@DepthWrite@@V?$CUtlMemory@PAVCShaderParam@DepthWrite@@H@@@@@Z 101c85b0 f i depthwrite.obj
 0002:000af630       ??0?$CUtlMemory@PAVCShaderParam@DepthWrite@@H@@QAE@HH@Z 101c8630 f i depthwrite.obj
 0002:000af820       ??0?$CUtlVector@PAVCShaderParam@DepthWrite@@V?$CUtlMemory@PAVCShaderParam@DepthWrite@@H@@@@QAE@HH@Z 101c8820 f i depthwrite.obj
 0002:000af8a0       ??0CShader@DepthWrite@@QAE@XZ 101c88a0 f i depthwrite.obj
 0002:000af900       ??0CShaderParam@DepthWrite@@QAE@PBDW4ShaderParamType_t@@00H@Z 101c8900 f i depthwrite.obj
 0002:000af9c0       ??0depthwrite_ps20b_Dynamic_Index@@QAE@PAVIShaderDynamicAPI@@@Z 101c89c0 f i depthwrite.obj
 0002:000afa10       ??0depthwrite_ps20b_Static_Index@@QAE@PAVIShaderShadow@@PAPAVIMaterialVar@@@Z 101c8a10 f i depthwrite.obj
 0002:000afa50       ??0depthwrite_ps30_Dynamic_Index@@QAE@PAVIShaderDynamicAPI@@@Z 101c8a50 f i depthwrite.obj
 0002:000afaa0       ??0depthwrite_ps30_Static_Index@@QAE@PAVIShaderShadow@@PAPAVIMaterialVar@@@Z 101c8aa0 f i depthwrite.obj
 0002:000afae0       ??0depthwrite_vs20_Dynamic_Index@@QAE@PAVIShaderDynamicAPI@@@Z 101c8ae0 f i depthwrite.obj
 0002:000afb60       ??0depthwrite_vs20_Static_Index@@QAE@PAVIShaderShadow@@PAPAVIMaterialVar@@@Z 101c8b60 f i depthwrite.obj
 0002:000afbd0       ??0depthwrite_vs30_Dynamic_Index@@QAE@PAVIShaderDynamicAPI@@@Z 101c8bd0 f i depthwrite.obj
 0002:000afc90       ??0depthwrite_vs30_Static_Index@@QAE@PAVIShaderShadow@@PAPAVIMaterialVar@@@Z 101c8c90 f i depthwrite.obj
 0002:000afd00       ??1?$CUtlMemory@PAVCShaderParam@DepthWrite@@H@@QAE@XZ 101c8d00 f i depthwrite.obj
 0002:000afd50       ??1?$CUtlVector@PAVCShaderParam@DepthWrite@@V?$CUtlMemory@PAVCShaderParam@DepthWrite@@H@@@@QAE@XZ 101c8d50 f i depthwrite.obj
 0002:000afdb0       ??A?$CUtlMemory@PAVCShaderParam@DepthWrite@@H@@QAEAAPAVCShaderParam@DepthWrite@@H@Z 101c8db0 f i depthwrite.obj
 0002:000affb0       ??A?$CUtlVector@PAVCShaderParam@DepthWrite@@V?$CUtlMemory@PAVCShaderParam@DepthWrite@@H@@@@QAEAAPAVCShaderParam@DepthWrite@@H@Z 101c8fb0 f i depthwrite.obj
 0002:000b00e0       ??BCShaderParam@DepthWrite@@QAEHXZ 101c90e0 f i depthwrite.obj
 0002:000b0120       ?AddToTail@?$CUtlVector@PAVCShaderParam@DepthWrite@@V?$CUtlMemory@PAVCShaderParam@DepthWrite@@H@@@@QAEHABQAVCShaderParam@DepthWrite@@@Z 101c9120 f i depthwrite.obj
 0002:000b0290       ?Base@?$CUtlMemory@PAVCShaderParam@DepthWrite@@H@@QAEPAPAVCShaderParam@DepthWrite@@XZ 101c9290 f i depthwrite.obj
 0002:000b03b0       ?Base@?$CUtlVector@PAVCShaderParam@DepthWrite@@V?$CUtlMemory@PAVCShaderParam@DepthWrite@@H@@@@QAEPAPAVCShaderParam@DepthWrite@@XZ 101c93b0 f i depthwrite.obj
 0002:000b0400       ?Count@?$CUtlVector@PAVCShaderParam@DepthWrite@@V?$CUtlMemory@PAVCShaderParam@DepthWrite@@H@@@@QBEHXZ 101c9400 f i depthwrite.obj
 0002:000b0440       ?Element@?$CUtlVector@PAVCShaderParam@DepthWrite@@V?$CUtlMemory@PAVCShaderParam@DepthWrite@@H@@@@QAEAAPAVCShaderParam@DepthWrite@@H@Z 101c9440 f i depthwrite.obj
 0002:000b0570       ?GetFallbackShader@CShader@DepthWrite@@UBEPBDPAPAVIMaterialVar@@@Z 101c9570 f i depthwrite.obj
 0002:000b05b0       ?GetFlags@CShader@DepthWrite@@UBEHXZ 101c95b0 f i depthwrite.obj
 0002:000b05f0       ?GetFloatParam@@YAMHPAPAVIMaterialVar@@M@Z 101c95f0 f i depthwrite.obj
 0002:000b0670       ?GetIndex@depthwrite_ps20b_Dynamic_Index@@QAEHXZ 101c9670 f i depthwrite.obj
 0002:000b0790       ?GetIndex@depthwrite_ps20b_Static_Index@@QAEHXZ 101c9790 f i depthwrite.obj
 0002:000b07d0       ?GetIndex@depthwrite_ps30_Dynamic_Index@@QAEHXZ 101c97d0 f i depthwrite.obj
 0002:000b08f0       ?GetIndex@depthwrite_ps30_Static_Index@@QAEHXZ 101c98f0 f i depthwrite.obj
 0002:000b0930       ?GetIndex@depthwrite_vs20_Dynamic_Index@@QAEHXZ 101c9930 f i depthwrite.obj
 0002:000b0ab0       ?GetIndex@depthwrite_vs20_Static_Index@@QAEHXZ 101c9ab0 f i depthwrite.obj
 0002:000b0c10       ?GetIndex@depthwrite_vs30_Dynamic_Index@@QAEHXZ 101c9c10 f i depthwrite.obj
 0002:000b0db0       ?GetIndex@depthwrite_vs30_Static_Index@@QAEHXZ 101c9db0 f i depthwrite.obj
 0002:000b0f10       ?GetInfo@CShaderParam@DepthWrite@@QBEABUShaderParamInfo_t@@XZ 101c9f10 f i depthwrite.obj
 0002:000b0f50       ?GetName@CShader@DepthWrite@@UBEPBDXZ 101c9f50 f i depthwrite.obj
 0002:000b0f90       ?GetParamCount@CShader@DepthWrite@@UBEHXZ 101c9f90 f i depthwrite.obj
 0002:000b0ff0       ?GetParamInfo@CShader@DepthWrite@@UBEABUShaderParamInfo_t@@H@Z 101c9ff0 f i depthwrite.obj
 0002:000b1090       ?Grow@?$CUtlMemory@PAVCShaderParam@DepthWrite@@H@@QAEXH@Z 101ca090 f i depthwrite.obj
 0002:000b1700       ?GrowVector@?$CUtlVector@PAVCShaderParam@DepthWrite@@V?$CUtlMemory@PAVCShaderParam@DepthWrite@@H@@@@IAEXH@Z 101ca700 f i depthwrite.obj
 0002:000b1820       ?InsertBefore@?$CUtlVector@PAVCShaderParam@DepthWrite@@V?$CUtlMemory@PAVCShaderParam@DepthWrite@@H@@@@QAEHHABQAVCShaderParam@DepthWrite@@@Z 101ca820 f i depthwrite.obj
 0002:000b1aa0       ?IsExternallyAllocated@?$CUtlMemory@PAVCShaderParam@DepthWrite@@H@@QBE_NXZ 101caaa0 f i depthwrite.obj
 0002:000b1b10       ?IsIdxValid@?$CUtlMemory@PAVCShaderParam@DepthWrite@@H@@QBE_NH@Z 101cab10 f i depthwrite.obj
 0002:000b1b90       ?IsReadOnly@?$CUtlMemory@PAVCShaderParam@DepthWrite@@H@@QBE_NXZ 101cab90 f i depthwrite.obj
 0002:000b1c00       ?IsValidIndex@?$CUtlVector@PAVCShaderParam@DepthWrite@@V?$CUtlMemory@PAVCShaderParam@DepthWrite@@H@@@@QBE_NH@Z 101cac00 f i depthwrite.obj
 0002:000b1c70       ?NumAllocated@?$CUtlMemory@PAVCShaderParam@DepthWrite@@H@@QBEHXZ 101cac70 f i depthwrite.obj
 0002:000b1cb0       ?OnDrawElements@CShader@DepthWrite@@UAEXPAPAVIMaterialVar@@PAVIShaderShadow@@PAVIShaderDynamicAPI@@W4VertexCompressionType_t@@PAPAVCBasePerMaterialContextData@@@Z 101cacb0 f i depthwrite.obj
 0002:000b3c10       ?OnInitShaderInstance@CShader@DepthWrite@@UAEXPAPAVIMaterialVar@@PAVIShaderInit@@PBD@Z 101ccc10 f i depthwrite.obj
 0002:000b3cc0       ?OnInitShaderParams@CShader@DepthWrite@@UAEXPAPAVIMaterialVar@@PBD@Z 101cccc0 f i depthwrite.obj
 0002:000b3d20       ?Purge@?$CUtlMemory@PAVCShaderParam@DepthWrite@@H@@QAEXXZ 101ccd20 f i depthwrite.obj
 0002:000b3dd0       ?Purge@?$CUtlVector@PAVCShaderParam@DepthWrite@@V?$CUtlMemory@PAVCShaderParam@DepthWrite@@H@@@@QAEXXZ 101ccdd0 f i depthwrite.obj
 0002:000b3e40       ?RemoveAll@?$CUtlVector@PAVCShaderParam@DepthWrite@@V?$CUtlMemory@PAVCShaderParam@DepthWrite@@H@@@@QAEXXZ 101cce40 f i depthwrite.obj
 0002:000b3ed0       ?ResetDbgInfo@?$CUtlVector@PAVCShaderParam@DepthWrite@@V?$CUtlMemory@PAVCShaderParam@DepthWrite@@H@@@@IAEXXZ 101cced0 f i depthwrite.obj
 0002:000b3f30       ?SetALPHACLIP@depthwrite_ps20b_Dynamic_Index@@QAEX_N@Z 101ccf30 f i depthwrite.obj
 0002:000b3fb0       ?SetALPHACLIP@depthwrite_ps30_Dynamic_Index@@QAEX_N@Z 101ccfb0 f i depthwrite.obj
 0002:000b4030       ?SetCOMPRESSED_VERTS@depthwrite_vs20_Dynamic_Index@@QAEXH@Z 101cd030 f i depthwrite.obj
 0002:000b4150       ?SetCOMPRESSED_VERTS@depthwrite_vs30_Dynamic_Index@@QAEX_N@Z 101cd150 f i depthwrite.obj
 0002:000b41d0       ?SetONLY_PROJECT_POSITION@depthwrite_vs20_Static_Index@@QAEX_N@Z 101cd1d0 f i depthwrite.obj
 0002:000b4250       ?SetONLY_PROJECT_POSITION@depthwrite_vs30_Static_Index@@QAEXH@Z 101cd250 f i depthwrite.obj
 0002:000b4370       ?SetSKINNING@depthwrite_vs20_Dynamic_Index@@QAEX_N@Z 101cd370 f i depthwrite.obj
 0002:000b43f0       ?SetSKINNING@depthwrite_vs30_Dynamic_Index@@QAEX_N@Z 101cd3f0 f i depthwrite.obj
 0002:000b4470       ?SetTESSELLATION@depthwrite_vs20_Dynamic_Index@@QAEXH@Z 101cd470 f i depthwrite.obj
 0002:000b4590       ?SetTESSELLATION@depthwrite_vs30_Dynamic_Index@@QAEXH@Z 101cd590 f i depthwrite.obj
 0002:000b46c0       ?SetTREESWAY@depthwrite_vs20_Static_Index@@QAEXH@Z 101cd6c0 f i depthwrite.obj
 0002:000b47e0       ?SetTREESWAY@depthwrite_vs30_Static_Index@@QAEXH@Z 101cd7e0 f i depthwrite.obj
 0002:000b4900       ?ShiftElementsRight@?$CUtlVector@PAVCShaderParam@DepthWrite@@V?$CUtlMemory@PAVCShaderParam@DepthWrite@@H@@@@IAEXHH@Z 101cd900 f i depthwrite.obj
 0002:000b4aa0       ?ValidateGrowSize@?$CUtlMemory@PAVCShaderParam@DepthWrite@@H@@IAEXXZ 101cdaa0 f i depthwrite.obj
 0002:000b4ae0       ??$Destruct@PAVCShaderParam@Downsample@@@@YAXPAPAVCShaderParam@Downsample@@@Z 101cdae0 f i Downsample.obj
 0002:000b4b40       ??$MemAllocClassName@V?$CUtlMemory@PAVCShaderParam@Downsample@@H@@@@YAPBDPAV?$CUtlMemory@PAVCShaderParam@Downsample@@H@@@Z 101cdb40 f i Downsample.obj
 0002:000b4bc0       ??0?$CUtlMemory@PAVCShaderParam@Downsample@@H@@QAE@HH@Z 101cdbc0 f i Downsample.obj
 0002:000b4db0       ??0?$CUtlVector@PAVCShaderParam@Downsample@@V?$CUtlMemory@PAVCShaderParam@Downsample@@H@@@@QAE@HH@Z 101cddb0 f i Downsample.obj
 0002:000b4e30       ??0CShader@Downsample@@QAE@XZ 101cde30 f i Downsample.obj
 0002:000b4e90       ??0downsample_ps20b_Dynamic_Index@@QAE@PAVIShaderDynamicAPI@@@Z 101cde90 f i Downsample.obj
 0002:000b4ed0       ??0downsample_ps20b_Static_Index@@QAE@PAVIShaderShadow@@PAPAVIMaterialVar@@@Z 101cded0 f i Downsample.obj
 0002:000b4f10       ??1?$CUtlMemory@PAVCShaderParam@Downsample@@H@@QAE@XZ 101cdf10 f i Downsample.obj
 0002:000b4f60       ??1?$CUtlVector@PAVCShaderParam@Downsample@@V?$CUtlMemory@PAVCShaderParam@Downsample@@H@@@@QAE@XZ 101cdf60 f i Downsample.obj
 0002:000b4fc0       ??A?$CUtlMemory@PAVCShaderParam@Downsample@@H@@QAEAAPAVCShaderParam@Downsample@@H@Z 101cdfc0 f i Downsample.obj
 0002:000b51c0       ??A?$CUtlVector@PAVCShaderParam@Downsample@@V?$CUtlMemory@PAVCShaderParam@Downsample@@H@@@@QAEAAPAVCShaderParam@Downsample@@H@Z 101ce1c0 f i Downsample.obj
 0002:000b52f0       ?Base@?$CUtlMemory@PAVCShaderParam@Downsample@@H@@QAEPAPAVCShaderParam@Downsample@@XZ 101ce2f0 f i Downsample.obj
 0002:000b5410       ?Base@?$CUtlVector@PAVCShaderParam@Downsample@@V?$CUtlMemory@PAVCShaderParam@Downsample@@H@@@@QAEPAPAVCShaderParam@Downsample@@XZ 101ce410 f i Downsample.obj
 0002:000b5460       ?Count@?$CUtlVector@PAVCShaderParam@Downsample@@V?$CUtlMemory@PAVCShaderParam@Downsample@@H@@@@QBEHXZ 101ce460 f i Downsample.obj
 0002:000b54a0       ?Element@?$CUtlVector@PAVCShaderParam@Downsample@@V?$CUtlMemory@PAVCShaderParam@Downsample@@H@@@@QAEAAPAVCShaderParam@Downsample@@H@Z 101ce4a0 f i Downsample.obj
 0002:000b55d0       ?GetFallbackShader@CShader@Downsample@@UBEPBDPAPAVIMaterialVar@@@Z 101ce5d0 f i Downsample.obj
 0002:000b5610       ?GetFlags@CShader@Downsample@@UBEHXZ 101ce610 f i Downsample.obj
 0002:000b5650       ?GetIndex@downsample_ps20b_Dynamic_Index@@QAEHXZ 101ce650 f i Downsample.obj
 0002:000b5690       ?GetIndex@downsample_ps20b_Static_Index@@QAEHXZ 101ce690 f i Downsample.obj
 0002:000b56d0       ?GetInfo@CShaderParam@Downsample@@QBEABUShaderParamInfo_t@@XZ 101ce6d0 f i Downsample.obj
 0002:000b5710       ?GetName@CShader@Downsample@@UBEPBDXZ 101ce710 f i Downsample.obj
 0002:000b5750       ?GetParamCount@CShader@Downsample@@UBEHXZ 101ce750 f i Downsample.obj
 0002:000b57b0       ?GetParamInfo@CShader@Downsample@@UBEABUShaderParamInfo_t@@H@Z 101ce7b0 f i Downsample.obj
 0002:000b5850       ?IsExternallyAllocated@?$CUtlMemory@PAVCShaderParam@Downsample@@H@@QBE_NXZ 101ce850 f i Downsample.obj
 0002:000b58c0       ?IsIdxValid@?$CUtlMemory@PAVCShaderParam@Downsample@@H@@QBE_NH@Z 101ce8c0 f i Downsample.obj
 0002:000b5940       ?IsReadOnly@?$CUtlMemory@PAVCShaderParam@Downsample@@H@@QBE_NXZ 101ce940 f i Downsample.obj
 0002:000b59b0       ?OnDrawElements@CShader@Downsample@@UAEXPAPAVIMaterialVar@@PAVIShaderShadow@@PAVIShaderDynamicAPI@@W4VertexCompressionType_t@@PAPAVCBasePerMaterialContextData@@@Z 101ce9b0 f i Downsample.obj
 0002:000b5f50       ?OnInitShaderInstance@CShader@Downsample@@UAEXPAPAVIMaterialVar@@PAVIShaderInit@@PBD@Z 101cef50 f i Downsample.obj
 0002:000b5fb0       ?Purge@?$CUtlMemory@PAVCShaderParam@Downsample@@H@@QAEXXZ 101cefb0 f i Downsample.obj
 0002:000b6060       ?Purge@?$CUtlVector@PAVCShaderParam@Downsample@@V?$CUtlMemory@PAVCShaderParam@Downsample@@H@@@@QAEXXZ 101cf060 f i Downsample.obj
 0002:000b60d0       ?RemoveAll@?$CUtlVector@PAVCShaderParam@Downsample@@V?$CUtlMemory@PAVCShaderParam@Downsample@@H@@@@QAEXXZ 101cf0d0 f i Downsample.obj
 0002:000b6160       ?ResetDbgInfo@?$CUtlVector@PAVCShaderParam@Downsample@@V?$CUtlMemory@PAVCShaderParam@Downsample@@H@@@@IAEXXZ 101cf160 f i Downsample.obj
 0002:000b61c0       ?ValidateGrowSize@?$CUtlMemory@PAVCShaderParam@Downsample@@H@@IAEXXZ 101cf1c0 f i Downsample.obj
 0002:000b6200       ??$CopyConstruct@PAVCShaderParam@Downsample_nohdr@@@@YAPAPAVCShaderParam@Downsample_nohdr@@PAPAV01@ABQAV01@@Z 101cf200 f i downsample_nohdr.obj
 0002:000b62a0       ??$Destruct@PAVCShaderParam@Downsample_nohdr@@@@YAXPAPAVCShaderParam@Downsample_nohdr@@@Z 101cf2a0 f i downsample_nohdr.obj
 0002:000b6300       ??$MemAllocClassName@V?$CUtlMemory@PAVCShaderParam@Downsample_nohdr@@H@@@@YAPBDPAV?$CUtlMemory@PAVCShaderParam@Downsample_nohdr@@H@@@Z 101cf300 f i downsample_nohdr.obj
 0002:000b6380       ??$MemAllocClassName@V?$CUtlVector@PAVCShaderParam@Downsample_nohdr@@V?$CUtlMemory@PAVCShaderParam@Downsample_nohdr@@H@@@@@@YAPBDPAV?$CUtlVector@PAVCShaderParam@Downsample_nohdr@@V?$CUtlMemory@PAVCShaderParam@Downsample_nohdr@@H@@@@@Z 101cf380 f i downsample_nohdr.obj
 0002:000b6400       ??0?$CUtlMemory@PAVCShaderParam@Downsample_nohdr@@H@@QAE@HH@Z 101cf400 f i downsample_nohdr.obj
 0002:000b65f0       ??0?$CUtlVector@PAVCShaderParam@Downsample_nohdr@@V?$CUtlMemory@PAVCShaderParam@Downsample_nohdr@@H@@@@QAE@HH@Z 101cf5f0 f i downsample_nohdr.obj
 0002:000b6670       ??0CShader@Downsample_nohdr@@QAE@XZ 101cf670 f i downsample_nohdr.obj
 0002:000b66d0       ??0CShaderParam@Downsample_nohdr@@QAE@PBDW4ShaderParamType_t@@00H@Z 101cf6d0 f i downsample_nohdr.obj
 0002:000b6790       ??0downsample_nohdr_ps20b_Dynamic_Index@@QAE@PAVIShaderDynamicAPI@@@Z 101cf790 f i downsample_nohdr.obj
 0002:000b67e0       ??0downsample_nohdr_ps20b_Static_Index@@QAE@PAVIShaderShadow@@PAPAVIMaterialVar@@@Z 101cf7e0 f i downsample_nohdr.obj
 0002:000b6830       ??1?$CUtlMemory@PAVCShaderParam@Downsample_nohdr@@H@@QAE@XZ 101cf830 f i downsample_nohdr.obj
 0002:000b6880       ??1?$CUtlVector@PAVCShaderParam@Downsample_nohdr@@V?$CUtlMemory@PAVCShaderParam@Downsample_nohdr@@H@@@@QAE@XZ 101cf880 f i downsample_nohdr.obj
 0002:000b68e0       ??A?$CUtlMemory@PAVCShaderParam@Downsample_nohdr@@H@@QAEAAPAVCShaderParam@Downsample_nohdr@@H@Z 101cf8e0 f i downsample_nohdr.obj
 0002:000b6ae0       ??A?$CUtlVector@PAVCShaderParam@Downsample_nohdr@@V?$CUtlMemory@PAVCShaderParam@Downsample_nohdr@@H@@@@QAEAAPAVCShaderParam@Downsample_nohdr@@H@Z 101cfae0 f i downsample_nohdr.obj
 0002:000b6c10       ??BCShaderParam@Downsample_nohdr@@QAEHXZ 101cfc10 f i downsample_nohdr.obj
 0002:000b6c50       ?AddToTail@?$CUtlVector@PAVCShaderParam@Downsample_nohdr@@V?$CUtlMemory@PAVCShaderParam@Downsample_nohdr@@H@@@@QAEHABQAVCShaderParam@Downsample_nohdr@@@Z 101cfc50 f i downsample_nohdr.obj
 0002:000b6dc0       ?Base@?$CUtlMemory@PAVCShaderParam@Downsample_nohdr@@H@@QAEPAPAVCShaderParam@Downsample_nohdr@@XZ 101cfdc0 f i downsample_nohdr.obj
 0002:000b6ee0       ?Base@?$CUtlVector@PAVCShaderParam@Downsample_nohdr@@V?$CUtlMemory@PAVCShaderParam@Downsample_nohdr@@H@@@@QAEPAPAVCShaderParam@Downsample_nohdr@@XZ 101cfee0 f i downsample_nohdr.obj
 0002:000b6f30       ?Count@?$CUtlVector@PAVCShaderParam@Downsample_nohdr@@V?$CUtlMemory@PAVCShaderParam@Downsample_nohdr@@H@@@@QBEHXZ 101cff30 f i downsample_nohdr.obj
 0002:000b6f70       ?Element@?$CUtlVector@PAVCShaderParam@Downsample_nohdr@@V?$CUtlMemory@PAVCShaderParam@Downsample_nohdr@@H@@@@QAEAAPAVCShaderParam@Downsample_nohdr@@H@Z 101cff70 f i downsample_nohdr.obj
 0002:000b70a0       ?GetFallbackShader@CShader@Downsample_nohdr@@UBEPBDPAPAVIMaterialVar@@@Z 101d00a0 f i downsample_nohdr.obj
 0002:000b70e0       ?GetFlags@CShader@Downsample_nohdr@@UBEHXZ 101d00e0 f i downsample_nohdr.obj
 0002:000b7120       ?GetIndex@downsample_nohdr_ps20b_Dynamic_Index@@QAEHXZ 101d0120 f i downsample_nohdr.obj
 0002:000b7240       ?GetIndex@downsample_nohdr_ps20b_Static_Index@@QAEHXZ 101d0240 f i downsample_nohdr.obj
 0002:000b7360       ?GetInfo@CShaderParam@Downsample_nohdr@@QBEABUShaderParamInfo_t@@XZ 101d0360 f i downsample_nohdr.obj
 0002:000b73a0       ?GetName@CShader@Downsample_nohdr@@UBEPBDXZ 101d03a0 f i downsample_nohdr.obj
 0002:000b73e0       ?GetParamCount@CShader@Downsample_nohdr@@UBEHXZ 101d03e0 f i downsample_nohdr.obj
 0002:000b7440       ?GetParamInfo@CShader@Downsample_nohdr@@UBEABUShaderParamInfo_t@@H@Z 101d0440 f i downsample_nohdr.obj
 0002:000b74e0       ?Grow@?$CUtlMemory@PAVCShaderParam@Downsample_nohdr@@H@@QAEXH@Z 101d04e0 f i downsample_nohdr.obj
 0002:000b7b50       ?GrowVector@?$CUtlVector@PAVCShaderParam@Downsample_nohdr@@V?$CUtlMemory@PAVCShaderParam@Downsample_nohdr@@H@@@@IAEXH@Z 101d0b50 f i downsample_nohdr.obj
 0002:000b7c70       ?InsertBefore@?$CUtlVector@PAVCShaderParam@Downsample_nohdr@@V?$CUtlMemory@PAVCShaderParam@Downsample_nohdr@@H@@@@QAEHHABQAVCShaderParam@Downsample_nohdr@@@Z 101d0c70 f i downsample_nohdr.obj
 0002:000b7ef0       ?IsExternallyAllocated@?$CUtlMemory@PAVCShaderParam@Downsample_nohdr@@H@@QBE_NXZ 101d0ef0 f i downsample_nohdr.obj
 0002:000b7f60       ?IsIdxValid@?$CUtlMemory@PAVCShaderParam@Downsample_nohdr@@H@@QBE_NH@Z 101d0f60 f i downsample_nohdr.obj
 0002:000b7fe0       ?IsReadOnly@?$CUtlMemory@PAVCShaderParam@Downsample_nohdr@@H@@QBE_NXZ 101d0fe0 f i downsample_nohdr.obj
 0002:000b8050       ?IsValidIndex@?$CUtlVector@PAVCShaderParam@Downsample_nohdr@@V?$CUtlMemory@PAVCShaderParam@Downsample_nohdr@@H@@@@QBE_NH@Z 101d1050 f i downsample_nohdr.obj
 0002:000b80c0       ?NumAllocated@?$CUtlMemory@PAVCShaderParam@Downsample_nohdr@@H@@QBEHXZ 101d10c0 f i downsample_nohdr.obj
 0002:000b8100       ?OnDrawElements@CShader@Downsample_nohdr@@UAEXPAPAVIMaterialVar@@PAVIShaderShadow@@PAVIShaderDynamicAPI@@W4VertexCompressionType_t@@PAPAVCBasePerMaterialContextData@@@Z 101d1100 f i downsample_nohdr.obj
 0002:000b8a60       ?OnInitShaderInstance@CShader@Downsample_nohdr@@UAEXPAPAVIMaterialVar@@PAVIShaderInit@@PBD@Z 101d1a60 f i downsample_nohdr.obj
 0002:000b8ac0       ?OnInitShaderParams@CShader@Downsample_nohdr@@UAEXPAPAVIMaterialVar@@PBD@Z 101d1ac0 f i downsample_nohdr.obj
 0002:000b8d80       ?Purge@?$CUtlMemory@PAVCShaderParam@Downsample_nohdr@@H@@QAEXXZ 101d1d80 f i downsample_nohdr.obj
 0002:000b8e30       ?Purge@?$CUtlVector@PAVCShaderParam@Downsample_nohdr@@V?$CUtlMemory@PAVCShaderParam@Downsample_nohdr@@H@@@@QAEXXZ 101d1e30 f i downsample_nohdr.obj
 0002:000b8ea0       ?RemoveAll@?$CUtlVector@PAVCShaderParam@Downsample_nohdr@@V?$CUtlMemory@PAVCShaderParam@Downsample_nohdr@@H@@@@QAEXXZ 101d1ea0 f i downsample_nohdr.obj
 0002:000b8f30       ?ResetDbgInfo@?$CUtlVector@PAVCShaderParam@Downsample_nohdr@@V?$CUtlMemory@PAVCShaderParam@Downsample_nohdr@@H@@@@IAEXXZ 101d1f30 f i downsample_nohdr.obj
 0002:000b8f90       ?SetBLOOMTYPE@downsample_nohdr_ps20b_Static_Index@@QAEXH@Z 101d1f90 f i downsample_nohdr.obj
 0002:000b90b0       ?SetFLOAT_BACK_BUFFER@downsample_nohdr_ps20b_Dynamic_Index@@QAEXH@Z 101d20b0 f i downsample_nohdr.obj
 0002:000b91d0       ?ShiftElementsRight@?$CUtlVector@PAVCShaderParam@Downsample_nohdr@@V?$CUtlMemory@PAVCShaderParam@Downsample_nohdr@@H@@@@IAEXHH@Z 101d21d0 f i downsample_nohdr.obj
 0002:000b9370       ?ValidateGrowSize@?$CUtlMemory@PAVCShaderParam@Downsample_nohdr@@H@@IAEXXZ 101d2370 f i downsample_nohdr.obj
 0002:000b93b0       ??0emissive_scroll_blended_pass_ps20b_Dynamic_Index@@QAE@PAVIShaderDynamicAPI@@@Z 101d23b0 f i emissive_scroll_blended_pass_helper.obj
 0002:000b93f0       ??0emissive_scroll_blended_pass_ps20b_Static_Index@@QAE@PAVIShaderShadow@@PAPAVIMaterialVar@@@Z 101d23f0 f i emissive_scroll_blended_pass_helper.obj
 0002:000b9430       ??0emissive_scroll_blended_pass_ps30_Dynamic_Index@@QAE@PAVIShaderDynamicAPI@@@Z 101d2430 f i emissive_scroll_blended_pass_helper.obj
 0002:000b9470       ??0emissive_scroll_blended_pass_ps30_Static_Index@@QAE@PAVIShaderShadow@@PAPAVIMaterialVar@@@Z 101d2470 f i emissive_scroll_blended_pass_helper.obj
 0002:000b94b0       ??0emissive_scroll_blended_pass_vs20_Dynamic_Index@@QAE@PAVIShaderDynamicAPI@@@Z 101d24b0 f i emissive_scroll_blended_pass_helper.obj
 0002:000b9520       ??0emissive_scroll_blended_pass_vs20_Static_Index@@QAE@PAVIShaderShadow@@PAPAVIMaterialVar@@@Z 101d2520 f i emissive_scroll_blended_pass_helper.obj
 0002:000b9560       ??0emissive_scroll_blended_pass_vs30_Dynamic_Index@@QAE@PAVIShaderDynamicAPI@@@Z 101d2560 f i emissive_scroll_blended_pass_helper.obj
 0002:000b9610       ??0emissive_scroll_blended_pass_vs30_Static_Index@@QAE@PAVIShaderShadow@@PAPAVIMaterialVar@@@Z 101d2610 f i emissive_scroll_blended_pass_helper.obj
 0002:000b9650       ?DrawEmissiveScrollBlendedPass@@YAXPAVCBaseVSShader@@PAPAVIMaterialVar@@PAVIShaderDynamicAPI@@PAVIShaderShadow@@AAUEmissiveScrollBlendedPassVars_t@@W4VertexCompressionType_t@@@Z 101d2650 f   emissive_scroll_blended_pass_helper.obj
 0002:000ba620       ?GetIndex@emissive_scroll_blended_pass_ps20b_Dynamic_Index@@QAEHXZ 101d3620 f i emissive_scroll_blended_pass_helper.obj
 0002:000ba660       ?GetIndex@emissive_scroll_blended_pass_ps20b_Static_Index@@QAEHXZ 101d3660 f i emissive_scroll_blended_pass_helper.obj
 0002:000ba6a0       ?GetIndex@emissive_scroll_blended_pass_ps30_Dynamic_Index@@QAEHXZ 101d36a0 f i emissive_scroll_blended_pass_helper.obj
 0002:000ba6e0       ?GetIndex@emissive_scroll_blended_pass_ps30_Static_Index@@QAEHXZ 101d36e0 f i emissive_scroll_blended_pass_helper.obj
 0002:000ba720       ?GetIndex@emissive_scroll_blended_pass_vs20_Dynamic_Index@@QAEHXZ 101d3720 f i emissive_scroll_blended_pass_helper.obj
 0002:000ba880       ?GetIndex@emissive_scroll_blended_pass_vs20_Static_Index@@QAEHXZ 101d3880 f i emissive_scroll_blended_pass_helper.obj
 0002:000ba8c0       ?GetIndex@emissive_scroll_blended_pass_vs30_Dynamic_Index@@QAEHXZ 101d38c0 f i emissive_scroll_blended_pass_helper.obj
 0002:000baa30       ?GetIndex@emissive_scroll_blended_pass_vs30_Static_Index@@QAEHXZ 101d3a30 f i emissive_scroll_blended_pass_helper.obj
 0002:000baa70       ?InitEmissiveScrollBlendedPass@@YAXPAVCBaseVSShader@@PAPAVIMaterialVar@@AAUEmissiveScrollBlendedPassVars_t@@@Z 101d3a70 f   emissive_scroll_blended_pass_helper.obj
 0002:000baaf0       ?InitParamsEmissiveScrollBlendedPass@@YAXPAVCBaseVSShader@@PAPAVIMaterialVar@@PBDAAUEmissiveScrollBlendedPassVars_t@@@Z 101d3af0 f   emissive_scroll_blended_pass_helper.obj
 0002:000bad60       ?SetCOMPRESSED_VERTS@emissive_scroll_blended_pass_vs20_Dynamic_Index@@QAEXH@Z 101d3d60 f i emissive_scroll_blended_pass_helper.obj
 0002:000bae80       ?SetCOMPRESSED_VERTS@emissive_scroll_blended_pass_vs30_Dynamic_Index@@QAEXH@Z 101d3e80 f i emissive_scroll_blended_pass_helper.obj
 0002:000bafa0       ?SetSKINNING@emissive_scroll_blended_pass_vs20_Dynamic_Index@@QAEX_N@Z 101d3fa0 f i emissive_scroll_blended_pass_helper.obj
 0002:000bb020       ?SetSKINNING@emissive_scroll_blended_pass_vs30_Dynamic_Index@@QAEX_N@Z 101d4020 f i emissive_scroll_blended_pass_helper.obj
 0002:000bb0a0       ??0CShaderEnginePostprocessInterface@@QAE@XZ 101d40a0 f   EnginePostInterface.obj
 0002:000bb260       ??0IBaseInterface@@QAE@XZ  101d4260 f i EnginePostInterface.obj
 0002:000bb2b0       ??0IShaderEnginePostprocessInterface@@QAE@XZ 101d42b0 f i EnginePostInterface.obj
 0002:000bb310       ??0castable_string_t@@QAE@PBD@Z 101d4310 f i EnginePostInterface.obj
 0002:000bb390       ??1CShaderEnginePostprocessInterface@@UAE@XZ 101d4390 f   EnginePostInterface.obj
 0002:000bb3f0       ??1IBaseInterface@@UAE@XZ  101d43f0 f i EnginePostInterface.obj
 0002:000bb430       ??1IShaderEnginePostprocessInterface@@UAE@XZ 101d4430 f i EnginePostInterface.obj
 0002:000bb480       ??_GCShaderEnginePostprocessInterface@@UAEPAXI@Z 101d4480 f i EnginePostInterface.obj
 0002:000bb480       ??_ECShaderEnginePostprocessInterface@@UAEPAXI@Z 101d4480 f i EnginePostInterface.obj
 0002:000bb4f0       ??_GIBaseInterface@@UAEPAXI@Z 101d44f0 f i EnginePostInterface.obj
 0002:000bb4f0       ??_EIBaseInterface@@UAEPAXI@Z 101d44f0 f i EnginePostInterface.obj
 0002:000bb560       ??_GIShaderEnginePostprocessInterface@@UAEPAXI@Z 101d4560 f i EnginePostInterface.obj
 0002:000bb560       ??_EIShaderEnginePostprocessInterface@@UAEPAXI@Z 101d4560 f i EnginePostInterface.obj
 0002:000bb5d0       ?Connect@CShaderEnginePostprocessInterface@@UAEXXZ 101d45d0 f   EnginePostInterface.obj
 0002:000bb640       ?GetNoiseTexture@CShaderEnginePostprocessInterface@@UAEPBDXZ 101d4640 f   EnginePostInterface.obj
 0002:000bb6a0       ?GetScreenTexture@CShaderEnginePostprocessInterface@@UAEPBDXZ 101d46a0 f   EnginePostInterface.obj
 0002:000bb700       ?IsBlurredVignetteEnabled@CShaderEnginePostprocessInterface@@UAE_NXZ 101d4700 f i EnginePostInterface.obj
 0002:000bb740       ?IsDesaturateEnabled@CShaderEnginePostprocessInterface@@UAE_NXZ 101d4740 f i EnginePostInterface.obj
 0002:000bb780       ?IsDofEnabled@CShaderEnginePostprocessInterface@@UAE_NXZ 101d4780 f i EnginePostInterface.obj
 0002:000bb7c0       ?IsLocalContrastEnabled@CShaderEnginePostprocessInterface@@UAE_NXZ 101d47c0 f i EnginePostInterface.obj
 0002:000bb800       ?IsNoiseEnabled@CShaderEnginePostprocessInterface@@UAE_NXZ 101d4800 f i EnginePostInterface.obj
 0002:000bb840       ?IsScreenEffectEnabled@CShaderEnginePostprocessInterface@@UAE_NXZ 101d4840 f i EnginePostInterface.obj
 0002:000bb880       ?IsVignetteEnabled@CShaderEnginePostprocessInterface@@UAE_NXZ 101d4880 f i EnginePostInterface.obj
 0002:000bb8c0       ?SetBlurredVignetteEnabled@CShaderEnginePostprocessInterface@@UAEX_N@Z 101d48c0 f i EnginePostInterface.obj
 0002:000bb910       ?SetDesaturateEnabled@CShaderEnginePostprocessInterface@@UAEX_N@Z 101d4910 f i EnginePostInterface.obj
 0002:000bb960       ?SetDofEnabled@CShaderEnginePostprocessInterface@@UAEX_N@Z 101d4960 f i EnginePostInterface.obj
 0002:000bb9b0       ?SetFloatArrayValue@CShaderEnginePostprocessInterface@@UAEXPAMHPBD@Z 101d49b0 f   EnginePostInterface.obj
 0002:000bbd50       ?SetLocalContrastEnabled@CShaderEnginePostprocessInterface@@UAEX_N@Z 101d4d50 f i EnginePostInterface.obj
 0002:000bbda0       ?SetNoiseEnabled@CShaderEnginePostprocessInterface@@UAEX_N@Z 101d4da0 f i EnginePostInterface.obj
 0002:000bbdf0       ?SetNoiseTexture@CShaderEnginePostprocessInterface@@UAEXPBD@Z 101d4df0 f   EnginePostInterface.obj
 0002:000bbe60       ?SetScreenEffectEnabled@CShaderEnginePostprocessInterface@@UAEX_N@Z 101d4e60 f i EnginePostInterface.obj
 0002:000bbeb0       ?SetScreenTexture@CShaderEnginePostprocessInterface@@UAEXPBD@Z 101d4eb0 f   EnginePostInterface.obj
 0002:000bbf20       ?SetTextureParamIfNeeded@CShaderEnginePostprocessInterface@@UAEXPAVCBaseShader@@PAPAVIMaterialVar@@HPBD@Z 101d4f20 f   EnginePostInterface.obj
 0002:000bc090       ?SetVignetteEnabled@CShaderEnginePostprocessInterface@@UAEX_N@Z 101d5090 f i EnginePostInterface.obj
 0002:000bc0e0       ?ToCStr@string_t@@QBEPBDXZ 101d50e0 f i EnginePostInterface.obj
 0002:000bc150       ?UpdateFloatArrayIfNeeded@CShaderEnginePostprocessInterface@@UAEXPAMHPBD@Z 101d5150 f   EnginePostInterface.obj
 0002:000bc350       ??$CopyConstruct@PAVCShaderParam@Engine_Post_dx9@@@@YAPAPAVCShaderParam@Engine_Post_dx9@@PAPAV01@ABQAV01@@Z 101d5350 f i Engine_Post_dx9.obj
 0002:000bc3f0       ??$Destruct@PAVCShaderParam@Engine_Post@@@@YAXPAPAVCShaderParam@Engine_Post@@@Z 101d53f0 f i Engine_Post_dx9.obj
 0002:000bc450       ??$Destruct@PAVCShaderParam@Engine_Post_dx9@@@@YAXPAPAVCShaderParam@Engine_Post_dx9@@@Z 101d5450 f i Engine_Post_dx9.obj
 0002:000bc4b0       ??$MemAllocClassName@V?$CUtlMemory@PAVCShaderParam@Engine_Post@@H@@@@YAPBDPAV?$CUtlMemory@PAVCShaderParam@Engine_Post@@H@@@Z 101d54b0 f i Engine_Post_dx9.obj
 0002:000bc530       ??$MemAllocClassName@V?$CUtlMemory@PAVCShaderParam@Engine_Post_dx9@@H@@@@YAPBDPAV?$CUtlMemory@PAVCShaderParam@Engine_Post_dx9@@H@@@Z 101d5530 f i Engine_Post_dx9.obj
 0002:000bc5b0       ??$MemAllocClassName@V?$CUtlVector@PAVCShaderParam@Engine_Post_dx9@@V?$CUtlMemory@PAVCShaderParam@Engine_Post_dx9@@H@@@@@@YAPBDPAV?$CUtlVector@PAVCShaderParam@Engine_Post_dx9@@V?$CUtlMemory@PAVCShaderParam@Engine_Post_dx9@@H@@@@@Z 101d55b0 f i Engine_Post_dx9.obj
 0002:000bc630       ??0?$CUtlMemory@PAVCShaderParam@Engine_Post@@H@@QAE@HH@Z 101d5630 f i Engine_Post_dx9.obj
 0002:000bc820       ??0?$CUtlMemory@PAVCShaderParam@Engine_Post_dx9@@H@@QAE@HH@Z 101d5820 f i Engine_Post_dx9.obj
 0002:000bca10       ??0?$CUtlVector@PAVCShaderParam@Engine_Post@@V?$CUtlMemory@PAVCShaderParam@Engine_Post@@H@@@@QAE@HH@Z 101d5a10 f i Engine_Post_dx9.obj
 0002:000bca90       ??0?$CUtlVector@PAVCShaderParam@Engine_Post_dx9@@V?$CUtlMemory@PAVCShaderParam@Engine_Post_dx9@@H@@@@QAE@HH@Z 101d5a90 f i Engine_Post_dx9.obj
 0002:000bcb10       ??0CShader@Engine_Post@@QAE@XZ 101d5b10 f i Engine_Post_dx9.obj
 0002:000bcb70       ??0CShader@Engine_Post_dx9@@QAE@XZ 101d5b70 f i Engine_Post_dx9.obj
 0002:000bcbd0       ??0CShaderParam@Engine_Post_dx9@@QAE@PBDW4ShaderParamType_t@@00H@Z 101d5bd0 f i Engine_Post_dx9.obj
 0002:000bcc90       ??0engine_post_ps20b_Dynamic_Index@@QAE@PAVIShaderDynamicAPI@@@Z 101d5c90 f i Engine_Post_dx9.obj
 0002:000bcdc0       ??0engine_post_ps20b_Static_Index@@QAE@PAVIShaderShadow@@PAPAVIMaterialVar@@@Z 101d5dc0 f i Engine_Post_dx9.obj
 0002:000bce30       ??1?$CUtlMemory@PAVCShaderParam@Engine_Post@@H@@QAE@XZ 101d5e30 f i Engine_Post_dx9.obj
 0002:000bce80       ??1?$CUtlMemory@PAVCShaderParam@Engine_Post_dx9@@H@@QAE@XZ 101d5e80 f i Engine_Post_dx9.obj
 0002:000bced0       ??1?$CUtlVector@PAVCShaderParam@Engine_Post@@V?$CUtlMemory@PAVCShaderParam@Engine_Post@@H@@@@QAE@XZ 101d5ed0 f i Engine_Post_dx9.obj
 0002:000bcf30       ??1?$CUtlVector@PAVCShaderParam@Engine_Post_dx9@@V?$CUtlMemory@PAVCShaderParam@Engine_Post_dx9@@H@@@@QAE@XZ 101d5f30 f i Engine_Post_dx9.obj
 0002:000bcf90       ??A?$CUtlMemory@PAVCShaderParam@Engine_Post@@H@@QAEAAPAVCShaderParam@Engine_Post@@H@Z 101d5f90 f i Engine_Post_dx9.obj
 0002:000bd190       ??A?$CUtlMemory@PAVCShaderParam@Engine_Post_dx9@@H@@QAEAAPAVCShaderParam@Engine_Post_dx9@@H@Z 101d6190 f i Engine_Post_dx9.obj
 0002:000bd390       ??A?$CUtlVector@PAVCShaderParam@Engine_Post@@V?$CUtlMemory@PAVCShaderParam@Engine_Post@@H@@@@QAEAAPAVCShaderParam@Engine_Post@@H@Z 101d6390 f i Engine_Post_dx9.obj
 0002:000bd4c0       ??A?$CUtlVector@PAVCShaderParam@Engine_Post_dx9@@V?$CUtlMemory@PAVCShaderParam@Engine_Post_dx9@@H@@@@QAEAAPAVCShaderParam@Engine_Post_dx9@@H@Z 101d64c0 f i Engine_Post_dx9.obj
 0002:000bd5f0       ??BCShaderParam@Engine_Post_dx9@@QAEHXZ 101d65f0 f i Engine_Post_dx9.obj
 0002:000bd630       ?AddToTail@?$CUtlVector@PAVCShaderParam@Engine_Post_dx9@@V?$CUtlMemory@PAVCShaderParam@Engine_Post_dx9@@H@@@@QAEHABQAVCShaderParam@Engine_Post_dx9@@@Z 101d6630 f i Engine_Post_dx9.obj
 0002:000bd7a0       ?Base@?$CUtlMemory@PAVCShaderParam@Engine_Post@@H@@QAEPAPAVCShaderParam@Engine_Post@@XZ 101d67a0 f i Engine_Post_dx9.obj
 0002:000bd8c0       ?Base@?$CUtlMemory@PAVCShaderParam@Engine_Post_dx9@@H@@QAEPAPAVCShaderParam@Engine_Post_dx9@@XZ 101d68c0 f i Engine_Post_dx9.obj
 0002:000bd9e0       ?Base@?$CUtlVector@PAVCShaderParam@Engine_Post@@V?$CUtlMemory@PAVCShaderParam@Engine_Post@@H@@@@QAEPAPAVCShaderParam@Engine_Post@@XZ 101d69e0 f i Engine_Post_dx9.obj
 0002:000bda30       ?Base@?$CUtlVector@PAVCShaderParam@Engine_Post_dx9@@V?$CUtlMemory@PAVCShaderParam@Engine_Post_dx9@@H@@@@QAEPAPAVCShaderParam@Engine_Post_dx9@@XZ 101d6a30 f i Engine_Post_dx9.obj
 0002:000bda80       ?Count@?$CUtlVector@PAVCShaderParam@Engine_Post@@V?$CUtlMemory@PAVCShaderParam@Engine_Post@@H@@@@QBEHXZ 101d6a80 f i Engine_Post_dx9.obj
 0002:000bdac0       ?Count@?$CUtlVector@PAVCShaderParam@Engine_Post_dx9@@V?$CUtlMemory@PAVCShaderParam@Engine_Post_dx9@@H@@@@QBEHXZ 101d6ac0 f i Engine_Post_dx9.obj
 0002:000bdb00       ?Element@?$CUtlVector@PAVCShaderParam@Engine_Post@@V?$CUtlMemory@PAVCShaderParam@Engine_Post@@H@@@@QAEAAPAVCShaderParam@Engine_Post@@H@Z 101d6b00 f i Engine_Post_dx9.obj
 0002:000bdc30       ?Element@?$CUtlVector@PAVCShaderParam@Engine_Post_dx9@@V?$CUtlMemory@PAVCShaderParam@Engine_Post_dx9@@H@@@@QAEAAPAVCShaderParam@Engine_Post_dx9@@H@Z 101d6c30 f i Engine_Post_dx9.obj
 0002:000bdd60       ?GetFallbackShader@CShader@Engine_Post@@UBEPBDPAPAVIMaterialVar@@@Z 101d6d60 f i Engine_Post_dx9.obj
 0002:000bdda0       ?GetFallbackShader@CShader@Engine_Post_dx9@@UBEPBDPAPAVIMaterialVar@@@Z 101d6da0 f i Engine_Post_dx9.obj
 0002:000bdde0       ?GetFlags@CShader@Engine_Post@@UBEHXZ 101d6de0 f i Engine_Post_dx9.obj
 0002:000bde20       ?GetFlags@CShader@Engine_Post_dx9@@UBEHXZ 101d6e20 f i Engine_Post_dx9.obj
 0002:000bde60       ?GetIndex@engine_post_ps20b_Dynamic_Index@@QAEHXZ 101d6e60 f i Engine_Post_dx9.obj
 0002:000be0c0       ?GetIndex@engine_post_ps20b_Static_Index@@QAEHXZ 101d70c0 f i Engine_Post_dx9.obj
 0002:000be220       ?GetInfo@CShaderParam@Engine_Post@@QBEABUShaderParamInfo_t@@XZ 101d7220 f i Engine_Post_dx9.obj
 0002:000be260       ?GetInfo@CShaderParam@Engine_Post_dx9@@QBEABUShaderParamInfo_t@@XZ 101d7260 f i Engine_Post_dx9.obj
 0002:000be2a0       ?GetName@CShader@Engine_Post@@UBEPBDXZ 101d72a0 f i Engine_Post_dx9.obj
 0002:000be2e0       ?GetName@CShader@Engine_Post_dx9@@UBEPBDXZ 101d72e0 f i Engine_Post_dx9.obj
 0002:000be320       ?GetParamCount@CShader@Engine_Post@@UBEHXZ 101d7320 f i Engine_Post_dx9.obj
 0002:000be380       ?GetParamCount@CShader@Engine_Post_dx9@@UBEHXZ 101d7380 f i Engine_Post_dx9.obj
 0002:000be3e0       ?GetParamInfo@CShader@Engine_Post@@UBEABUShaderParamInfo_t@@H@Z 101d73e0 f i Engine_Post_dx9.obj
 0002:000be480       ?GetParamInfo@CShader@Engine_Post_dx9@@UBEABUShaderParamInfo_t@@H@Z 101d7480 f i Engine_Post_dx9.obj
 0002:000be520       ?GetShaderPostExt@@YAPAVCShaderEnginePostprocessInterface@@XZ 101d7520 f i Engine_Post_dx9.obj
 0002:000be560       ?Grow@?$CUtlMemory@PAVCShaderParam@Engine_Post_dx9@@H@@QAEXH@Z 101d7560 f i Engine_Post_dx9.obj
 0002:000bebd0       ?GrowVector@?$CUtlVector@PAVCShaderParam@Engine_Post_dx9@@V?$CUtlMemory@PAVCShaderParam@Engine_Post_dx9@@H@@@@IAEXH@Z 101d7bd0 f i Engine_Post_dx9.obj
 0002:000becf0       ?InsertBefore@?$CUtlVector@PAVCShaderParam@Engine_Post_dx9@@V?$CUtlMemory@PAVCShaderParam@Engine_Post_dx9@@H@@@@QAEHHABQAVCShaderParam@Engine_Post_dx9@@@Z 101d7cf0 f i Engine_Post_dx9.obj
 0002:000bef70       ?IsExternallyAllocated@?$CUtlMemory@PAVCShaderParam@Engine_Post@@H@@QBE_NXZ 101d7f70 f i Engine_Post_dx9.obj
 0002:000befe0       ?IsExternallyAllocated@?$CUtlMemory@PAVCShaderParam@Engine_Post_dx9@@H@@QBE_NXZ 101d7fe0 f i Engine_Post_dx9.obj
 0002:000bf050       ?IsIdxValid@?$CUtlMemory@PAVCShaderParam@Engine_Post@@H@@QBE_NH@Z 101d8050 f i Engine_Post_dx9.obj
 0002:000bf0d0       ?IsIdxValid@?$CUtlMemory@PAVCShaderParam@Engine_Post_dx9@@H@@QBE_NH@Z 101d80d0 f i Engine_Post_dx9.obj
 0002:000bf150       ?IsReadOnly@?$CUtlMemory@PAVCShaderParam@Engine_Post@@H@@QBE_NXZ 101d8150 f i Engine_Post_dx9.obj
 0002:000bf1c0       ?IsReadOnly@?$CUtlMemory@PAVCShaderParam@Engine_Post_dx9@@H@@QBE_NXZ 101d81c0 f i Engine_Post_dx9.obj
 0002:000bf230       ?IsValidIndex@?$CUtlVector@PAVCShaderParam@Engine_Post_dx9@@V?$CUtlMemory@PAVCShaderParam@Engine_Post_dx9@@H@@@@QBE_NH@Z 101d8230 f i Engine_Post_dx9.obj
 0002:000bf2a0       ?NumAllocated@?$CUtlMemory@PAVCShaderParam@Engine_Post_dx9@@H@@QBEHXZ 101d82a0 f i Engine_Post_dx9.obj
 0002:000bf2e0       ?OnDrawElements@CShader@Engine_Post@@UAEXPAPAVIMaterialVar@@PAVIShaderShadow@@PAVIShaderDynamicAPI@@W4VertexCompressionType_t@@PAPAVCBasePerMaterialContextData@@@Z 101d82e0 f i Engine_Post_dx9.obj
 0002:000bf320       ?OnDrawElements@CShader@Engine_Post_dx9@@UAEXPAPAVIMaterialVar@@PAVIShaderShadow@@PAVIShaderDynamicAPI@@W4VertexCompressionType_t@@PAPAVCBasePerMaterialContextData@@@Z 101d8320 f i Engine_Post_dx9.obj
 0002:000c1e50       ?OnInitShaderInstance@CShader@Engine_Post@@UAEXPAPAVIMaterialVar@@PAVIShaderInit@@PBD@Z 101dae50 f i Engine_Post_dx9.obj
 0002:000c1e90       ?OnInitShaderInstance@CShader@Engine_Post_dx9@@UAEXPAPAVIMaterialVar@@PAVIShaderInit@@PBD@Z 101dae90 f i Engine_Post_dx9.obj
 0002:000c20a0       ?OnInitShaderParams@CShader@Engine_Post_dx9@@UAEXPAPAVIMaterialVar@@PBD@Z 101db0a0 f i Engine_Post_dx9.obj
 0002:000c3640       ?Purge@?$CUtlMemory@PAVCShaderParam@Engine_Post@@H@@QAEXXZ 101dc640 f i Engine_Post_dx9.obj
 0002:000c36f0       ?Purge@?$CUtlMemory@PAVCShaderParam@Engine_Post_dx9@@H@@QAEXXZ 101dc6f0 f i Engine_Post_dx9.obj
 0002:000c37a0       ?Purge@?$CUtlVector@PAVCShaderParam@Engine_Post@@V?$CUtlMemory@PAVCShaderParam@Engine_Post@@H@@@@QAEXXZ 101dc7a0 f i Engine_Post_dx9.obj
 0002:000c3810       ?Purge@?$CUtlVector@PAVCShaderParam@Engine_Post_dx9@@V?$CUtlMemory@PAVCShaderParam@Engine_Post_dx9@@H@@@@QAEXXZ 101dc810 f i Engine_Post_dx9.obj
 0002:000c3880       ?RemoveAll@?$CUtlVector@PAVCShaderParam@Engine_Post@@V?$CUtlMemory@PAVCShaderParam@Engine_Post@@H@@@@QAEXXZ 101dc880 f i Engine_Post_dx9.obj
 0002:000c3910       ?RemoveAll@?$CUtlVector@PAVCShaderParam@Engine_Post_dx9@@V?$CUtlMemory@PAVCShaderParam@Engine_Post_dx9@@H@@@@QAEXXZ 101dc910 f i Engine_Post_dx9.obj
 0002:000c39a0       ?ResetDbgInfo@?$CUtlVector@PAVCShaderParam@Engine_Post@@V?$CUtlMemory@PAVCShaderParam@Engine_Post@@H@@@@IAEXXZ 101dc9a0 f i Engine_Post_dx9.obj
 0002:000c3a00       ?ResetDbgInfo@?$CUtlVector@PAVCShaderParam@Engine_Post_dx9@@V?$CUtlMemory@PAVCShaderParam@Engine_Post_dx9@@H@@@@IAEXXZ 101dca00 f i Engine_Post_dx9.obj
 0002:000c3a60       ?SetAA_ENABLE@engine_post_ps20b_Dynamic_Index@@QAEXH@Z 101dca60 f i Engine_Post_dx9.obj
 0002:000c3b80       ?SetBLURRED_VIGNETTE_ENABLE@engine_post_ps20b_Dynamic_Index@@QAEX_N@Z 101dcb80 f i Engine_Post_dx9.obj
 0002:000c3c00       ?SetCOL_CORRECT_NUM_LOOKUPS@engine_post_ps20b_Dynamic_Index@@QAEXH@Z 101dcc00 f i Engine_Post_dx9.obj
 0002:000c3d20       ?SetCONVERT_FROM_LINEAR@engine_post_ps20b_Dynamic_Index@@QAEX_N@Z 101dcd20 f i Engine_Post_dx9.obj
 0002:000c3da0       ?SetCONVERT_TO_LINEAR@engine_post_ps20b_Dynamic_Index@@QAEX_N@Z 101dcda0 f i Engine_Post_dx9.obj
 0002:000c3e20       ?SetDEPTH_BLUR_ENABLE@engine_post_ps20b_Static_Index@@QAEX_N@Z 101dce20 f i Engine_Post_dx9.obj
 0002:000c3ea0       ?SetDESATURATEENABLE@engine_post_ps20b_Dynamic_Index@@QAEX_N@Z 101dcea0 f i Engine_Post_dx9.obj
 0002:000c3f20       ?SetLOCAL_CONTRAST_ENABLE@engine_post_ps20b_Dynamic_Index@@QAEX_N@Z 101dcf20 f i Engine_Post_dx9.obj
 0002:000c3fa0       ?SetNOISE_ENABLE@engine_post_ps20b_Dynamic_Index@@QAEX_N@Z 101dcfa0 f i Engine_Post_dx9.obj
 0002:000c4020       ?SetTOOL_MODE@engine_post_ps20b_Static_Index@@QAEX_N@Z 101dd020 f i Engine_Post_dx9.obj
 0002:000c40a0       ?SetTV_GAMMA@engine_post_ps20b_Dynamic_Index@@QAEXH@Z 101dd0a0 f i Engine_Post_dx9.obj
 0002:000c41d0       ?SetVIGNETTE_ENABLE@engine_post_ps20b_Dynamic_Index@@QAEX_N@Z 101dd1d0 f i Engine_Post_dx9.obj
 0002:000c4250       ?SetVOMIT_ENABLE@engine_post_ps20b_Dynamic_Index@@QAEX_N@Z 101dd250 f i Engine_Post_dx9.obj
 0002:000c42d0       ?ShiftElementsRight@?$CUtlVector@PAVCShaderParam@Engine_Post_dx9@@V?$CUtlMemory@PAVCShaderParam@Engine_Post_dx9@@H@@@@IAEXHH@Z 101dd2d0 f i Engine_Post_dx9.obj
 0002:000c4470       ?ValidateGrowSize@?$CUtlMemory@PAVCShaderParam@Engine_Post@@H@@IAEXXZ 101dd470 f i Engine_Post_dx9.obj
 0002:000c44b0       ?ValidateGrowSize@?$CUtlMemory@PAVCShaderParam@Engine_Post_dx9@@H@@IAEXXZ 101dd4b0 f i Engine_Post_dx9.obj
 0002:000c44f0       ??$Destruct@PAVCShaderParam@EyeGlint@@@@YAXPAPAVCShaderParam@EyeGlint@@@Z 101dd4f0 f i eyeglint_dx9.obj
 0002:000c4550       ??$Destruct@PAVCShaderParam@EyeGlint_dx9@@@@YAXPAPAVCShaderParam@EyeGlint_dx9@@@Z 101dd550 f i eyeglint_dx9.obj
 0002:000c45b0       ??$MemAllocClassName@V?$CUtlMemory@PAVCShaderParam@EyeGlint@@H@@@@YAPBDPAV?$CUtlMemory@PAVCShaderParam@EyeGlint@@H@@@Z 101dd5b0 f i eyeglint_dx9.obj
 0002:000c4630       ??$MemAllocClassName@V?$CUtlMemory@PAVCShaderParam@EyeGlint_dx9@@H@@@@YAPBDPAV?$CUtlMemory@PAVCShaderParam@EyeGlint_dx9@@H@@@Z 101dd630 f i eyeglint_dx9.obj
 0002:000c46b0       ??0?$CUtlMemory@PAVCShaderParam@EyeGlint@@H@@QAE@HH@Z 101dd6b0 f i eyeglint_dx9.obj
 0002:000c48a0       ??0?$CUtlMemory@PAVCShaderParam@EyeGlint_dx9@@H@@QAE@HH@Z 101dd8a0 f i eyeglint_dx9.obj
 0002:000c4a90       ??0?$CUtlVector@PAVCShaderParam@EyeGlint@@V?$CUtlMemory@PAVCShaderParam@EyeGlint@@H@@@@QAE@HH@Z 101dda90 f i eyeglint_dx9.obj
 0002:000c4b10       ??0?$CUtlVector@PAVCShaderParam@EyeGlint_dx9@@V?$CUtlMemory@PAVCShaderParam@EyeGlint_dx9@@H@@@@QAE@HH@Z 101ddb10 f i eyeglint_dx9.obj
 0002:000c4b90       ??0CShader@EyeGlint@@QAE@XZ 101ddb90 f i eyeglint_dx9.obj
 0002:000c4bf0       ??0CShader@EyeGlint_dx9@@QAE@XZ 101ddbf0 f i eyeglint_dx9.obj
 0002:000c4c50       ??0eyeglint_ps20b_Dynamic_Index@@QAE@PAVIShaderDynamicAPI@@@Z 101ddc50 f i eyeglint_dx9.obj
 0002:000c4c90       ??0eyeglint_ps20b_Static_Index@@QAE@PAVIShaderShadow@@PAPAVIMaterialVar@@@Z 101ddc90 f i eyeglint_dx9.obj
 0002:000c4cd0       ??0eyeglint_vs20_Dynamic_Index@@QAE@PAVIShaderDynamicAPI@@@Z 101ddcd0 f i eyeglint_dx9.obj
 0002:000c4d10       ??0eyeglint_vs20_Static_Index@@QAE@PAVIShaderShadow@@PAPAVIMaterialVar@@@Z 101ddd10 f i eyeglint_dx9.obj
 0002:000c4d50       ??1?$CUtlMemory@PAVCShaderParam@EyeGlint@@H@@QAE@XZ 101ddd50 f i eyeglint_dx9.obj
 0002:000c4da0       ??1?$CUtlMemory@PAVCShaderParam@EyeGlint_dx9@@H@@QAE@XZ 101ddda0 f i eyeglint_dx9.obj
 0002:000c4df0       ??1?$CUtlVector@PAVCShaderParam@EyeGlint@@V?$CUtlMemory@PAVCShaderParam@EyeGlint@@H@@@@QAE@XZ 101dddf0 f i eyeglint_dx9.obj
 0002:000c4e50       ??1?$CUtlVector@PAVCShaderParam@EyeGlint_dx9@@V?$CUtlMemory@PAVCShaderParam@EyeGlint_dx9@@H@@@@QAE@XZ 101dde50 f i eyeglint_dx9.obj
 0002:000c4eb0       ??A?$CUtlMemory@PAVCShaderParam@EyeGlint@@H@@QAEAAPAVCShaderParam@EyeGlint@@H@Z 101ddeb0 f i eyeglint_dx9.obj
 0002:000c50b0       ??A?$CUtlMemory@PAVCShaderParam@EyeGlint_dx9@@H@@QAEAAPAVCShaderParam@EyeGlint_dx9@@H@Z 101de0b0 f i eyeglint_dx9.obj
 0002:000c52b0       ??A?$CUtlVector@PAVCShaderParam@EyeGlint@@V?$CUtlMemory@PAVCShaderParam@EyeGlint@@H@@@@QAEAAPAVCShaderParam@EyeGlint@@H@Z 101de2b0 f i eyeglint_dx9.obj
 0002:000c53e0       ??A?$CUtlVector@PAVCShaderParam@EyeGlint_dx9@@V?$CUtlMemory@PAVCShaderParam@EyeGlint_dx9@@H@@@@QAEAAPAVCShaderParam@EyeGlint_dx9@@H@Z 101de3e0 f i eyeglint_dx9.obj
 0002:000c5510       ?Base@?$CUtlMemory@PAVCShaderParam@EyeGlint@@H@@QAEPAPAVCShaderParam@EyeGlint@@XZ 101de510 f i eyeglint_dx9.obj
 0002:000c5630       ?Base@?$CUtlMemory@PAVCShaderParam@EyeGlint_dx9@@H@@QAEPAPAVCShaderParam@EyeGlint_dx9@@XZ 101de630 f i eyeglint_dx9.obj
 0002:000c5750       ?Base@?$CUtlVector@PAVCShaderParam@EyeGlint@@V?$CUtlMemory@PAVCShaderParam@EyeGlint@@H@@@@QAEPAPAVCShaderParam@EyeGlint@@XZ 101de750 f i eyeglint_dx9.obj
 0002:000c57a0       ?Base@?$CUtlVector@PAVCShaderParam@EyeGlint_dx9@@V?$CUtlMemory@PAVCShaderParam@EyeGlint_dx9@@H@@@@QAEPAPAVCShaderParam@EyeGlint_dx9@@XZ 101de7a0 f i eyeglint_dx9.obj
 0002:000c57f0       ?Count@?$CUtlVector@PAVCShaderParam@EyeGlint@@V?$CUtlMemory@PAVCShaderParam@EyeGlint@@H@@@@QBEHXZ 101de7f0 f i eyeglint_dx9.obj
 0002:000c5830       ?Count@?$CUtlVector@PAVCShaderParam@EyeGlint_dx9@@V?$CUtlMemory@PAVCShaderParam@EyeGlint_dx9@@H@@@@QBEHXZ 101de830 f i eyeglint_dx9.obj
 0002:000c5870       ?Element@?$CUtlVector@PAVCShaderParam@EyeGlint@@V?$CUtlMemory@PAVCShaderParam@EyeGlint@@H@@@@QAEAAPAVCShaderParam@EyeGlint@@H@Z 101de870 f i eyeglint_dx9.obj
 0002:000c59a0       ?Element@?$CUtlVector@PAVCShaderParam@EyeGlint_dx9@@V?$CUtlMemory@PAVCShaderParam@EyeGlint_dx9@@H@@@@QAEAAPAVCShaderParam@EyeGlint_dx9@@H@Z 101de9a0 f i eyeglint_dx9.obj
 0002:000c5ad0       ?GetFallbackShader@CShader@EyeGlint@@UBEPBDPAPAVIMaterialVar@@@Z 101dead0 f i eyeglint_dx9.obj
 0002:000c5b10       ?GetFallbackShader@CShader@EyeGlint_dx9@@UBEPBDPAPAVIMaterialVar@@@Z 101deb10 f i eyeglint_dx9.obj
 0002:000c5b50       ?GetFlags@CShader@EyeGlint@@UBEHXZ 101deb50 f i eyeglint_dx9.obj
 0002:000c5b90       ?GetFlags@CShader@EyeGlint_dx9@@UBEHXZ 101deb90 f i eyeglint_dx9.obj
 0002:000c5bd0       ?GetIndex@eyeglint_ps20b_Dynamic_Index@@QAEHXZ 101debd0 f i eyeglint_dx9.obj
 0002:000c5c10       ?GetIndex@eyeglint_ps20b_Static_Index@@QAEHXZ 101dec10 f i eyeglint_dx9.obj
 0002:000c5c50       ?GetIndex@eyeglint_vs20_Dynamic_Index@@QAEHXZ 101dec50 f i eyeglint_dx9.obj
 0002:000c5c90       ?GetIndex@eyeglint_vs20_Static_Index@@QAEHXZ 101dec90 f i eyeglint_dx9.obj
 0002:000c5cd0       ?GetInfo@CShaderParam@EyeGlint@@QBEABUShaderParamInfo_t@@XZ 101decd0 f i eyeglint_dx9.obj
 0002:000c5d10       ?GetInfo@CShaderParam@EyeGlint_dx9@@QBEABUShaderParamInfo_t@@XZ 101ded10 f i eyeglint_dx9.obj
 0002:000c5d50       ?GetName@CShader@EyeGlint@@UBEPBDXZ 101ded50 f i eyeglint_dx9.obj
 0002:000c5d90       ?GetName@CShader@EyeGlint_dx9@@UBEPBDXZ 101ded90 f i eyeglint_dx9.obj
 0002:000c5dd0       ?GetParamCount@CShader@EyeGlint@@UBEHXZ 101dedd0 f i eyeglint_dx9.obj
 0002:000c5e30       ?GetParamCount@CShader@EyeGlint_dx9@@UBEHXZ 101dee30 f i eyeglint_dx9.obj
 0002:000c5e90       ?GetParamInfo@CShader@EyeGlint@@UBEABUShaderParamInfo_t@@H@Z 101dee90 f i eyeglint_dx9.obj
 0002:000c5f30       ?GetParamInfo@CShader@EyeGlint_dx9@@UBEABUShaderParamInfo_t@@H@Z 101def30 f i eyeglint_dx9.obj
 0002:000c5fd0       ?IsExternallyAllocated@?$CUtlMemory@PAVCShaderParam@EyeGlint@@H@@QBE_NXZ 101defd0 f i eyeglint_dx9.obj
 0002:000c6040       ?IsExternallyAllocated@?$CUtlMemory@PAVCShaderParam@EyeGlint_dx9@@H@@QBE_NXZ 101df040 f i eyeglint_dx9.obj
 0002:000c60b0       ?IsIdxValid@?$CUtlMemory@PAVCShaderParam@EyeGlint@@H@@QBE_NH@Z 101df0b0 f i eyeglint_dx9.obj
 0002:000c6130       ?IsIdxValid@?$CUtlMemory@PAVCShaderParam@EyeGlint_dx9@@H@@QBE_NH@Z 101df130 f i eyeglint_dx9.obj
 0002:000c61b0       ?IsReadOnly@?$CUtlMemory@PAVCShaderParam@EyeGlint@@H@@QBE_NXZ 101df1b0 f i eyeglint_dx9.obj
 0002:000c6220       ?IsReadOnly@?$CUtlMemory@PAVCShaderParam@EyeGlint_dx9@@H@@QBE_NXZ 101df220 f i eyeglint_dx9.obj
 0002:000c6290       ?OnDrawElements@CShader@EyeGlint@@UAEXPAPAVIMaterialVar@@PAVIShaderShadow@@PAVIShaderDynamicAPI@@W4VertexCompressionType_t@@PAPAVCBasePerMaterialContextData@@@Z 101df290 f i eyeglint_dx9.obj
 0002:000c62d0       ?OnDrawElements@CShader@EyeGlint_dx9@@UAEXPAPAVIMaterialVar@@PAVIShaderShadow@@PAVIShaderDynamicAPI@@W4VertexCompressionType_t@@PAPAVCBasePerMaterialContextData@@@Z 101df2d0 f i eyeglint_dx9.obj
 0002:000c6740       ?OnInitShaderInstance@CShader@EyeGlint@@UAEXPAPAVIMaterialVar@@PAVIShaderInit@@PBD@Z 101df740 f i eyeglint_dx9.obj
 0002:000c6780       ?OnInitShaderInstance@CShader@EyeGlint_dx9@@UAEXPAPAVIMaterialVar@@PAVIShaderInit@@PBD@Z 101df780 f i eyeglint_dx9.obj
 0002:000c67c0       ?Purge@?$CUtlMemory@PAVCShaderParam@EyeGlint@@H@@QAEXXZ 101df7c0 f i eyeglint_dx9.obj
 0002:000c6870       ?Purge@?$CUtlMemory@PAVCShaderParam@EyeGlint_dx9@@H@@QAEXXZ 101df870 f i eyeglint_dx9.obj
 0002:000c6920       ?Purge@?$CUtlVector@PAVCShaderParam@EyeGlint@@V?$CUtlMemory@PAVCShaderParam@EyeGlint@@H@@@@QAEXXZ 101df920 f i eyeglint_dx9.obj
 0002:000c6990       ?Purge@?$CUtlVector@PAVCShaderParam@EyeGlint_dx9@@V?$CUtlMemory@PAVCShaderParam@EyeGlint_dx9@@H@@@@QAEXXZ 101df990 f i eyeglint_dx9.obj
 0002:000c6a00       ?RemoveAll@?$CUtlVector@PAVCShaderParam@EyeGlint@@V?$CUtlMemory@PAVCShaderParam@EyeGlint@@H@@@@QAEXXZ 101dfa00 f i eyeglint_dx9.obj
 0002:000c6a90       ?RemoveAll@?$CUtlVector@PAVCShaderParam@EyeGlint_dx9@@V?$CUtlMemory@PAVCShaderParam@EyeGlint_dx9@@H@@@@QAEXXZ 101dfa90 f i eyeglint_dx9.obj
 0002:000c6b20       ?ResetDbgInfo@?$CUtlVector@PAVCShaderParam@EyeGlint@@V?$CUtlMemory@PAVCShaderParam@EyeGlint@@H@@@@IAEXXZ 101dfb20 f i eyeglint_dx9.obj
 0002:000c6b80       ?ResetDbgInfo@?$CUtlVector@PAVCShaderParam@EyeGlint_dx9@@V?$CUtlMemory@PAVCShaderParam@EyeGlint_dx9@@H@@@@IAEXXZ 101dfb80 f i eyeglint_dx9.obj
 0002:000c6be0       ?ValidateGrowSize@?$CUtlMemory@PAVCShaderParam@EyeGlint@@H@@IAEXXZ 101dfbe0 f i eyeglint_dx9.obj
 0002:000c6c20       ?ValidateGrowSize@?$CUtlMemory@PAVCShaderParam@EyeGlint_dx9@@H@@IAEXXZ 101dfc20 f i eyeglint_dx9.obj
 0002:000c6c60       ??0eyes_flashlight_ps20b_Dynamic_Index@@QAE@PAVIShaderDynamicAPI@@@Z 101dfc60 f i eyes_dx8_dx9_helper.obj
 0002:000c6d20       ??0eyes_flashlight_ps20b_Static_Index@@QAE@PAVIShaderShadow@@PAPAVIMaterialVar@@@Z 101dfd20 f i eyes_dx8_dx9_helper.obj
 0002:000c6d70       ??0eyes_flashlight_ps30_Dynamic_Index@@QAE@PAVIShaderDynamicAPI@@@Z 101dfd70 f i eyes_dx8_dx9_helper.obj
 0002:000c6e40       ??0eyes_flashlight_ps30_Static_Index@@QAE@PAVIShaderShadow@@PAPAVIMaterialVar@@@Z 101dfe40 f i eyes_dx8_dx9_helper.obj
 0002:000c6e90       ??0eyes_flashlight_vs20_Dynamic_Index@@QAE@PAVIShaderDynamicAPI@@@Z 101dfe90 f i eyes_dx8_dx9_helper.obj
 0002:000c6f60       ??0eyes_flashlight_vs20_Static_Index@@QAE@PAVIShaderShadow@@PAPAVIMaterialVar@@@Z 101dff60 f i eyes_dx8_dx9_helper.obj
 0002:000c7020       ??0eyes_flashlight_vs30_Dynamic_Index@@QAE@PAVIShaderDynamicAPI@@@Z 101e0020 f i eyes_dx8_dx9_helper.obj
 0002:000c7120       ??0eyes_flashlight_vs30_Static_Index@@QAE@PAVIShaderShadow@@PAPAVIMaterialVar@@@Z 101e0120 f i eyes_dx8_dx9_helper.obj
 0002:000c71a0       ??0eyes_ps20b_Dynamic_Index@@QAE@PAVIShaderDynamicAPI@@@Z 101e01a0 f i eyes_dx8_dx9_helper.obj
 0002:000c7260       ??0eyes_ps20b_Static_Index@@QAE@PAVIShaderShadow@@PAPAVIMaterialVar@@@Z 101e0260 f i eyes_dx8_dx9_helper.obj
 0002:000c72a0       ??0eyes_ps30_Dynamic_Index@@QAE@PAVIShaderDynamicAPI@@@Z 101e02a0 f i eyes_dx8_dx9_helper.obj
 0002:000c7360       ??0eyes_ps30_Static_Index@@QAE@PAVIShaderShadow@@PAPAVIMaterialVar@@@Z 101e0360 f i eyes_dx8_dx9_helper.obj
 0002:000c73a0       ??0eyes_vs20_Dynamic_Index@@QAE@PAVIShaderDynamicAPI@@@Z 101e03a0 f i eyes_dx8_dx9_helper.obj
 0002:000c74a0       ??0eyes_vs20_Static_Index@@QAE@PAVIShaderShadow@@PAPAVIMaterialVar@@@Z 101e04a0 f i eyes_dx8_dx9_helper.obj
 0002:000c7580       ??0eyes_vs30_Dynamic_Index@@QAE@PAVIShaderDynamicAPI@@@Z 101e0580 f i eyes_dx8_dx9_helper.obj
 0002:000c76b0       ??0eyes_vs30_Static_Index@@QAE@PAVIShaderShadow@@PAPAVIMaterialVar@@@Z 101e06b0 f i eyes_dx8_dx9_helper.obj
 0002:000c7760       ?Base@VMatrix@@QBEPBMXZ    101e0760 f i eyes_dx8_dx9_helper.obj
 0002:000c77b0       ?DrawEyes_DX8_DX9@@YAX_NPAVCBaseVSShader@@PAPAVIMaterialVar@@PAVIShaderDynamicAPI@@PAVIShaderShadow@@AAUEyes_DX8_DX9_Vars_t@@W4VertexCompressionType_t@@@Z 101e07b0 f   eyes_dx8_dx9_helper.obj
 0002:000ca6b0       ?GetFlashlightTextureFilename@@YAPADXZ 101e36b0 f i eyes_dx8_dx9_helper.obj
 0002:000ca6f0       ?GetIndex@eyes_flashlight_ps20b_Dynamic_Index@@QAEHXZ 101e36f0 f i eyes_dx8_dx9_helper.obj
 0002:000ca850       ?GetIndex@eyes_flashlight_ps20b_Static_Index@@QAEHXZ 101e3850 f i eyes_dx8_dx9_helper.obj
 0002:000ca970       ?GetIndex@eyes_flashlight_ps30_Dynamic_Index@@QAEHXZ 101e3970 f i eyes_dx8_dx9_helper.obj
 0002:000caaf0       ?GetIndex@eyes_flashlight_ps30_Static_Index@@QAEHXZ 101e3af0 f i eyes_dx8_dx9_helper.obj
 0002:000cac10       ?GetIndex@eyes_flashlight_vs20_Dynamic_Index@@QAEHXZ 101e3c10 f i eyes_dx8_dx9_helper.obj
 0002:000cad90       ?GetIndex@eyes_flashlight_vs20_Static_Index@@QAEHXZ 101e3d90 f i eyes_dx8_dx9_helper.obj
 0002:000caef0       ?GetIndex@eyes_flashlight_vs30_Dynamic_Index@@QAEHXZ 101e3ef0 f i eyes_dx8_dx9_helper.obj
 0002:000cb090       ?GetIndex@eyes_flashlight_vs30_Static_Index@@QAEHXZ 101e4090 f i eyes_dx8_dx9_helper.obj
 0002:000cb1f0       ?GetIndex@eyes_ps20b_Dynamic_Index@@QAEHXZ 101e41f0 f i eyes_dx8_dx9_helper.obj
 0002:000cb350       ?GetIndex@eyes_ps20b_Static_Index@@QAEHXZ 101e4350 f i eyes_dx8_dx9_helper.obj
 0002:000cb390       ?GetIndex@eyes_ps30_Dynamic_Index@@QAEHXZ 101e4390 f i eyes_dx8_dx9_helper.obj
 0002:000cb4f0       ?GetIndex@eyes_ps30_Static_Index@@QAEHXZ 101e44f0 f i eyes_dx8_dx9_helper.obj
 0002:000cb530       ?GetIndex@eyes_vs20_Dynamic_Index@@QAEHXZ 101e4530 f i eyes_dx8_dx9_helper.obj
 0002:000cb6e0       ?GetIndex@eyes_vs20_Static_Index@@QAEHXZ 101e46e0 f i eyes_dx8_dx9_helper.obj
 0002:000cb880       ?GetIndex@eyes_vs30_Dynamic_Index@@QAEHXZ 101e4880 f i eyes_dx8_dx9_helper.obj
 0002:000cba50       ?GetIndex@eyes_vs30_Static_Index@@QAEHXZ 101e4a50 f i eyes_dx8_dx9_helper.obj
 0002:000cbbf0       ?HasDynamicLight@LightState_t@@QAEHXZ 101e4bf0 f i eyes_dx8_dx9_helper.obj
 0002:000cbc60       ?InitEyes_DX8_DX9@@YAXPAVCBaseVSShader@@PAPAVIMaterialVar@@AAUEyes_DX8_DX9_Vars_t@@@Z 101e4c60 f   eyes_dx8_dx9_helper.obj
 0002:000cbd60       ?InitParamsEyes_DX8_DX9@@YAXPAVCBaseVSShader@@PAPAVIMaterialVar@@PBDAAUEyes_DX8_DX9_Vars_t@@@Z 101e4d60 f   eyes_dx8_dx9_helper.obj
 0002:000cbf60       ?SetCOMPRESSED_VERTS@eyes_flashlight_vs20_Dynamic_Index@@QAEXH@Z 101e4f60 f i eyes_dx8_dx9_helper.obj
 0002:000cc080       ?SetCOMPRESSED_VERTS@eyes_flashlight_vs30_Dynamic_Index@@QAEXH@Z 101e5080 f i eyes_dx8_dx9_helper.obj
 0002:000cc1a0       ?SetCOMPRESSED_VERTS@eyes_vs20_Dynamic_Index@@QAEXH@Z 101e51a0 f i eyes_dx8_dx9_helper.obj
 0002:000cc2d0       ?SetCOMPRESSED_VERTS@eyes_vs30_Dynamic_Index@@QAEXH@Z 101e52d0 f i eyes_dx8_dx9_helper.obj
 0002:000cc400       ?SetDYNAMIC_LIGHT@eyes_vs20_Dynamic_Index@@QAEXH@Z 101e5400 f i eyes_dx8_dx9_helper.obj
 0002:000cc530       ?SetDYNAMIC_LIGHT@eyes_vs30_Dynamic_Index@@QAEXH@Z 101e5530 f i eyes_dx8_dx9_helper.obj
 0002:000ccab0       ?SetFLASHLIGHTDEPTHFILTERMODE@eyes_flashlight_ps20b_Static_Index@@QAEXH@Z 101e5ab0 f i eyes_dx8_dx9_helper.obj
 0002:000ccbd0       ?SetFLASHLIGHTDEPTHFILTERMODE@eyes_flashlight_ps30_Static_Index@@QAEXH@Z 101e5bd0 f i eyes_dx8_dx9_helper.obj
 0002:000cccf0       ?SetFLASHLIGHTSHADOWS@eyes_flashlight_ps20b_Dynamic_Index@@QAEX_N@Z 101e5cf0 f i eyes_dx8_dx9_helper.obj
 0002:000ccd70       ?SetFLASHLIGHTSHADOWS@eyes_flashlight_ps30_Dynamic_Index@@QAEX_N@Z 101e5d70 f i eyes_dx8_dx9_helper.obj
 0002:000ccdf0       ?SetHALFLAMBERT@eyes_vs20_Static_Index@@QAEX_N@Z 101e5df0 f i eyes_dx8_dx9_helper.obj
 0002:000cce70       ?SetHALFLAMBERT@eyes_vs30_Static_Index@@QAEX_N@Z 101e5e70 f i eyes_dx8_dx9_helper.obj
 0002:000ccef0       ?SetINTRO@eyes_vs20_Static_Index@@QAEXH@Z 101e5ef0 f i eyes_dx8_dx9_helper.obj
 0002:000cd010       ?SetINTRO@eyes_vs30_Static_Index@@QAEXH@Z 101e6010 f i eyes_dx8_dx9_helper.obj
 0002:000cd130       ?SetSKINNING@eyes_flashlight_vs20_Dynamic_Index@@QAEX_N@Z 101e6130 f i eyes_dx8_dx9_helper.obj
 0002:000cd1b0       ?SetSKINNING@eyes_flashlight_vs30_Dynamic_Index@@QAEX_N@Z 101e61b0 f i eyes_dx8_dx9_helper.obj
 0002:000cd230       ?SetSKINNING@eyes_vs20_Dynamic_Index@@QAEX_N@Z 101e6230 f i eyes_dx8_dx9_helper.obj
 0002:000cd2b0       ?SetSKINNING@eyes_vs30_Dynamic_Index@@QAEX_N@Z 101e62b0 f i eyes_dx8_dx9_helper.obj
 0002:000cd330       ?SetSTATIC_LIGHT@eyes_vs20_Dynamic_Index@@QAEXH@Z 101e6330 f i eyes_dx8_dx9_helper.obj
 0002:000cd460       ?SetSTATIC_LIGHT@eyes_vs30_Dynamic_Index@@QAEXH@Z 101e6460 f i eyes_dx8_dx9_helper.obj
 0002:000cd590       ?SetUBERLIGHT@eyes_flashlight_ps30_Dynamic_Index@@QAEX_N@Z 101e6590 f i eyes_dx8_dx9_helper.obj
 0002:000cd610       ?SetWRITE_DEPTH_TO_DESTALPHA@eyes_ps20b_Dynamic_Index@@QAEX_N@Z 101e6610 f i eyes_dx8_dx9_helper.obj
 0002:000cd690       ?SetWRITE_DEPTH_TO_DESTALPHA@eyes_ps30_Dynamic_Index@@QAEX_N@Z 101e6690 f i eyes_dx8_dx9_helper.obj
 0002:000cd710       ??$CopyConstruct@PAVCShaderParam@Eyes_dx9@@@@YAPAPAVCShaderParam@Eyes_dx9@@PAPAV01@ABQAV01@@Z 101e6710 f i eyes_dx9.obj
 0002:000cd7b0       ??$Destruct@PAVCShaderParam@Eyes_dx9@@@@YAXPAPAVCShaderParam@Eyes_dx9@@@Z 101e67b0 f i eyes_dx9.obj
 0002:000cd810       ??$Destruct@PAVCShaderParam@eyes@@@@YAXPAPAVCShaderParam@eyes@@@Z 101e6810 f i eyes_dx9.obj
 0002:000cd870       ??$MemAllocClassName@V?$CUtlMemory@PAVCShaderParam@Eyes_dx9@@H@@@@YAPBDPAV?$CUtlMemory@PAVCShaderParam@Eyes_dx9@@H@@@Z 101e6870 f i eyes_dx9.obj
 0002:000cd8f0       ??$MemAllocClassName@V?$CUtlMemory@PAVCShaderParam@eyes@@H@@@@YAPBDPAV?$CUtlMemory@PAVCShaderParam@eyes@@H@@@Z 101e68f0 f i eyes_dx9.obj
 0002:000cd970       ??$MemAllocClassName@V?$CUtlVector@PAVCShaderParam@Eyes_dx9@@V?$CUtlMemory@PAVCShaderParam@Eyes_dx9@@H@@@@@@YAPBDPAV?$CUtlVector@PAVCShaderParam@Eyes_dx9@@V?$CUtlMemory@PAVCShaderParam@Eyes_dx9@@H@@@@@Z 101e6970 f i eyes_dx9.obj
 0002:000cd9f0       ??0?$CUtlMemory@PAVCShaderParam@Eyes_dx9@@H@@QAE@HH@Z 101e69f0 f i eyes_dx9.obj
 0002:000cdbe0       ??0?$CUtlMemory@PAVCShaderParam@eyes@@H@@QAE@HH@Z 101e6be0 f i eyes_dx9.obj
 0002:000cddd0       ??0?$CUtlVector@PAVCShaderParam@Eyes_dx9@@V?$CUtlMemory@PAVCShaderParam@Eyes_dx9@@H@@@@QAE@HH@Z 101e6dd0 f i eyes_dx9.obj
 0002:000cde50       ??0?$CUtlVector@PAVCShaderParam@eyes@@V?$CUtlMemory@PAVCShaderParam@eyes@@H@@@@QAE@HH@Z 101e6e50 f i eyes_dx9.obj
 0002:000cded0       ??0CShader@Eyes_dx9@@QAE@XZ 101e6ed0 f i eyes_dx9.obj
 0002:000cdf30       ??0CShader@eyes@@QAE@XZ    101e6f30 f i eyes_dx9.obj
 0002:000cdf90       ??0CShaderParam@Eyes_dx9@@QAE@PBDW4ShaderParamType_t@@00H@Z 101e6f90 f i eyes_dx9.obj
 0002:000ce050       ??0Eyes_DX8_DX9_Vars_t@@QAE@XZ 101e7050 f i eyes_dx9.obj
 0002:000ce0b0       ??1?$CUtlMemory@PAVCShaderParam@Eyes_dx9@@H@@QAE@XZ 101e70b0 f i eyes_dx9.obj
 0002:000ce100       ??1?$CUtlMemory@PAVCShaderParam@eyes@@H@@QAE@XZ 101e7100 f i eyes_dx9.obj
 0002:000ce150       ??1?$CUtlVector@PAVCShaderParam@Eyes_dx9@@V?$CUtlMemory@PAVCShaderParam@Eyes_dx9@@H@@@@QAE@XZ 101e7150 f i eyes_dx9.obj
 0002:000ce1b0       ??1?$CUtlVector@PAVCShaderParam@eyes@@V?$CUtlMemory@PAVCShaderParam@eyes@@H@@@@QAE@XZ 101e71b0 f i eyes_dx9.obj
 0002:000ce210       ??A?$CUtlMemory@PAVCShaderParam@Eyes_dx9@@H@@QAEAAPAVCShaderParam@Eyes_dx9@@H@Z 101e7210 f i eyes_dx9.obj
 0002:000ce410       ??A?$CUtlMemory@PAVCShaderParam@eyes@@H@@QAEAAPAVCShaderParam@eyes@@H@Z 101e7410 f i eyes_dx9.obj
 0002:000ce610       ??A?$CUtlVector@PAVCShaderParam@Eyes_dx9@@V?$CUtlMemory@PAVCShaderParam@Eyes_dx9@@H@@@@QAEAAPAVCShaderParam@Eyes_dx9@@H@Z 101e7610 f i eyes_dx9.obj
 0002:000ce740       ??A?$CUtlVector@PAVCShaderParam@eyes@@V?$CUtlMemory@PAVCShaderParam@eyes@@H@@@@QAEAAPAVCShaderParam@eyes@@H@Z 101e7740 f i eyes_dx9.obj
 0002:000ce870       ??BCShaderParam@Eyes_dx9@@QAEHXZ 101e7870 f i eyes_dx9.obj
 0002:000ce8b0       ?AddToTail@?$CUtlVector@PAVCShaderParam@Eyes_dx9@@V?$CUtlMemory@PAVCShaderParam@Eyes_dx9@@H@@@@QAEHABQAVCShaderParam@Eyes_dx9@@@Z 101e78b0 f i eyes_dx9.obj
 0002:000cea20       ?Base@?$CUtlMemory@PAVCShaderParam@Eyes_dx9@@H@@QAEPAPAVCShaderParam@Eyes_dx9@@XZ 101e7a20 f i eyes_dx9.obj
 0002:000ceb40       ?Base@?$CUtlMemory@PAVCShaderParam@eyes@@H@@QAEPAPAVCShaderParam@eyes@@XZ 101e7b40 f i eyes_dx9.obj
 0002:000cec60       ?Base@?$CUtlVector@PAVCShaderParam@Eyes_dx9@@V?$CUtlMemory@PAVCShaderParam@Eyes_dx9@@H@@@@QAEPAPAVCShaderParam@Eyes_dx9@@XZ 101e7c60 f i eyes_dx9.obj
 0002:000cecb0       ?Base@?$CUtlVector@PAVCShaderParam@eyes@@V?$CUtlMemory@PAVCShaderParam@eyes@@H@@@@QAEPAPAVCShaderParam@eyes@@XZ 101e7cb0 f i eyes_dx9.obj
 0002:000ced00       ?Count@?$CUtlVector@PAVCShaderParam@Eyes_dx9@@V?$CUtlMemory@PAVCShaderParam@Eyes_dx9@@H@@@@QBEHXZ 101e7d00 f i eyes_dx9.obj
 0002:000ced40       ?Count@?$CUtlVector@PAVCShaderParam@eyes@@V?$CUtlMemory@PAVCShaderParam@eyes@@H@@@@QBEHXZ 101e7d40 f i eyes_dx9.obj
 0002:000ced80       ?Element@?$CUtlVector@PAVCShaderParam@Eyes_dx9@@V?$CUtlMemory@PAVCShaderParam@Eyes_dx9@@H@@@@QAEAAPAVCShaderParam@Eyes_dx9@@H@Z 101e7d80 f i eyes_dx9.obj
 0002:000ceeb0       ?Element@?$CUtlVector@PAVCShaderParam@eyes@@V?$CUtlMemory@PAVCShaderParam@eyes@@H@@@@QAEAAPAVCShaderParam@eyes@@H@Z 101e7eb0 f i eyes_dx9.obj
 0002:000cefe0       ?GetFallbackShader@CShader@Eyes_dx9@@UBEPBDPAPAVIMaterialVar@@@Z 101e7fe0 f i eyes_dx9.obj
 0002:000cf020       ?GetFallbackShader@CShader@eyes@@UBEPBDPAPAVIMaterialVar@@@Z 101e8020 f i eyes_dx9.obj
 0002:000cf060       ?GetFlags@CShader@Eyes_dx9@@UBEHXZ 101e8060 f i eyes_dx9.obj
 0002:000cf0a0       ?GetFlags@CShader@eyes@@UBEHXZ 101e80a0 f i eyes_dx9.obj
 0002:000cf0e0       ?GetInfo@CShaderParam@Eyes_dx9@@QBEABUShaderParamInfo_t@@XZ 101e80e0 f i eyes_dx9.obj
 0002:000cf120       ?GetInfo@CShaderParam@eyes@@QBEABUShaderParamInfo_t@@XZ 101e8120 f i eyes_dx9.obj
 0002:000cf160       ?GetName@CShader@Eyes_dx9@@UBEPBDXZ 101e8160 f i eyes_dx9.obj
 0002:000cf1a0       ?GetName@CShader@eyes@@UBEPBDXZ 101e81a0 f i eyes_dx9.obj
 0002:000cf1e0       ?GetParamCount@CShader@Eyes_dx9@@UBEHXZ 101e81e0 f i eyes_dx9.obj
 0002:000cf240       ?GetParamCount@CShader@eyes@@UBEHXZ 101e8240 f i eyes_dx9.obj
 0002:000cf2a0       ?GetParamInfo@CShader@Eyes_dx9@@UBEABUShaderParamInfo_t@@H@Z 101e82a0 f i eyes_dx9.obj
 0002:000cf340       ?GetParamInfo@CShader@eyes@@UBEABUShaderParamInfo_t@@H@Z 101e8340 f i eyes_dx9.obj
 0002:000cf3e0       ?Grow@?$CUtlMemory@PAVCShaderParam@Eyes_dx9@@H@@QAEXH@Z 101e83e0 f i eyes_dx9.obj
 0002:000cfa50       ?GrowVector@?$CUtlVector@PAVCShaderParam@Eyes_dx9@@V?$CUtlMemory@PAVCShaderParam@Eyes_dx9@@H@@@@IAEXH@Z 101e8a50 f i eyes_dx9.obj
 0002:000cfb70       ?InsertBefore@?$CUtlVector@PAVCShaderParam@Eyes_dx9@@V?$CUtlMemory@PAVCShaderParam@Eyes_dx9@@H@@@@QAEHHABQAVCShaderParam@Eyes_dx9@@@Z 101e8b70 f i eyes_dx9.obj
 0002:000cfdf0       ?IsExternallyAllocated@?$CUtlMemory@PAVCShaderParam@Eyes_dx9@@H@@QBE_NXZ 101e8df0 f i eyes_dx9.obj
 0002:000cfe60       ?IsExternallyAllocated@?$CUtlMemory@PAVCShaderParam@eyes@@H@@QBE_NXZ 101e8e60 f i eyes_dx9.obj
 0002:000cfed0       ?IsIdxValid@?$CUtlMemory@PAVCShaderParam@Eyes_dx9@@H@@QBE_NH@Z 101e8ed0 f i eyes_dx9.obj
 0002:000cff50       ?IsIdxValid@?$CUtlMemory@PAVCShaderParam@eyes@@H@@QBE_NH@Z 101e8f50 f i eyes_dx9.obj
 0002:000cffd0       ?IsReadOnly@?$CUtlMemory@PAVCShaderParam@Eyes_dx9@@H@@QBE_NXZ 101e8fd0 f i eyes_dx9.obj
 0002:000d0040       ?IsReadOnly@?$CUtlMemory@PAVCShaderParam@eyes@@H@@QBE_NXZ 101e9040 f i eyes_dx9.obj
 0002:000d00b0       ?IsValidIndex@?$CUtlVector@PAVCShaderParam@Eyes_dx9@@V?$CUtlMemory@PAVCShaderParam@Eyes_dx9@@H@@@@QBE_NH@Z 101e90b0 f i eyes_dx9.obj
 0002:000d0120       ?NumAllocated@?$CUtlMemory@PAVCShaderParam@Eyes_dx9@@H@@QBEHXZ 101e9120 f i eyes_dx9.obj
 0002:000d0160       ?OnDrawElements@CShader@Eyes_dx9@@UAEXPAPAVIMaterialVar@@PAVIShaderShadow@@PAVIShaderDynamicAPI@@W4VertexCompressionType_t@@PAPAVCBasePerMaterialContextData@@@Z 101e9160 f i eyes_dx9.obj
 0002:000d0220       ?OnDrawElements@CShader@eyes@@UAEXPAPAVIMaterialVar@@PAVIShaderShadow@@PAVIShaderDynamicAPI@@W4VertexCompressionType_t@@PAPAVCBasePerMaterialContextData@@@Z 101e9220 f i eyes_dx9.obj
 0002:000d0260       ?OnInitShaderInstance@CShader@Eyes_dx9@@UAEXPAPAVIMaterialVar@@PAVIShaderInit@@PBD@Z 101e9260 f i eyes_dx9.obj
 0002:000d0310       ?OnInitShaderInstance@CShader@eyes@@UAEXPAPAVIMaterialVar@@PAVIShaderInit@@PBD@Z 101e9310 f i eyes_dx9.obj
 0002:000d0350       ?OnInitShaderParams@CShader@Eyes_dx9@@UAEXPAPAVIMaterialVar@@PBD@Z 101e9350 f i eyes_dx9.obj
 0002:000d0410       ?Purge@?$CUtlMemory@PAVCShaderParam@Eyes_dx9@@H@@QAEXXZ 101e9410 f i eyes_dx9.obj
 0002:000d04c0       ?Purge@?$CUtlMemory@PAVCShaderParam@eyes@@H@@QAEXXZ 101e94c0 f i eyes_dx9.obj
 0002:000d0570       ?Purge@?$CUtlVector@PAVCShaderParam@Eyes_dx9@@V?$CUtlMemory@PAVCShaderParam@Eyes_dx9@@H@@@@QAEXXZ 101e9570 f i eyes_dx9.obj
 0002:000d05e0       ?Purge@?$CUtlVector@PAVCShaderParam@eyes@@V?$CUtlMemory@PAVCShaderParam@eyes@@H@@@@QAEXXZ 101e95e0 f i eyes_dx9.obj
 0002:000d0650       ?RemoveAll@?$CUtlVector@PAVCShaderParam@Eyes_dx9@@V?$CUtlMemory@PAVCShaderParam@Eyes_dx9@@H@@@@QAEXXZ 101e9650 f i eyes_dx9.obj
 0002:000d06e0       ?RemoveAll@?$CUtlVector@PAVCShaderParam@eyes@@V?$CUtlMemory@PAVCShaderParam@eyes@@H@@@@QAEXXZ 101e96e0 f i eyes_dx9.obj
 0002:000d0770       ?ResetDbgInfo@?$CUtlVector@PAVCShaderParam@Eyes_dx9@@V?$CUtlMemory@PAVCShaderParam@Eyes_dx9@@H@@@@IAEXXZ 101e9770 f i eyes_dx9.obj
 0002:000d07d0       ?ResetDbgInfo@?$CUtlVector@PAVCShaderParam@eyes@@V?$CUtlMemory@PAVCShaderParam@eyes@@H@@@@IAEXXZ 101e97d0 f i eyes_dx9.obj
 0002:000d0830       ?SetupVars@CShader@Eyes_dx9@@QAEXAAUEyes_DX8_DX9_Vars_t@@@Z 101e9830 f i eyes_dx9.obj
 0002:000d09a0       ?ShiftElementsRight@?$CUtlVector@PAVCShaderParam@Eyes_dx9@@V?$CUtlMemory@PAVCShaderParam@Eyes_dx9@@H@@@@IAEXHH@Z 101e99a0 f i eyes_dx9.obj
 0002:000d0b40       ?ValidateGrowSize@?$CUtlMemory@PAVCShaderParam@Eyes_dx9@@H@@IAEXXZ 101e9b40 f i eyes_dx9.obj
 0002:000d0b80       ?ValidateGrowSize@?$CUtlMemory@PAVCShaderParam@eyes@@H@@IAEXXZ 101e9b80 f i eyes_dx9.obj
 0002:000d0bc0       ??$CopyConstruct@PAVCShaderParam@EyeRefract_dx9@@@@YAPAPAVCShaderParam@EyeRefract_dx9@@PAPAV01@ABQAV01@@Z 101e9bc0 f i eye_refract.obj
 0002:000d0c60       ??$Destruct@PAVCShaderParam@EyeRefract@@@@YAXPAPAVCShaderParam@EyeRefract@@@Z 101e9c60 f i eye_refract.obj
 0002:000d0cc0       ??$Destruct@PAVCShaderParam@EyeRefract_dx9@@@@YAXPAPAVCShaderParam@EyeRefract_dx9@@@Z 101e9cc0 f i eye_refract.obj
 0002:000d0d20       ??$MemAllocClassName@V?$CUtlMemory@PAVCShaderParam@EyeRefract@@H@@@@YAPBDPAV?$CUtlMemory@PAVCShaderParam@EyeRefract@@H@@@Z 101e9d20 f i eye_refract.obj
 0002:000d0da0       ??$MemAllocClassName@V?$CUtlMemory@PAVCShaderParam@EyeRefract_dx9@@H@@@@YAPBDPAV?$CUtlMemory@PAVCShaderParam@EyeRefract_dx9@@H@@@Z 101e9da0 f i eye_refract.obj
 0002:000d0e20       ??$MemAllocClassName@V?$CUtlVector@PAVCShaderParam@EyeRefract_dx9@@V?$CUtlMemory@PAVCShaderParam@EyeRefract_dx9@@H@@@@@@YAPBDPAV?$CUtlVector@PAVCShaderParam@EyeRefract_dx9@@V?$CUtlMemory@PAVCShaderParam@EyeRefract_dx9@@H@@@@@Z 101e9e20 f i eye_refract.obj
 0002:000d0ea0       ??0?$CUtlMemory@PAVCShaderParam@EyeRefract@@H@@QAE@HH@Z 101e9ea0 f i eye_refract.obj
 0002:000d1090       ??0?$CUtlMemory@PAVCShaderParam@EyeRefract_dx9@@H@@QAE@HH@Z 101ea090 f i eye_refract.obj
 0002:000d1280       ??0?$CUtlVector@PAVCShaderParam@EyeRefract@@V?$CUtlMemory@PAVCShaderParam@EyeRefract@@H@@@@QAE@HH@Z 101ea280 f i eye_refract.obj
 0002:000d1300       ??0?$CUtlVector@PAVCShaderParam@EyeRefract_dx9@@V?$CUtlMemory@PAVCShaderParam@EyeRefract_dx9@@H@@@@QAE@HH@Z 101ea300 f i eye_refract.obj
 0002:000d1380       ??0CShader@EyeRefract@@QAE@XZ 101ea380 f i eye_refract.obj
 0002:000d13e0       ??0CShader@EyeRefract_dx9@@QAE@XZ 101ea3e0 f i eye_refract.obj
 0002:000d1440       ??0CShaderParam@EyeRefract_dx9@@QAE@PBDW4ShaderParamType_t@@00H@Z 101ea440 f i eye_refract.obj
 0002:000d1500       ??0CloakBlendedPassVars_t@@QAE@XZ 101ea500 f i eye_refract.obj
 0002:000d1560       ??0EmissiveScrollBlendedPassVars_t@@QAE@XZ 101ea560 f i eye_refract.obj
 0002:000d15c0       ??0Eye_Refract_Vars_t@@QAE@XZ 101ea5c0 f i eye_refract.obj
 0002:000d1620       ??1?$CUtlMemory@PAVCShaderParam@EyeRefract@@H@@QAE@XZ 101ea620 f i eye_refract.obj
 0002:000d1670       ??1?$CUtlMemory@PAVCShaderParam@EyeRefract_dx9@@H@@QAE@XZ 101ea670 f i eye_refract.obj
 0002:000d16c0       ??1?$CUtlVector@PAVCShaderParam@EyeRefract@@V?$CUtlMemory@PAVCShaderParam@EyeRefract@@H@@@@QAE@XZ 101ea6c0 f i eye_refract.obj
 0002:000d1720       ??1?$CUtlVector@PAVCShaderParam@EyeRefract_dx9@@V?$CUtlMemory@PAVCShaderParam@EyeRefract_dx9@@H@@@@QAE@XZ 101ea720 f i eye_refract.obj
 0002:000d1780       ??A?$CUtlMemory@PAVCShaderParam@EyeRefract@@H@@QAEAAPAVCShaderParam@EyeRefract@@H@Z 101ea780 f i eye_refract.obj
 0002:000d1980       ??A?$CUtlMemory@PAVCShaderParam@EyeRefract_dx9@@H@@QAEAAPAVCShaderParam@EyeRefract_dx9@@H@Z 101ea980 f i eye_refract.obj
 0002:000d1b80       ??A?$CUtlVector@PAVCShaderParam@EyeRefract@@V?$CUtlMemory@PAVCShaderParam@EyeRefract@@H@@@@QAEAAPAVCShaderParam@EyeRefract@@H@Z 101eab80 f i eye_refract.obj
 0002:000d1cb0       ??A?$CUtlVector@PAVCShaderParam@EyeRefract_dx9@@V?$CUtlMemory@PAVCShaderParam@EyeRefract_dx9@@H@@@@QAEAAPAVCShaderParam@EyeRefract_dx9@@H@Z 101eacb0 f i eye_refract.obj
 0002:000d1de0       ??BCShaderParam@EyeRefract_dx9@@QAEHXZ 101eade0 f i eye_refract.obj
 0002:000d1e20       ?AddToTail@?$CUtlVector@PAVCShaderParam@EyeRefract_dx9@@V?$CUtlMemory@PAVCShaderParam@EyeRefract_dx9@@H@@@@QAEHABQAVCShaderParam@EyeRefract_dx9@@@Z 101eae20 f i eye_refract.obj
 0002:000d1f90       ?Base@?$CUtlMemory@PAVCShaderParam@EyeRefract@@H@@QAEPAPAVCShaderParam@EyeRefract@@XZ 101eaf90 f i eye_refract.obj
 0002:000d20b0       ?Base@?$CUtlMemory@PAVCShaderParam@EyeRefract_dx9@@H@@QAEPAPAVCShaderParam@EyeRefract_dx9@@XZ 101eb0b0 f i eye_refract.obj
 0002:000d21d0       ?Base@?$CUtlVector@PAVCShaderParam@EyeRefract@@V?$CUtlMemory@PAVCShaderParam@EyeRefract@@H@@@@QAEPAPAVCShaderParam@EyeRefract@@XZ 101eb1d0 f i eye_refract.obj
 0002:000d2220       ?Base@?$CUtlVector@PAVCShaderParam@EyeRefract_dx9@@V?$CUtlMemory@PAVCShaderParam@EyeRefract_dx9@@H@@@@QAEPAPAVCShaderParam@EyeRefract_dx9@@XZ 101eb220 f i eye_refract.obj
 0002:000d2270       ?Count@?$CUtlVector@PAVCShaderParam@EyeRefract@@V?$CUtlMemory@PAVCShaderParam@EyeRefract@@H@@@@QBEHXZ 101eb270 f i eye_refract.obj
 0002:000d22b0       ?Count@?$CUtlVector@PAVCShaderParam@EyeRefract_dx9@@V?$CUtlMemory@PAVCShaderParam@EyeRefract_dx9@@H@@@@QBEHXZ 101eb2b0 f i eye_refract.obj
 0002:000d22f0       ?Element@?$CUtlVector@PAVCShaderParam@EyeRefract@@V?$CUtlMemory@PAVCShaderParam@EyeRefract@@H@@@@QAEAAPAVCShaderParam@EyeRefract@@H@Z 101eb2f0 f i eye_refract.obj
 0002:000d2420       ?Element@?$CUtlVector@PAVCShaderParam@EyeRefract_dx9@@V?$CUtlMemory@PAVCShaderParam@EyeRefract_dx9@@H@@@@QAEAAPAVCShaderParam@EyeRefract_dx9@@H@Z 101eb420 f i eye_refract.obj
 0002:000d2550       ?GetFallbackShader@CShader@EyeRefract@@UBEPBDPAPAVIMaterialVar@@@Z 101eb550 f i eye_refract.obj
 0002:000d2590       ?GetFallbackShader@CShader@EyeRefract_dx9@@UBEPBDPAPAVIMaterialVar@@@Z 101eb590 f i eye_refract.obj
 0002:000d25d0       ?GetFlags@CShader@EyeRefract@@UBEHXZ 101eb5d0 f i eye_refract.obj
 0002:000d2610       ?GetFlags@CShader@EyeRefract_dx9@@UBEHXZ 101eb610 f i eye_refract.obj
 0002:000d2650       ?GetInfo@CShaderParam@EyeRefract@@QBEABUShaderParamInfo_t@@XZ 101eb650 f i eye_refract.obj
 0002:000d2690       ?GetInfo@CShaderParam@EyeRefract_dx9@@QBEABUShaderParamInfo_t@@XZ 101eb690 f i eye_refract.obj
 0002:000d26d0       ?GetName@CShader@EyeRefract@@UBEPBDXZ 101eb6d0 f i eye_refract.obj
 0002:000d2710       ?GetName@CShader@EyeRefract_dx9@@UBEPBDXZ 101eb710 f i eye_refract.obj
 0002:000d2750       ?GetParamCount@CShader@EyeRefract@@UBEHXZ 101eb750 f i eye_refract.obj
 0002:000d27b0       ?GetParamCount@CShader@EyeRefract_dx9@@UBEHXZ 101eb7b0 f i eye_refract.obj
 0002:000d2810       ?GetParamInfo@CShader@EyeRefract@@UBEABUShaderParamInfo_t@@H@Z 101eb810 f i eye_refract.obj
 0002:000d28b0       ?GetParamInfo@CShader@EyeRefract_dx9@@UBEABUShaderParamInfo_t@@H@Z 101eb8b0 f i eye_refract.obj
 0002:000d2950       ?Grow@?$CUtlMemory@PAVCShaderParam@EyeRefract_dx9@@H@@QAEXH@Z 101eb950 f i eye_refract.obj
 0002:000d2fc0       ?GrowVector@?$CUtlVector@PAVCShaderParam@EyeRefract_dx9@@V?$CUtlMemory@PAVCShaderParam@EyeRefract_dx9@@H@@@@IAEXH@Z 101ebfc0 f i eye_refract.obj
 0002:000d30e0       ?InsertBefore@?$CUtlVector@PAVCShaderParam@EyeRefract_dx9@@V?$CUtlMemory@PAVCShaderParam@EyeRefract_dx9@@H@@@@QAEHHABQAVCShaderParam@EyeRefract_dx9@@@Z 101ec0e0 f i eye_refract.obj
 0002:000d3360       ?IsExternallyAllocated@?$CUtlMemory@PAVCShaderParam@EyeRefract@@H@@QBE_NXZ 101ec360 f i eye_refract.obj
 0002:000d33d0       ?IsExternallyAllocated@?$CUtlMemory@PAVCShaderParam@EyeRefract_dx9@@H@@QBE_NXZ 101ec3d0 f i eye_refract.obj
 0002:000d3440       ?IsIdxValid@?$CUtlMemory@PAVCShaderParam@EyeRefract@@H@@QBE_NH@Z 101ec440 f i eye_refract.obj
 0002:000d34c0       ?IsIdxValid@?$CUtlMemory@PAVCShaderParam@EyeRefract_dx9@@H@@QBE_NH@Z 101ec4c0 f i eye_refract.obj
 0002:000d3540       ?IsReadOnly@?$CUtlMemory@PAVCShaderParam@EyeRefract@@H@@QBE_NXZ 101ec540 f i eye_refract.obj
 0002:000d35b0       ?IsReadOnly@?$CUtlMemory@PAVCShaderParam@EyeRefract_dx9@@H@@QBE_NXZ 101ec5b0 f i eye_refract.obj
 0002:000d3620       ?IsTranslucent@CShader@EyeRefract_dx9@@UBE_NPAPAVIMaterialVar@@@Z 101ec620 f i eye_refract.obj
 0002:000d3710       ?IsValidIndex@?$CUtlVector@PAVCShaderParam@EyeRefract_dx9@@V?$CUtlMemory@PAVCShaderParam@EyeRefract_dx9@@H@@@@QBE_NH@Z 101ec710 f i eye_refract.obj
 0002:000d3780       ?NeedsPowerOfTwoFrameBufferTexture@CShader@EyeRefract_dx9@@UBE_NPAPAVIMaterialVar@@_N@Z 101ec780 f i eye_refract.obj
 0002:000d3880       ?NumAllocated@?$CUtlMemory@PAVCShaderParam@EyeRefract_dx9@@H@@QBEHXZ 101ec880 f i eye_refract.obj
 0002:000d38c0       ?OnDrawElements@CShader@EyeRefract@@UAEXPAPAVIMaterialVar@@PAVIShaderShadow@@PAVIShaderDynamicAPI@@W4VertexCompressionType_t@@PAPAVCBasePerMaterialContextData@@@Z 101ec8c0 f i eye_refract.obj
 0002:000d3900       ?OnDrawElements@CShader@EyeRefract_dx9@@UAEXPAPAVIMaterialVar@@PAVIShaderShadow@@PAVIShaderDynamicAPI@@W4VertexCompressionType_t@@PAPAVCBasePerMaterialContextData@@@Z 101ec900 f i eye_refract.obj
 0002:000d3c40       ?OnInitShaderInstance@CShader@EyeRefract@@UAEXPAPAVIMaterialVar@@PAVIShaderInit@@PBD@Z 101ecc40 f i eye_refract.obj
 0002:000d3c80       ?OnInitShaderInstance@CShader@EyeRefract_dx9@@UAEXPAPAVIMaterialVar@@PAVIShaderInit@@PBD@Z 101ecc80 f i eye_refract.obj
 0002:000d3e20       ?OnInitShaderParams@CShader@EyeRefract_dx9@@UAEXPAPAVIMaterialVar@@PBD@Z 101ece20 f i eye_refract.obj
 0002:000d40e0       ?Purge@?$CUtlMemory@PAVCShaderParam@EyeRefract@@H@@QAEXXZ 101ed0e0 f i eye_refract.obj
 0002:000d4190       ?Purge@?$CUtlMemory@PAVCShaderParam@EyeRefract_dx9@@H@@QAEXXZ 101ed190 f i eye_refract.obj
 0002:000d4240       ?Purge@?$CUtlVector@PAVCShaderParam@EyeRefract@@V?$CUtlMemory@PAVCShaderParam@EyeRefract@@H@@@@QAEXXZ 101ed240 f i eye_refract.obj
 0002:000d42b0       ?Purge@?$CUtlVector@PAVCShaderParam@EyeRefract_dx9@@V?$CUtlMemory@PAVCShaderParam@EyeRefract_dx9@@H@@@@QAEXXZ 101ed2b0 f i eye_refract.obj
 0002:000d4320       ?RemoveAll@?$CUtlVector@PAVCShaderParam@EyeRefract@@V?$CUtlMemory@PAVCShaderParam@EyeRefract@@H@@@@QAEXXZ 101ed320 f i eye_refract.obj
 0002:000d43b0       ?RemoveAll@?$CUtlVector@PAVCShaderParam@EyeRefract_dx9@@V?$CUtlMemory@PAVCShaderParam@EyeRefract_dx9@@H@@@@QAEXXZ 101ed3b0 f i eye_refract.obj
 0002:000d4440       ?ResetDbgInfo@?$CUtlVector@PAVCShaderParam@EyeRefract@@V?$CUtlMemory@PAVCShaderParam@EyeRefract@@H@@@@IAEXXZ 101ed440 f i eye_refract.obj
 0002:000d44a0       ?ResetDbgInfo@?$CUtlVector@PAVCShaderParam@EyeRefract_dx9@@V?$CUtlMemory@PAVCShaderParam@EyeRefract_dx9@@H@@@@IAEXXZ 101ed4a0 f i eye_refract.obj
 0002:000d4500       ?SetupVarsCloakBlendedPass@CShader@EyeRefract_dx9@@QAEXAAUCloakBlendedPassVars_t@@@Z 101ed500 f i eye_refract.obj
 0002:000d4590       ?SetupVarsEmissiveScrollBlendedPass@CShader@EyeRefract_dx9@@QAEXAAUEmissiveScrollBlendedPassVars_t@@@Z 101ed590 f i eye_refract.obj
 0002:000d4650       ?SetupVarsEyeRefract@CShader@EyeRefract_dx9@@QAEXAAUEye_Refract_Vars_t@@@Z 101ed650 f i eye_refract.obj
 0002:000d4850       ?ShiftElementsRight@?$CUtlVector@PAVCShaderParam@EyeRefract_dx9@@V?$CUtlMemory@PAVCShaderParam@EyeRefract_dx9@@H@@@@IAEXHH@Z 101ed850 f i eye_refract.obj
 0002:000d49f0       ?ValidateGrowSize@?$CUtlMemory@PAVCShaderParam@EyeRefract@@H@@IAEXXZ 101ed9f0 f i eye_refract.obj
 0002:000d4a30       ?ValidateGrowSize@?$CUtlMemory@PAVCShaderParam@EyeRefract_dx9@@H@@IAEXXZ 101eda30 f i eye_refract.obj
 0002:000d4a70       ??0FlashlightState_t@@QAE@XZ 101eda70 f i eye_refract_helper.obj
 0002:000d4d50       ??0Quaternion@@QAE@XZ      101edd50 f i eye_refract_helper.obj
 0002:000d4d90       ??0UberlightState_t@@QAE@XZ 101edd90 f i eye_refract_helper.obj
 0002:000d4eb0       ??0Vector@@QAE@XZ          101edeb0 f i eye_refract_helper.obj
 0002:000d4ef0       ??0eye_refract_ps20b_Dynamic_Index@@QAE@PAVIShaderDynamicAPI@@@Z 101edef0 f i eye_refract_helper.obj
 0002:000d4fc0       ??0eye_refract_ps20b_Static_Index@@QAE@PAVIShaderShadow@@PAPAVIMaterialVar@@@Z 101edfc0 f i eye_refract_helper.obj
 0002:000d5080       ??0eye_refract_ps30_Dynamic_Index@@QAE@PAVIShaderDynamicAPI@@@Z 101ee080 f i eye_refract_helper.obj
 0002:000d5160       ??0eye_refract_ps30_Static_Index@@QAE@PAVIShaderShadow@@PAPAVIMaterialVar@@@Z 101ee160 f i eye_refract_helper.obj
 0002:000d5220       ??0eye_refract_vs20_Dynamic_Index@@QAE@PAVIShaderDynamicAPI@@@Z 101ee220 f i eye_refract_helper.obj
 0002:000d5330       ??0eye_refract_vs20_Static_Index@@QAE@PAVIShaderShadow@@PAPAVIMaterialVar@@@Z 101ee330 f i eye_refract_helper.obj
 0002:000d5450       ??0eye_refract_vs30_Dynamic_Index@@QAE@PAVIShaderDynamicAPI@@@Z 101ee450 f i eye_refract_helper.obj
 0002:000d5590       ??0eye_refract_vs30_Static_Index@@QAE@PAVIShaderShadow@@PAPAVIMaterialVar@@@Z 101ee590 f i eye_refract_helper.obj
 0002:000d5680       ??4FlashlightState_t@@QAEAAU0@ABU0@@Z 101ee680 f i eye_refract_helper.obj
 0002:000d56f0       ?Base@Vector@@QAEPAMXZ     101ee6f0 f i eye_refract_helper.obj
 0002:000d5730       ?Draw_Eyes_Refract@@YAXPAVCBaseVSShader@@PAPAVIMaterialVar@@PAVIShaderDynamicAPI@@PAVIShaderShadow@@AAUEye_Refract_Vars_t@@W4VertexCompressionType_t@@@Z 101ee730 f   eye_refract_helper.obj
 0002:000d5800       ?Draw_Eyes_Refract_Internal@@YAXPAVCBaseVSShader@@PAPAVIMaterialVar@@PAVIShaderDynamicAPI@@PAVIShaderShadow@@_NAAUEye_Refract_Vars_t@@W4VertexCompressionType_t@@@Z 101ee800 f   eye_refract_helper.obj
 0002:000d9680       ?GetIndex@eye_refract_ps20b_Dynamic_Index@@QAEHXZ 101f2680 f i eye_refract_helper.obj
 0002:000d9800       ?GetIndex@eye_refract_ps20b_Static_Index@@QAEHXZ 101f2800 f i eye_refract_helper.obj
 0002:000d99e0       ?GetIndex@eye_refract_ps30_Dynamic_Index@@QAEHXZ 101f29e0 f i eye_refract_helper.obj
 0002:000d9b80       ?GetIndex@eye_refract_ps30_Static_Index@@QAEHXZ 101f2b80 f i eye_refract_helper.obj
 0002:000d9d60       ?GetIndex@eye_refract_vs20_Dynamic_Index@@QAEHXZ 101f2d60 f i eye_refract_helper.obj
 0002:000d9f30       ?GetIndex@eye_refract_vs20_Static_Index@@QAEHXZ 101f2f30 f i eye_refract_helper.obj
 0002:000da130       ?GetIndex@eye_refract_vs30_Dynamic_Index@@QAEHXZ 101f3130 f i eye_refract_helper.obj
 0002:000da320       ?GetIndex@eye_refract_vs30_Static_Index@@QAEHXZ 101f3320 f i eye_refract_helper.obj
 0002:000da520       ?InitParams_Eyes_Refract@@YAXPAVCBaseVSShader@@PAPAVIMaterialVar@@PBDAAUEye_Refract_Vars_t@@@Z 101f3520 f   eye_refract_helper.obj
 0002:000daaf0       ?Init_Eyes_Refract@@YAXPAVCBaseVSShader@@PAPAVIMaterialVar@@AAUEye_Refract_Vars_t@@@Z 101f3af0 f   eye_refract_helper.obj
 0002:000dabe0       ?SetCOMPRESSED_VERTS@eye_refract_vs20_Dynamic_Index@@QAEXH@Z 101f3be0 f i eye_refract_helper.obj
 0002:000dad10       ?SetCOMPRESSED_VERTS@eye_refract_vs30_Dynamic_Index@@QAEXH@Z 101f3d10 f i eye_refract_helper.obj
 0002:000dae40       ?SetDYNAMIC_LIGHT@eye_refract_vs20_Dynamic_Index@@QAEXH@Z 101f3e40 f i eye_refract_helper.obj
 0002:000daf70       ?SetDYNAMIC_LIGHT@eye_refract_vs30_Dynamic_Index@@QAEXH@Z 101f3f70 f i eye_refract_helper.obj
 0002:000db0a0       ?SetFLASHLIGHT@eye_refract_ps20b_Static_Index@@QAEXH@Z 101f40a0 f i eye_refract_helper.obj
 0002:000db1c0       ?SetFLASHLIGHT@eye_refract_ps30_Static_Index@@QAEXH@Z 101f41c0 f i eye_refract_helper.obj
 0002:000db2e0       ?SetFLASHLIGHT@eye_refract_vs20_Static_Index@@QAEXH@Z 101f42e0 f i eye_refract_helper.obj
 0002:000db400       ?SetFLASHLIGHT@eye_refract_vs30_Static_Index@@QAEXH@Z 101f4400 f i eye_refract_helper.obj
 0002:000db520       ?SetFLASHLIGHTDEPTHFILTERMODE@eye_refract_ps20b_Static_Index@@QAEXH@Z 101f4520 f i eye_refract_helper.obj
 0002:000db640       ?SetFLASHLIGHTDEPTHFILTERMODE@eye_refract_ps30_Static_Index@@QAEXH@Z 101f4640 f i eye_refract_helper.obj
 0002:000db760       ?SetFLASHLIGHTSHADOWS@eye_refract_ps20b_Dynamic_Index@@QAEX_N@Z 101f4760 f i eye_refract_helper.obj
 0002:000db7e0       ?SetFLASHLIGHTSHADOWS@eye_refract_ps30_Dynamic_Index@@QAEX_N@Z 101f47e0 f i eye_refract_helper.obj
 0002:000db860       ?SetHALFLAMBERT@eye_refract_vs20_Static_Index@@QAEX_N@Z 101f4860 f i eye_refract_helper.obj
 0002:000db8e0       ?SetHALFLAMBERT@eye_refract_vs30_Static_Index@@QAEX_N@Z 101f48e0 f i eye_refract_helper.obj
 0002:000db960       ?SetINTRO@eye_refract_vs20_Static_Index@@QAEXH@Z 101f4960 f i eye_refract_helper.obj
 0002:000dba80       ?SetINTRO@eye_refract_vs30_Static_Index@@QAEXH@Z 101f4a80 f i eye_refract_helper.obj
 0002:000dbba0       ?SetLIGHTWARPTEXTURE@eye_refract_ps20b_Static_Index@@QAEXH@Z 101f4ba0 f i eye_refract_helper.obj
 0002:000dbcc0       ?SetLIGHTWARPTEXTURE@eye_refract_ps30_Static_Index@@QAEXH@Z 101f4cc0 f i eye_refract_helper.obj
 0002:000dbde0       ?SetLIGHTWARPTEXTURE@eye_refract_vs20_Static_Index@@QAEXH@Z 101f4de0 f i eye_refract_helper.obj
 0002:000dbf00       ?SetLIGHTWARPTEXTURE@eye_refract_vs30_Static_Index@@QAEXH@Z 101f4f00 f i eye_refract_helper.obj
 0002:000dc020       ?SetNUM_LIGHTS@eye_refract_ps20b_Dynamic_Index@@QAEXH@Z 101f5020 f i eye_refract_helper.obj
 0002:000dc150       ?SetNUM_LIGHTS@eye_refract_ps30_Dynamic_Index@@QAEXH@Z 101f5150 f i eye_refract_helper.obj
 0002:000dc280       ?SetNUM_LIGHTS@eye_refract_vs20_Dynamic_Index@@QAEXH@Z 101f5280 f i eye_refract_helper.obj
 0002:000dc3b0       ?SetNUM_LIGHTS@eye_refract_vs30_Dynamic_Index@@QAEXH@Z 101f53b0 f i eye_refract_helper.obj
 0002:000dc4e0       ?SetRAYTRACESPHERE@eye_refract_ps20b_Static_Index@@QAEXH@Z 101f54e0 f i eye_refract_helper.obj
 0002:000dc600       ?SetRAYTRACESPHERE@eye_refract_ps30_Static_Index@@QAEXH@Z 101f5600 f i eye_refract_helper.obj
 0002:000dc720       ?SetSKINNING@eye_refract_vs20_Dynamic_Index@@QAEX_N@Z 101f5720 f i eye_refract_helper.obj
 0002:000dc7a0       ?SetSKINNING@eye_refract_vs30_Dynamic_Index@@QAEX_N@Z 101f57a0 f i eye_refract_helper.obj
 0002:000dc820       ?SetSPHERETEXKILLCOMBO@eye_refract_ps20b_Static_Index@@QAEXH@Z 101f5820 f i eye_refract_helper.obj
 0002:000dc940       ?SetSPHERETEXKILLCOMBO@eye_refract_ps30_Static_Index@@QAEXH@Z 101f5940 f i eye_refract_helper.obj
 0002:000dca60       ?SetTESSELLATION@eye_refract_vs20_Dynamic_Index@@QAEXH@Z 101f5a60 f i eye_refract_helper.obj
 0002:000dcb90       ?SetTESSELLATION@eye_refract_vs30_Dynamic_Index@@QAEXH@Z 101f5b90 f i eye_refract_helper.obj
 0002:000dccc0       ?SetUBERLIGHT@eye_refract_ps30_Dynamic_Index@@QAEX_N@Z 101f5cc0 f i eye_refract_helper.obj
 0002:000dcd40       ?SetWORLD_NORMAL@eye_refract_ps20b_Static_Index@@QAEXH@Z 101f5d40 f i eye_refract_helper.obj
 0002:000dce70       ?SetWORLD_NORMAL@eye_refract_ps30_Static_Index@@QAEX_N@Z 101f5e70 f i eye_refract_helper.obj
 0002:000dcef0       ?SetWORLD_NORMAL@eye_refract_vs20_Static_Index@@QAEXH@Z 101f5ef0 f i eye_refract_helper.obj
 0002:000dd010       ?SetWORLD_NORMAL@eye_refract_vs30_Static_Index@@QAEX_N@Z 101f6010 f i eye_refract_helper.obj
 0002:000dd090       ??$CopyConstruct@PAVCShaderParam@FilmDust@@@@YAPAPAVCShaderParam@FilmDust@@PAPAV01@ABQAV01@@Z 101f6090 f i filmdust.obj
 0002:000dd130       ??$Destruct@PAVCShaderParam@FilmDust@@@@YAXPAPAVCShaderParam@FilmDust@@@Z 101f6130 f i filmdust.obj
 0002:000dd190       ??$MemAllocClassName@V?$CUtlMemory@PAVCShaderParam@FilmDust@@H@@@@YAPBDPAV?$CUtlMemory@PAVCShaderParam@FilmDust@@H@@@Z 101f6190 f i filmdust.obj
 0002:000dd210       ??$MemAllocClassName@V?$CUtlVector@PAVCShaderParam@FilmDust@@V?$CUtlMemory@PAVCShaderParam@FilmDust@@H@@@@@@YAPBDPAV?$CUtlVector@PAVCShaderParam@FilmDust@@V?$CUtlMemory@PAVCShaderParam@FilmDust@@H@@@@@Z 101f6210 f i filmdust.obj
 0002:000dd290       ??0?$CUtlMemory@PAVCShaderParam@FilmDust@@H@@QAE@HH@Z 101f6290 f i filmdust.obj
 0002:000dd480       ??0?$CUtlVector@PAVCShaderParam@FilmDust@@V?$CUtlMemory@PAVCShaderParam@FilmDust@@H@@@@QAE@HH@Z 101f6480 f i filmdust.obj
 0002:000dd500       ??0CShader@FilmDust@@QAE@XZ 101f6500 f i filmdust.obj
 0002:000dd560       ??0CShaderParam@FilmDust@@QAE@PBDW4ShaderParamType_t@@00H@Z 101f6560 f i filmdust.obj
 0002:000dd620       ??0filmdust_ps20_Static_Index@@QAE@PAVIShaderShadow@@PAPAVIMaterialVar@@@Z 101f6620 f i filmdust.obj
 0002:000dd660       ??1?$CUtlMemory@PAVCShaderParam@FilmDust@@H@@QAE@XZ 101f6660 f i filmdust.obj
 0002:000dd6b0       ??1?$CUtlVector@PAVCShaderParam@FilmDust@@V?$CUtlMemory@PAVCShaderParam@FilmDust@@H@@@@QAE@XZ 101f66b0 f i filmdust.obj
 0002:000dd710       ??A?$CUtlMemory@PAVCShaderParam@FilmDust@@H@@QAEAAPAVCShaderParam@FilmDust@@H@Z 101f6710 f i filmdust.obj
 0002:000dd910       ??A?$CUtlVector@PAVCShaderParam@FilmDust@@V?$CUtlMemory@PAVCShaderParam@FilmDust@@H@@@@QAEAAPAVCShaderParam@FilmDust@@H@Z 101f6910 f i filmdust.obj
 0002:000dda40       ??BCShaderParam@FilmDust@@QAEHXZ 101f6a40 f i filmdust.obj
 0002:000dda80       ?AddToTail@?$CUtlVector@PAVCShaderParam@FilmDust@@V?$CUtlMemory@PAVCShaderParam@FilmDust@@H@@@@QAEHABQAVCShaderParam@FilmDust@@@Z 101f6a80 f i filmdust.obj
 0002:000ddbf0       ?Base@?$CUtlMemory@PAVCShaderParam@FilmDust@@H@@QAEPAPAVCShaderParam@FilmDust@@XZ 101f6bf0 f i filmdust.obj
 0002:000ddd10       ?Base@?$CUtlVector@PAVCShaderParam@FilmDust@@V?$CUtlMemory@PAVCShaderParam@FilmDust@@H@@@@QAEPAPAVCShaderParam@FilmDust@@XZ 101f6d10 f i filmdust.obj
 0002:000ddd60       ?Count@?$CUtlVector@PAVCShaderParam@FilmDust@@V?$CUtlMemory@PAVCShaderParam@FilmDust@@H@@@@QBEHXZ 101f6d60 f i filmdust.obj
 0002:000ddda0       ?Element@?$CUtlVector@PAVCShaderParam@FilmDust@@V?$CUtlMemory@PAVCShaderParam@FilmDust@@H@@@@QAEAAPAVCShaderParam@FilmDust@@H@Z 101f6da0 f i filmdust.obj
 0002:000dded0       ?GetFallbackShader@CShader@FilmDust@@UBEPBDPAPAVIMaterialVar@@@Z 101f6ed0 f i filmdust.obj
 0002:000ddf10       ?GetFlags@CShader@FilmDust@@UBEHXZ 101f6f10 f i filmdust.obj
 0002:000ddf50       ?GetIndex@filmdust_ps20_Static_Index@@QAEHXZ 101f6f50 f i filmdust.obj
 0002:000ddf90       ?GetInfo@CShaderParam@FilmDust@@QBEABUShaderParamInfo_t@@XZ 101f6f90 f i filmdust.obj
 0002:000ddfd0       ?GetName@CShader@FilmDust@@UBEPBDXZ 101f6fd0 f i filmdust.obj
 0002:000de010       ?GetParamCount@CShader@FilmDust@@UBEHXZ 101f7010 f i filmdust.obj
 0002:000de070       ?GetParamInfo@CShader@FilmDust@@UBEABUShaderParamInfo_t@@H@Z 101f7070 f i filmdust.obj
 0002:000de110       ?Grow@?$CUtlMemory@PAVCShaderParam@FilmDust@@H@@QAEXH@Z 101f7110 f i filmdust.obj
 0002:000de780       ?GrowVector@?$CUtlVector@PAVCShaderParam@FilmDust@@V?$CUtlMemory@PAVCShaderParam@FilmDust@@H@@@@IAEXH@Z 101f7780 f i filmdust.obj
 0002:000de8a0       ?InsertBefore@?$CUtlVector@PAVCShaderParam@FilmDust@@V?$CUtlMemory@PAVCShaderParam@FilmDust@@H@@@@QAEHHABQAVCShaderParam@FilmDust@@@Z 101f78a0 f i filmdust.obj
 0002:000deb20       ?IsExternallyAllocated@?$CUtlMemory@PAVCShaderParam@FilmDust@@H@@QBE_NXZ 101f7b20 f i filmdust.obj
 0002:000deb90       ?IsIdxValid@?$CUtlMemory@PAVCShaderParam@FilmDust@@H@@QBE_NH@Z 101f7b90 f i filmdust.obj
 0002:000dec10       ?IsReadOnly@?$CUtlMemory@PAVCShaderParam@FilmDust@@H@@QBE_NXZ 101f7c10 f i filmdust.obj
 0002:000dec80       ?IsValidIndex@?$CUtlVector@PAVCShaderParam@FilmDust@@V?$CUtlMemory@PAVCShaderParam@FilmDust@@H@@@@QBE_NH@Z 101f7c80 f i filmdust.obj
 0002:000decf0       ?NumAllocated@?$CUtlMemory@PAVCShaderParam@FilmDust@@H@@QBEHXZ 101f7cf0 f i filmdust.obj
 0002:000ded30       ?OnDrawElements@CShader@FilmDust@@UAEXPAPAVIMaterialVar@@PAVIShaderShadow@@PAVIShaderDynamicAPI@@W4VertexCompressionType_t@@PAPAVCBasePerMaterialContextData@@@Z 101f7d30 f i filmdust.obj
 0002:000df0c0       ?OnInitShaderInstance@CShader@FilmDust@@UAEXPAPAVIMaterialVar@@PAVIShaderInit@@PBD@Z 101f80c0 f i filmdust.obj
 0002:000df120       ?OnInitShaderParams@CShader@FilmDust@@UAEXPAPAVIMaterialVar@@PBD@Z 101f8120 f i filmdust.obj
 0002:000df180       ?Purge@?$CUtlMemory@PAVCShaderParam@FilmDust@@H@@QAEXXZ 101f8180 f i filmdust.obj
 0002:000df230       ?Purge@?$CUtlVector@PAVCShaderParam@FilmDust@@V?$CUtlMemory@PAVCShaderParam@FilmDust@@H@@@@QAEXXZ 101f8230 f i filmdust.obj
 0002:000df2a0       ?RemoveAll@?$CUtlVector@PAVCShaderParam@FilmDust@@V?$CUtlMemory@PAVCShaderParam@FilmDust@@H@@@@QAEXXZ 101f82a0 f i filmdust.obj
 0002:000df330       ?ResetDbgInfo@?$CUtlVector@PAVCShaderParam@FilmDust@@V?$CUtlMemory@PAVCShaderParam@FilmDust@@H@@@@IAEXXZ 101f8330 f i filmdust.obj
 0002:000df390       ?ShiftElementsRight@?$CUtlVector@PAVCShaderParam@FilmDust@@V?$CUtlMemory@PAVCShaderParam@FilmDust@@H@@@@IAEXHH@Z 101f8390 f i filmdust.obj
 0002:000df530       ?ValidateGrowSize@?$CUtlMemory@PAVCShaderParam@FilmDust@@H@@IAEXXZ 101f8530 f i filmdust.obj
 0002:000df570       ??$CopyConstruct@PAVCShaderParam@FilmGrain@@@@YAPAPAVCShaderParam@FilmGrain@@PAPAV01@ABQAV01@@Z 101f8570 f i filmgrain.obj
 0002:000df610       ??$Destruct@PAVCShaderParam@FilmGrain@@@@YAXPAPAVCShaderParam@FilmGrain@@@Z 101f8610 f i filmgrain.obj
 0002:000df670       ??$MemAllocClassName@V?$CUtlMemory@PAVCShaderParam@FilmGrain@@H@@@@YAPBDPAV?$CUtlMemory@PAVCShaderParam@FilmGrain@@H@@@Z 101f8670 f i filmgrain.obj
 0002:000df6f0       ??$MemAllocClassName@V?$CUtlVector@PAVCShaderParam@FilmGrain@@V?$CUtlMemory@PAVCShaderParam@FilmGrain@@H@@@@@@YAPBDPAV?$CUtlVector@PAVCShaderParam@FilmGrain@@V?$CUtlMemory@PAVCShaderParam@FilmGrain@@H@@@@@Z 101f86f0 f i filmgrain.obj
 0002:000df770       ??0?$CUtlMemory@PAVCShaderParam@FilmGrain@@H@@QAE@HH@Z 101f8770 f i filmgrain.obj
 0002:000df960       ??0?$CUtlVector@PAVCShaderParam@FilmGrain@@V?$CUtlMemory@PAVCShaderParam@FilmGrain@@H@@@@QAE@HH@Z 101f8960 f i filmgrain.obj
 0002:000df9e0       ??0CShader@FilmGrain@@QAE@XZ 101f89e0 f i filmgrain.obj
 0002:000dfa40       ??0CShaderParam@FilmGrain@@QAE@PBDW4ShaderParamType_t@@00H@Z 101f8a40 f i filmgrain.obj
 0002:000dfb00       ??0filmgrain_ps20_Static_Index@@QAE@PAVIShaderShadow@@PAPAVIMaterialVar@@@Z 101f8b00 f i filmgrain.obj
 0002:000dfb40       ??1?$CUtlMemory@PAVCShaderParam@FilmGrain@@H@@QAE@XZ 101f8b40 f i filmgrain.obj
 0002:000dfb90       ??1?$CUtlVector@PAVCShaderParam@FilmGrain@@V?$CUtlMemory@PAVCShaderParam@FilmGrain@@H@@@@QAE@XZ 101f8b90 f i filmgrain.obj
 0002:000dfbf0       ??A?$CUtlMemory@PAVCShaderParam@FilmGrain@@H@@QAEAAPAVCShaderParam@FilmGrain@@H@Z 101f8bf0 f i filmgrain.obj
 0002:000dfdf0       ??A?$CUtlVector@PAVCShaderParam@FilmGrain@@V?$CUtlMemory@PAVCShaderParam@FilmGrain@@H@@@@QAEAAPAVCShaderParam@FilmGrain@@H@Z 101f8df0 f i filmgrain.obj
 0002:000dff20       ??BCShaderParam@FilmGrain@@QAEHXZ 101f8f20 f i filmgrain.obj
 0002:000dff60       ?AddToTail@?$CUtlVector@PAVCShaderParam@FilmGrain@@V?$CUtlMemory@PAVCShaderParam@FilmGrain@@H@@@@QAEHABQAVCShaderParam@FilmGrain@@@Z 101f8f60 f i filmgrain.obj
 0002:000e00d0       ?Base@?$CUtlMemory@PAVCShaderParam@FilmGrain@@H@@QAEPAPAVCShaderParam@FilmGrain@@XZ 101f90d0 f i filmgrain.obj
 0002:000e01f0       ?Base@?$CUtlVector@PAVCShaderParam@FilmGrain@@V?$CUtlMemory@PAVCShaderParam@FilmGrain@@H@@@@QAEPAPAVCShaderParam@FilmGrain@@XZ 101f91f0 f i filmgrain.obj
 0002:000e0240       ?Count@?$CUtlVector@PAVCShaderParam@FilmGrain@@V?$CUtlMemory@PAVCShaderParam@FilmGrain@@H@@@@QBEHXZ 101f9240 f i filmgrain.obj
 0002:000e0280       ?Element@?$CUtlVector@PAVCShaderParam@FilmGrain@@V?$CUtlMemory@PAVCShaderParam@FilmGrain@@H@@@@QAEAAPAVCShaderParam@FilmGrain@@H@Z 101f9280 f i filmgrain.obj
 0002:000e03b0       ?GetFallbackShader@CShader@FilmGrain@@UBEPBDPAPAVIMaterialVar@@@Z 101f93b0 f i filmgrain.obj
 0002:000e03f0       ?GetFlags@CShader@FilmGrain@@UBEHXZ 101f93f0 f i filmgrain.obj
 0002:000e0430       ?GetIndex@filmgrain_ps20_Static_Index@@QAEHXZ 101f9430 f i filmgrain.obj
 0002:000e0470       ?GetInfo@CShaderParam@FilmGrain@@QBEABUShaderParamInfo_t@@XZ 101f9470 f i filmgrain.obj
 0002:000e04b0       ?GetName@CShader@FilmGrain@@UBEPBDXZ 101f94b0 f i filmgrain.obj
 0002:000e04f0       ?GetParamCount@CShader@FilmGrain@@UBEHXZ 101f94f0 f i filmgrain.obj
 0002:000e0550       ?GetParamInfo@CShader@FilmGrain@@UBEABUShaderParamInfo_t@@H@Z 101f9550 f i filmgrain.obj
 0002:000e05f0       ?Grow@?$CUtlMemory@PAVCShaderParam@FilmGrain@@H@@QAEXH@Z 101f95f0 f i filmgrain.obj
 0002:000e0c60       ?GrowVector@?$CUtlVector@PAVCShaderParam@FilmGrain@@V?$CUtlMemory@PAVCShaderParam@FilmGrain@@H@@@@IAEXH@Z 101f9c60 f i filmgrain.obj
 0002:000e0d80       ?InsertBefore@?$CUtlVector@PAVCShaderParam@FilmGrain@@V?$CUtlMemory@PAVCShaderParam@FilmGrain@@H@@@@QAEHHABQAVCShaderParam@FilmGrain@@@Z 101f9d80 f i filmgrain.obj
 0002:000e1000       ?IsExternallyAllocated@?$CUtlMemory@PAVCShaderParam@FilmGrain@@H@@QBE_NXZ 101fa000 f i filmgrain.obj
 0002:000e1070       ?IsIdxValid@?$CUtlMemory@PAVCShaderParam@FilmGrain@@H@@QBE_NH@Z 101fa070 f i filmgrain.obj
 0002:000e10f0       ?IsReadOnly@?$CUtlMemory@PAVCShaderParam@FilmGrain@@H@@QBE_NXZ 101fa0f0 f i filmgrain.obj
 0002:000e1160       ?IsValidIndex@?$CUtlVector@PAVCShaderParam@FilmGrain@@V?$CUtlMemory@PAVCShaderParam@FilmGrain@@H@@@@QBE_NH@Z 101fa160 f i filmgrain.obj
 0002:000e11d0       ?NumAllocated@?$CUtlMemory@PAVCShaderParam@FilmGrain@@H@@QBEHXZ 101fa1d0 f i filmgrain.obj
 0002:000e1210       ?OnDrawElements@CShader@FilmGrain@@UAEXPAPAVIMaterialVar@@PAVIShaderShadow@@PAVIShaderDynamicAPI@@W4VertexCompressionType_t@@PAPAVCBasePerMaterialContextData@@@Z 101fa210 f i filmgrain.obj
 0002:000e1580       ?OnInitShaderInstance@CShader@FilmGrain@@UAEXPAPAVIMaterialVar@@PAVIShaderInit@@PBD@Z 101fa580 f i filmgrain.obj
 0002:000e15e0       ?OnInitShaderParams@CShader@FilmGrain@@UAEXPAPAVIMaterialVar@@PBD@Z 101fa5e0 f i filmgrain.obj
 0002:000e1640       ?Purge@?$CUtlMemory@PAVCShaderParam@FilmGrain@@H@@QAEXXZ 101fa640 f i filmgrain.obj
 0002:000e16f0       ?Purge@?$CUtlVector@PAVCShaderParam@FilmGrain@@V?$CUtlMemory@PAVCShaderParam@FilmGrain@@H@@@@QAEXXZ 101fa6f0 f i filmgrain.obj
 0002:000e1760       ?RemoveAll@?$CUtlVector@PAVCShaderParam@FilmGrain@@V?$CUtlMemory@PAVCShaderParam@FilmGrain@@H@@@@QAEXXZ 101fa760 f i filmgrain.obj
 0002:000e17f0       ?ResetDbgInfo@?$CUtlVector@PAVCShaderParam@FilmGrain@@V?$CUtlMemory@PAVCShaderParam@FilmGrain@@H@@@@IAEXXZ 101fa7f0 f i filmgrain.obj
 0002:000e1850       ?ShiftElementsRight@?$CUtlVector@PAVCShaderParam@FilmGrain@@V?$CUtlMemory@PAVCShaderParam@FilmGrain@@H@@@@IAEXHH@Z 101fa850 f i filmgrain.obj
 0002:000e19f0       ?ValidateGrowSize@?$CUtlMemory@PAVCShaderParam@FilmGrain@@H@@IAEXXZ 101fa9f0 f i filmgrain.obj
 0002:000e1a30       ??$CopyConstruct@PAVCShaderParam@Flesh_dx9@@@@YAPAPAVCShaderParam@Flesh_dx9@@PAPAV01@ABQAV01@@Z 101faa30 f i flesh_dx9.obj
 0002:000e1ad0       ??$Destruct@PAVCShaderParam@Flesh@@@@YAXPAPAVCShaderParam@Flesh@@@Z 101faad0 f i flesh_dx9.obj
 0002:000e1b30       ??$Destruct@PAVCShaderParam@Flesh_dx9@@@@YAXPAPAVCShaderParam@Flesh_dx9@@@Z 101fab30 f i flesh_dx9.obj
 0002:000e1b90       ??$MemAllocClassName@V?$CUtlMemory@PAVCShaderParam@Flesh@@H@@@@YAPBDPAV?$CUtlMemory@PAVCShaderParam@Flesh@@H@@@Z 101fab90 f i flesh_dx9.obj
 0002:000e1c10       ??$MemAllocClassName@V?$CUtlMemory@PAVCShaderParam@Flesh_dx9@@H@@@@YAPBDPAV?$CUtlMemory@PAVCShaderParam@Flesh_dx9@@H@@@Z 101fac10 f i flesh_dx9.obj
 0002:000e1c90       ??$MemAllocClassName@V?$CUtlVector@PAVCShaderParam@Flesh_dx9@@V?$CUtlMemory@PAVCShaderParam@Flesh_dx9@@H@@@@@@YAPBDPAV?$CUtlVector@PAVCShaderParam@Flesh_dx9@@V?$CUtlMemory@PAVCShaderParam@Flesh_dx9@@H@@@@@Z 101fac90 f i flesh_dx9.obj
 0002:000e1d10       ??0?$CUtlMemory@PAVCShaderParam@Flesh@@H@@QAE@HH@Z 101fad10 f i flesh_dx9.obj
 0002:000e1f00       ??0?$CUtlMemory@PAVCShaderParam@Flesh_dx9@@H@@QAE@HH@Z 101faf00 f i flesh_dx9.obj
 0002:000e20f0       ??0?$CUtlVector@PAVCShaderParam@Flesh@@V?$CUtlMemory@PAVCShaderParam@Flesh@@H@@@@QAE@HH@Z 101fb0f0 f i flesh_dx9.obj
 0002:000e2170       ??0?$CUtlVector@PAVCShaderParam@Flesh_dx9@@V?$CUtlMemory@PAVCShaderParam@Flesh_dx9@@H@@@@QAE@HH@Z 101fb170 f i flesh_dx9.obj
 0002:000e21f0       ??0CShader@Flesh@@QAE@XZ   101fb1f0 f i flesh_dx9.obj
 0002:000e2250       ??0CShader@Flesh_dx9@@QAE@XZ 101fb250 f i flesh_dx9.obj
 0002:000e22b0       ??0CShaderParam@Flesh_dx9@@QAE@PBDW4ShaderParamType_t@@00H@Z 101fb2b0 f i flesh_dx9.obj
 0002:000e2370       ??0FleshVars_t@@QAE@XZ     101fb370 f i flesh_dx9.obj
 0002:000e23e0       ??1?$CUtlMemory@PAVCShaderParam@Flesh@@H@@QAE@XZ 101fb3e0 f i flesh_dx9.obj
 0002:000e2430       ??1?$CUtlMemory@PAVCShaderParam@Flesh_dx9@@H@@QAE@XZ 101fb430 f i flesh_dx9.obj
 0002:000e2480       ??1?$CUtlVector@PAVCShaderParam@Flesh@@V?$CUtlMemory@PAVCShaderParam@Flesh@@H@@@@QAE@XZ 101fb480 f i flesh_dx9.obj
 0002:000e24e0       ??1?$CUtlVector@PAVCShaderParam@Flesh_dx9@@V?$CUtlMemory@PAVCShaderParam@Flesh_dx9@@H@@@@QAE@XZ 101fb4e0 f i flesh_dx9.obj
 0002:000e2540       ??A?$CUtlMemory@PAVCShaderParam@Flesh@@H@@QAEAAPAVCShaderParam@Flesh@@H@Z 101fb540 f i flesh_dx9.obj
 0002:000e2740       ??A?$CUtlMemory@PAVCShaderParam@Flesh_dx9@@H@@QAEAAPAVCShaderParam@Flesh_dx9@@H@Z 101fb740 f i flesh_dx9.obj
 0002:000e2940       ??A?$CUtlVector@PAVCShaderParam@Flesh@@V?$CUtlMemory@PAVCShaderParam@Flesh@@H@@@@QAEAAPAVCShaderParam@Flesh@@H@Z 101fb940 f i flesh_dx9.obj
 0002:000e2a70       ??A?$CUtlVector@PAVCShaderParam@Flesh_dx9@@V?$CUtlMemory@PAVCShaderParam@Flesh_dx9@@H@@@@QAEAAPAVCShaderParam@Flesh_dx9@@H@Z 101fba70 f i flesh_dx9.obj
 0002:000e2ba0       ??BCShaderParam@Flesh_dx9@@QAEHXZ 101fbba0 f i flesh_dx9.obj
 0002:000e2be0       ?AddToTail@?$CUtlVector@PAVCShaderParam@Flesh_dx9@@V?$CUtlMemory@PAVCShaderParam@Flesh_dx9@@H@@@@QAEHABQAVCShaderParam@Flesh_dx9@@@Z 101fbbe0 f i flesh_dx9.obj
 0002:000e2d50       ?Base@?$CUtlMemory@PAVCShaderParam@Flesh@@H@@QAEPAPAVCShaderParam@Flesh@@XZ 101fbd50 f i flesh_dx9.obj
 0002:000e2e70       ?Base@?$CUtlMemory@PAVCShaderParam@Flesh_dx9@@H@@QAEPAPAVCShaderParam@Flesh_dx9@@XZ 101fbe70 f i flesh_dx9.obj
 0002:000e2f90       ?Base@?$CUtlVector@PAVCShaderParam@Flesh@@V?$CUtlMemory@PAVCShaderParam@Flesh@@H@@@@QAEPAPAVCShaderParam@Flesh@@XZ 101fbf90 f i flesh_dx9.obj
 0002:000e2fe0       ?Base@?$CUtlVector@PAVCShaderParam@Flesh_dx9@@V?$CUtlMemory@PAVCShaderParam@Flesh_dx9@@H@@@@QAEPAPAVCShaderParam@Flesh_dx9@@XZ 101fbfe0 f i flesh_dx9.obj
 0002:000e3030       ?Count@?$CUtlVector@PAVCShaderParam@Flesh@@V?$CUtlMemory@PAVCShaderParam@Flesh@@H@@@@QBEHXZ 101fc030 f i flesh_dx9.obj
 0002:000e3070       ?Count@?$CUtlVector@PAVCShaderParam@Flesh_dx9@@V?$CUtlMemory@PAVCShaderParam@Flesh_dx9@@H@@@@QBEHXZ 101fc070 f i flesh_dx9.obj
 0002:000e30b0       ?Element@?$CUtlVector@PAVCShaderParam@Flesh@@V?$CUtlMemory@PAVCShaderParam@Flesh@@H@@@@QAEAAPAVCShaderParam@Flesh@@H@Z 101fc0b0 f i flesh_dx9.obj
 0002:000e31e0       ?Element@?$CUtlVector@PAVCShaderParam@Flesh_dx9@@V?$CUtlMemory@PAVCShaderParam@Flesh_dx9@@H@@@@QAEAAPAVCShaderParam@Flesh_dx9@@H@Z 101fc1e0 f i flesh_dx9.obj
 0002:000e3310       ?GetFallbackShader@CShader@Flesh@@UBEPBDPAPAVIMaterialVar@@@Z 101fc310 f i flesh_dx9.obj
 0002:000e3350       ?GetFallbackShader@CShader@Flesh_dx9@@UBEPBDPAPAVIMaterialVar@@@Z 101fc350 f i flesh_dx9.obj
 0002:000e33d0       ?GetFlags@CShader@Flesh@@UBEHXZ 101fc3d0 f i flesh_dx9.obj
 0002:000e3410       ?GetFlags@CShader@Flesh_dx9@@UBEHXZ 101fc410 f i flesh_dx9.obj
 0002:000e3450       ?GetInfo@CShaderParam@Flesh@@QBEABUShaderParamInfo_t@@XZ 101fc450 f i flesh_dx9.obj
 0002:000e3490       ?GetInfo@CShaderParam@Flesh_dx9@@QBEABUShaderParamInfo_t@@XZ 101fc490 f i flesh_dx9.obj
 0002:000e34d0       ?GetName@CShader@Flesh@@UBEPBDXZ 101fc4d0 f i flesh_dx9.obj
 0002:000e3510       ?GetName@CShader@Flesh_dx9@@UBEPBDXZ 101fc510 f i flesh_dx9.obj
 0002:000e3550       ?GetParamCount@CShader@Flesh@@UBEHXZ 101fc550 f i flesh_dx9.obj
 0002:000e35b0       ?GetParamCount@CShader@Flesh_dx9@@UBEHXZ 101fc5b0 f i flesh_dx9.obj
 0002:000e3610       ?GetParamInfo@CShader@Flesh@@UBEABUShaderParamInfo_t@@H@Z 101fc610 f i flesh_dx9.obj
 0002:000e36b0       ?GetParamInfo@CShader@Flesh_dx9@@UBEABUShaderParamInfo_t@@H@Z 101fc6b0 f i flesh_dx9.obj
 0002:000e3750       ?Grow@?$CUtlMemory@PAVCShaderParam@Flesh_dx9@@H@@QAEXH@Z 101fc750 f i flesh_dx9.obj
 0002:000e3dc0       ?GrowVector@?$CUtlVector@PAVCShaderParam@Flesh_dx9@@V?$CUtlMemory@PAVCShaderParam@Flesh_dx9@@H@@@@IAEXH@Z 101fcdc0 f i flesh_dx9.obj
 0002:000e3ee0       ?InsertBefore@?$CUtlVector@PAVCShaderParam@Flesh_dx9@@V?$CUtlMemory@PAVCShaderParam@Flesh_dx9@@H@@@@QAEHHABQAVCShaderParam@Flesh_dx9@@@Z 101fcee0 f i flesh_dx9.obj
 0002:000e4160       ?IsExternallyAllocated@?$CUtlMemory@PAVCShaderParam@Flesh@@H@@QBE_NXZ 101fd160 f i flesh_dx9.obj
 0002:000e41d0       ?IsExternallyAllocated@?$CUtlMemory@PAVCShaderParam@Flesh_dx9@@H@@QBE_NXZ 101fd1d0 f i flesh_dx9.obj
 0002:000e4240       ?IsIdxValid@?$CUtlMemory@PAVCShaderParam@Flesh@@H@@QBE_NH@Z 101fd240 f i flesh_dx9.obj
 0002:000e42c0       ?IsIdxValid@?$CUtlMemory@PAVCShaderParam@Flesh_dx9@@H@@QBE_NH@Z 101fd2c0 f i flesh_dx9.obj
 0002:000e4340       ?IsReadOnly@?$CUtlMemory@PAVCShaderParam@Flesh@@H@@QBE_NXZ 101fd340 f i flesh_dx9.obj
 0002:000e43b0       ?IsReadOnly@?$CUtlMemory@PAVCShaderParam@Flesh_dx9@@H@@QBE_NXZ 101fd3b0 f i flesh_dx9.obj
 0002:000e4420       ?IsTranslucent@CShader@Flesh_dx9@@UBE_NPAPAVIMaterialVar@@@Z 101fd420 f i flesh_dx9.obj
 0002:000e44d0       ?IsValidIndex@?$CUtlVector@PAVCShaderParam@Flesh_dx9@@V?$CUtlMemory@PAVCShaderParam@Flesh_dx9@@H@@@@QBE_NH@Z 101fd4d0 f i flesh_dx9.obj
 0002:000e4540       ?NumAllocated@?$CUtlMemory@PAVCShaderParam@Flesh_dx9@@H@@QBEHXZ 101fd540 f i flesh_dx9.obj
 0002:000e4580       ?OnDrawElements@CShader@Flesh@@UAEXPAPAVIMaterialVar@@PAVIShaderShadow@@PAVIShaderDynamicAPI@@W4VertexCompressionType_t@@PAPAVCBasePerMaterialContextData@@@Z 101fd580 f i flesh_dx9.obj
 0002:000e45c0       ?OnDrawElements@CShader@Flesh_dx9@@UAEXPAPAVIMaterialVar@@PAVIShaderShadow@@PAVIShaderDynamicAPI@@W4VertexCompressionType_t@@PAPAVCBasePerMaterialContextData@@@Z 101fd5c0 f i flesh_dx9.obj
 0002:000e4690       ?OnInitShaderInstance@CShader@Flesh@@UAEXPAPAVIMaterialVar@@PAVIShaderInit@@PBD@Z 101fd690 f i flesh_dx9.obj
 0002:000e46d0       ?OnInitShaderInstance@CShader@Flesh_dx9@@UAEXPAPAVIMaterialVar@@PAVIShaderInit@@PBD@Z 101fd6d0 f i flesh_dx9.obj
 0002:000e4790       ?OnInitShaderParams@CShader@Flesh_dx9@@UAEXPAPAVIMaterialVar@@PBD@Z 101fd790 f i flesh_dx9.obj
 0002:000e4850       ?Purge@?$CUtlMemory@PAVCShaderParam@Flesh@@H@@QAEXXZ 101fd850 f i flesh_dx9.obj
 0002:000e4900       ?Purge@?$CUtlMemory@PAVCShaderParam@Flesh_dx9@@H@@QAEXXZ 101fd900 f i flesh_dx9.obj
 0002:000e49b0       ?Purge@?$CUtlVector@PAVCShaderParam@Flesh@@V?$CUtlMemory@PAVCShaderParam@Flesh@@H@@@@QAEXXZ 101fd9b0 f i flesh_dx9.obj
 0002:000e4a20       ?Purge@?$CUtlVector@PAVCShaderParam@Flesh_dx9@@V?$CUtlMemory@PAVCShaderParam@Flesh_dx9@@H@@@@QAEXXZ 101fda20 f i flesh_dx9.obj
 0002:000e4a90       ?RemoveAll@?$CUtlVector@PAVCShaderParam@Flesh@@V?$CUtlMemory@PAVCShaderParam@Flesh@@H@@@@QAEXXZ 101fda90 f i flesh_dx9.obj
 0002:000e4b20       ?RemoveAll@?$CUtlVector@PAVCShaderParam@Flesh_dx9@@V?$CUtlMemory@PAVCShaderParam@Flesh_dx9@@H@@@@QAEXXZ 101fdb20 f i flesh_dx9.obj
 0002:000e4bb0       ?ResetDbgInfo@?$CUtlVector@PAVCShaderParam@Flesh@@V?$CUtlMemory@PAVCShaderParam@Flesh@@H@@@@IAEXXZ 101fdbb0 f i flesh_dx9.obj
 0002:000e4c10       ?ResetDbgInfo@?$CUtlVector@PAVCShaderParam@Flesh_dx9@@V?$CUtlMemory@PAVCShaderParam@Flesh_dx9@@H@@@@IAEXXZ 101fdc10 f i flesh_dx9.obj
 0002:000e4c70       ?SetupVarsFlesh@CShader@Flesh_dx9@@QAEXAAUFleshVars_t@@@Z 101fdc70 f i flesh_dx9.obj
 0002:000e51a0       ?ShiftElementsRight@?$CUtlVector@PAVCShaderParam@Flesh_dx9@@V?$CUtlMemory@PAVCShaderParam@Flesh_dx9@@H@@@@IAEXHH@Z 101fe1a0 f i flesh_dx9.obj
 0002:000e5340       ?ValidateGrowSize@?$CUtlMemory@PAVCShaderParam@Flesh@@H@@IAEXXZ 101fe340 f i flesh_dx9.obj
 0002:000e5380       ?ValidateGrowSize@?$CUtlMemory@PAVCShaderParam@Flesh_dx9@@H@@IAEXXZ 101fe380 f i flesh_dx9.obj
 0002:000e53c0       ??$Put@H@?$CFixedCommandStorageBuffer@$0BJA@@@QAEXABH@Z 101fe3c0 f i flesh_helper.obj
 0002:000e5460       ??$Put@H@?$CFixedCommandStorageBuffer@$0ELA@@@QAEXABH@Z 101fe460 f i flesh_helper.obj
 0002:000e5500       ??$Put@M@?$CFixedCommandStorageBuffer@$0BJA@@@QAEXABM@Z 101fe500 f i flesh_helper.obj
 0002:000e55a0       ??$Put@PAX@?$CFixedCommandStorageBuffer@$0BJA@@@QAEXABQAX@Z 101fe5a0 f i flesh_helper.obj
 0002:000e5640       ??0?$CBaseCommandBufferBuilder@V?$CFixedCommandStorageBuffer@$0BJA@@@@@QAE@XZ 101fe640 f i flesh_helper.obj
 0002:000e56a0       ??0?$CBaseCommandBufferBuilder@V?$CFixedCommandStorageBuffer@$0ELA@@@@@QAE@XZ 101fe6a0 f i flesh_helper.obj
 0002:000e5700       ??0?$CCommandBufferBuilder@V?$CFixedCommandStorageBuffer@$0BJA@@@@@QAE@XZ 101fe700 f i flesh_helper.obj
 0002:000e5760       ??0?$CCommandBufferBuilder@V?$CFixedCommandStorageBuffer@$0ELA@@@@@QAE@XZ 101fe760 f i flesh_helper.obj
 0002:000e57c0       ??0?$CFixedCommandStorageBuffer@$0BJA@@@QAE@XZ 101fe7c0 f i flesh_helper.obj
 0002:000e5820       ??0?$CFixedCommandStorageBuffer@$0ELA@@@QAE@XZ 101fe820 f i flesh_helper.obj
 0002:000e5880       ??0CBasePerMaterialContextData@@QAE@XZ 101fe880 f i flesh_helper.obj
 0002:000e58e0       ??0CFlesh_DX9_Context@@QAE@XZ 101fe8e0 f i flesh_helper.obj
 0002:000e5950       ??0flesh_ps30_Dynamic_Index@@QAE@PAVIShaderDynamicAPI@@@Z 101fe950 f i flesh_helper.obj
 0002:000e5a30       ??0flesh_ps30_Static_Index@@QAE@PAVIShaderShadow@@PAPAVIMaterialVar@@@Z 101fea30 f i flesh_helper.obj
 0002:000e5ba0       ??0flesh_vs30_Dynamic_Index@@QAE@PAVIShaderDynamicAPI@@@Z 101feba0 f i flesh_helper.obj
 0002:000e5c70       ??0flesh_vs30_Static_Index@@QAE@PAVIShaderShadow@@PAPAVIMaterialVar@@@Z 101fec70 f i flesh_helper.obj
 0002:000e5cf0       ??1CBasePerMaterialContextData@@UAE@XZ 101fecf0 f i flesh_helper.obj
 0002:000e5d30       ??1CFlesh_DX9_Context@@UAE@XZ 101fed30 f i flesh_helper.obj
 0002:000e5d80       ??_GCBasePerMaterialContextData@@UAEPAXI@Z 101fed80 f i flesh_helper.obj
 0002:000e5d80       ??_ECBasePerMaterialContextData@@UAEPAXI@Z 101fed80 f i flesh_helper.obj
 0002:000e5df0       ??_GCFlesh_DX9_Context@@UAEPAXI@Z 101fedf0 f i flesh_helper.obj
 0002:000e5df0       ??_ECFlesh_DX9_Context@@UAEPAXI@Z 101fedf0 f i flesh_helper.obj
 0002:000e5e60       ?Base@?$CCommandBufferBuilder@V?$CFixedCommandStorageBuffer@$0BJA@@@@@QAEPAEXZ 101fee60 f i flesh_helper.obj
 0002:000e5eb0       ?Base@?$CCommandBufferBuilder@V?$CFixedCommandStorageBuffer@$0ELA@@@@@QAEPAEXZ 101feeb0 f i flesh_helper.obj
 0002:000e5f00       ?Base@?$CFixedCommandStorageBuffer@$0BJA@@@QAEPAEXZ 101fef00 f i flesh_helper.obj
 0002:000e5f40       ?Base@?$CFixedCommandStorageBuffer@$0ELA@@@QAEPAEXZ 101fef40 f i flesh_helper.obj
 0002:000e5f80       ?BindStandardTexture@?$CCommandBufferBuilder@V?$CFixedCommandStorageBuffer@$0BJA@@@@@QAEXW4Sampler_t@@W4StandardTextureId_t@@@Z 101fef80 f i flesh_helper.obj
 0002:000e6000       ?BindStandardTexture@?$CCommandBufferBuilder@V?$CFixedCommandStorageBuffer@$0ELA@@@@@QAEXW4Sampler_t@@W4StandardTextureId_t@@@Z 101ff000 f i flesh_helper.obj
 0002:000e6080       ?BindTexture@?$CCommandBufferBuilder@V?$CFixedCommandStorageBuffer@$0BJA@@@@@QAEXPAVCBaseShader@@W4Sampler_t@@HH@Z 101ff080 f i flesh_helper.obj
 0002:000e6100       ?BindTexture@?$CCommandBufferBuilder@V?$CFixedCommandStorageBuffer@$0BJA@@@@@QAEXPAVCBaseShader@@W4Sampler_t@@PAVITexture@@H@Z 101ff100 f i flesh_helper.obj
 0002:000e6260       ?BindTexture@?$CCommandBufferBuilder@V?$CFixedCommandStorageBuffer@$0BJA@@@@@QAEXW4Sampler_t@@H@Z 101ff260 f i flesh_helper.obj
 0002:000e63a0       ?BindTexture@?$CCommandBufferBuilder@V?$CFixedCommandStorageBuffer@$0ELA@@@@@QAEXPAVCBaseShader@@W4Sampler_t@@HH@Z 101ff3a0 f i flesh_helper.obj
 0002:000e6420       ?BindTexture@?$CCommandBufferBuilder@V?$CFixedCommandStorageBuffer@$0ELA@@@@@QAEXW4Sampler_t@@H@Z 101ff420 f i flesh_helper.obj
 0002:000e6560       ?Call@?$CCommandBufferBuilder@V?$CFixedCommandStorageBuffer@$0BJA@@@@@QAEXPAE@Z 101ff560 f i flesh_helper.obj
 0002:000e65d0       ?DrawFlesh@@YAXPAVCBaseVSShader@@PAPAVIMaterialVar@@PAVIShaderDynamicAPI@@PAVIShaderShadow@@AAUFleshVars_t@@W4VertexCompressionType_t@@PAPAVCBasePerMaterialContextData@@@Z 101ff5d0 f   flesh_helper.obj
 0002:000ea7b0       ?End@?$CCommandBufferBuilder@V?$CFixedCommandStorageBuffer@$0BJA@@@@@QAEXXZ 102037b0 f i flesh_helper.obj
 0002:000ea810       ?End@?$CCommandBufferBuilder@V?$CFixedCommandStorageBuffer@$0ELA@@@@@QAEXXZ 10203810 f i flesh_helper.obj
 0002:000ea870       ?EnsureCapacity@?$CFixedCommandStorageBuffer@$0BJA@@@QAEXI@Z 10203870 f i flesh_helper.obj
 0002:000ea9b0       ?EnsureCapacity@?$CFixedCommandStorageBuffer@$0ELA@@@QAEXI@Z 102039b0 f i flesh_helper.obj
 0002:000eaaf0       ?GetIndex@flesh_ps30_Dynamic_Index@@QAEHXZ 10203af0 f i flesh_helper.obj
 0002:000eac90       ?GetIndex@flesh_ps30_Static_Index@@QAEHXZ 10203c90 f i flesh_helper.obj
 0002:000eaf60       ?GetIndex@flesh_vs30_Dynamic_Index@@QAEHXZ 10203f60 f i flesh_helper.obj
 0002:000eb0e0       ?GetIndex@flesh_vs30_Static_Index@@QAEHXZ 102040e0 f i flesh_helper.obj
 0002:000eb240       ?InitFlesh@@YAXPAVCBaseVSShader@@PAPAVIMaterialVar@@AAUFleshVars_t@@@Z 10204240 f   flesh_helper.obj
 0002:000eb610       ?InitParamsFlesh@@YAXPAVCBaseVSShader@@PAPAVIMaterialVar@@PBDAAUFleshVars_t@@@Z 10204610 f   flesh_helper.obj
 0002:000ed160       ?OutputConstantData@?$CCommandBufferBuilder@V?$CFixedCommandStorageBuffer@$0BJA@@@@@QAEXPBM@Z 10206160 f i flesh_helper.obj
 0002:000ed240       ?Param@?$CBaseCommandBufferBuilder@V?$CFixedCommandStorageBuffer@$0ELA@@@@@QBEPAVIMaterialVar@@H@Z 10206240 f i flesh_helper.obj
 0002:000ed290       ?PutFloat@?$CFixedCommandStorageBuffer@$0BJA@@@QAEXM@Z 10206290 f i flesh_helper.obj
 0002:000ed2f0       ?PutInt@?$CFixedCommandStorageBuffer@$0BJA@@@QAEXH@Z 102062f0 f i flesh_helper.obj
 0002:000ed350       ?PutInt@?$CFixedCommandStorageBuffer@$0ELA@@@QAEXH@Z 10206350 f i flesh_helper.obj
 0002:000ed3b0       ?PutMemory@?$CFixedCommandStorageBuffer@$0BJA@@@QAEXPBXI@Z 102063b0 f i flesh_helper.obj
 0002:000ed460       ?PutMemory@?$CFixedCommandStorageBuffer@$0ELA@@@QAEXPBXI@Z 10206460 f i flesh_helper.obj
 0002:000ed510       ?PutPtr@?$CFixedCommandStorageBuffer@$0BJA@@@QAEXPAX@Z 10206510 f i flesh_helper.obj
 0002:000ed570       ?Reset@?$CCommandBufferBuilder@V?$CFixedCommandStorageBuffer@$0ELA@@@@@QAEXXZ 10206570 f i flesh_helper.obj
 0002:000ed5c0       ?Reset@?$CFixedCommandStorageBuffer@$0ELA@@@QAEXXZ 102065c0 f i flesh_helper.obj
 0002:000ed620       ?SetALPHABLEND@flesh_ps30_Static_Index@@QAEX_N@Z 10206620 f i flesh_helper.obj
 0002:000ed6a0       ?SetBACK_SCATTER@flesh_ps30_Static_Index@@QAEX_N@Z 102066a0 f i flesh_helper.obj
 0002:000ed720       ?SetCOMPRESSED_VERTS@flesh_vs30_Dynamic_Index@@QAEXH@Z 10206720 f i flesh_helper.obj
 0002:000ed840       ?SetDETAIL@flesh_ps30_Static_Index@@QAEX_N@Z 10206840 f i flesh_helper.obj
 0002:000ed8c0       ?SetEFFECTS@flesh_ps30_Static_Index@@QAEX_N@Z 102068c0 f i flesh_helper.obj
 0002:000ed940       ?SetFLASHLIGHT@flesh_ps30_Dynamic_Index@@QAEX_N@Z 10206940 f i flesh_helper.obj
 0002:000ed9c0       ?SetFLASHLIGHTDEPTHFILTERMODE@flesh_ps30_Static_Index@@QAEXH@Z 102069c0 f i flesh_helper.obj
 0002:000edaf0       ?SetFLASHLIGHTSHADOWS@flesh_ps30_Dynamic_Index@@QAEX_N@Z 10206af0 f i flesh_helper.obj
 0002:000edb70       ?SetFORWARD_SCATTER@flesh_ps30_Static_Index@@QAEX_N@Z 10206b70 f i flesh_helper.obj
 0002:000edbf0       ?SetFRESNEL_WARP@flesh_ps30_Static_Index@@QAEX_N@Z 10206bf0 f i flesh_helper.obj
 0002:000edc70       ?SetHIGH_PRECISION_DEPTH@flesh_ps30_Static_Index@@QAEX_N@Z 10206c70 f i flesh_helper.obj
 0002:000edcf0       ?SetINTERIOR_LAYER@flesh_ps30_Static_Index@@QAEX_N@Z 10206cf0 f i flesh_helper.obj
 0002:000edd70       ?SetIRIDESCENCE@flesh_ps30_Static_Index@@QAEX_N@Z 10206d70 f i flesh_helper.obj
 0002:000eddf0       ?SetNORMAL2SOFT@flesh_ps30_Static_Index@@QAEX_N@Z 10206df0 f i flesh_helper.obj
 0002:000ede70       ?SetNUM_LIGHTS@flesh_ps30_Dynamic_Index@@QAEXH@Z 10206e70 f i flesh_helper.obj
 0002:000edfa0       ?SetOPACITY_TEXTURE@flesh_ps30_Static_Index@@QAEX_N@Z 10206fa0 f i flesh_helper.obj
 0002:000ee020       ?SetPixelShaderConstant@?$CCommandBufferBuilder@V?$CFixedCommandStorageBuffer@$0BJA@@@@@QAEXHPBM@Z 10207020 f i flesh_helper.obj
 0002:000ee090       ?SetPixelShaderConstant@?$CCommandBufferBuilder@V?$CFixedCommandStorageBuffer@$0BJA@@@@@QAEXHPBMH@Z 10207090 f i flesh_helper.obj
 0002:000ee110       ?SetPixelShaderConstant@?$CCommandBufferBuilder@V?$CFixedCommandStorageBuffer@$0ELA@@@@@QAEXHPBMH@Z 10207110 f i flesh_helper.obj
 0002:000ee190       ?SetPixelShaderConstants@?$CCommandBufferBuilder@V?$CFixedCommandStorageBuffer@$0BJA@@@@@QAEXHH@Z 10207190 f i flesh_helper.obj
 0002:000ee210       ?SetPixelShaderConstants@?$CCommandBufferBuilder@V?$CFixedCommandStorageBuffer@$0ELA@@@@@QAEXHH@Z 10207210 f i flesh_helper.obj
 0002:000ee290       ?SetPixelShaderFogParams@?$CCommandBufferBuilder@V?$CFixedCommandStorageBuffer@$0BJA@@@@@QAEXH@Z 10207290 f i flesh_helper.obj
 0002:000ee300       ?SetSKINNING@flesh_vs30_Dynamic_Index@@QAEX_N@Z 10207300 f i flesh_helper.obj
 0002:000ee380       ?SetTINTING@flesh_ps30_Static_Index@@QAEX_N@Z 10207380 f i flesh_helper.obj
 0002:000ee400       ?SetTRANSMAT@flesh_ps30_Static_Index@@QAEX_N@Z 10207400 f i flesh_helper.obj
 0002:000ee480       ?SetVertexShaderConstant@?$CCommandBufferBuilder@V?$CFixedCommandStorageBuffer@$0ELA@@@@@QAEXHPBMH@Z 10207480 f i flesh_helper.obj
 0002:000ee510       ?SetVertexShaderTextureScaledTransform@?$CCommandBufferBuilder@V?$CFixedCommandStorageBuffer@$0ELA@@@@@QAEXHHH@Z 10207510 f i flesh_helper.obj
 0002:000eeaf0       ?pow@@YAMMM@Z              10207af0 f i flesh_helper.obj
 0002:000eeb60       _powf                      10207b60 f i flesh_helper.obj
 0002:000eebe0       ??0flesh_interior_blended_pass_ps20b_Dynamic_Index@@QAE@PAVIShaderDynamicAPI@@@Z 10207be0 f i flesh_interior_blended_pass_helper.obj
 0002:000eec20       ??0flesh_interior_blended_pass_ps20b_Static_Index@@QAE@PAVIShaderShadow@@PAPAVIMaterialVar@@@Z 10207c20 f i flesh_interior_blended_pass_helper.obj
 0002:000eec60       ??0flesh_interior_blended_pass_vs20_Dynamic_Index@@QAE@PAVIShaderDynamicAPI@@@Z 10207c60 f i flesh_interior_blended_pass_helper.obj
 0002:000eed60       ??0flesh_interior_blended_pass_vs20_Static_Index@@QAE@PAVIShaderShadow@@PAPAVIMaterialVar@@@Z 10207d60 f i flesh_interior_blended_pass_helper.obj
 0002:000eee30       ?DrawFleshInteriorBlendedPass@@YAXPAVCBaseVSShader@@PAPAVIMaterialVar@@PAVIShaderDynamicAPI@@PAVIShaderShadow@@AAUFleshInteriorBlendedPassVars_t@@W4VertexCompressionType_t@@@Z 10207e30 f   flesh_interior_blended_pass_helper.obj
 0002:000f09e0       ?GetIndex@flesh_interior_blended_pass_ps20b_Dynamic_Index@@QAEHXZ 102099e0 f i flesh_interior_blended_pass_helper.obj
 0002:000f0a20       ?GetIndex@flesh_interior_blended_pass_ps20b_Static_Index@@QAEHXZ 10209a20 f i flesh_interior_blended_pass_helper.obj
 0002:000f0a60       ?GetIndex@flesh_interior_blended_pass_vs20_Dynamic_Index@@QAEHXZ 10209a60 f i flesh_interior_blended_pass_helper.obj
 0002:000f0c10       ?GetIndex@flesh_interior_blended_pass_vs20_Static_Index@@QAEHXZ 10209c10 f i flesh_interior_blended_pass_helper.obj
 0002:000f0d90       ?InitFleshInteriorBlendedPass@@YAXPAVCBaseVSShader@@PAPAVIMaterialVar@@AAUFleshInteriorBlendedPassVars_t@@@Z 10209d90 f   flesh_interior_blended_pass_helper.obj
 0002:000f0e40       ?InitParamsFleshInteriorBlendedPass@@YAXPAVCBaseVSShader@@PAPAVIMaterialVar@@PBDAAUFleshInteriorBlendedPassVars_t@@@Z 10209e40 f   flesh_interior_blended_pass_helper.obj
 0002:000f1670       ?SetCOMPRESSED_VERTS@flesh_interior_blended_pass_vs20_Dynamic_Index@@QAEXH@Z 1020a670 f i flesh_interior_blended_pass_helper.obj
 0002:000f1790       ?SetDYNAMIC_LIGHT@flesh_interior_blended_pass_vs20_Dynamic_Index@@QAEXH@Z 1020a790 f i flesh_interior_blended_pass_helper.obj
 0002:000f18c0       ?SetHALFLAMBERT@flesh_interior_blended_pass_vs20_Static_Index@@QAEX_N@Z 1020a8c0 f i flesh_interior_blended_pass_helper.obj
 0002:000f1940       ?SetSKINNING@flesh_interior_blended_pass_vs20_Dynamic_Index@@QAEX_N@Z 1020a940 f i flesh_interior_blended_pass_helper.obj
 0002:000f19c0       ?SetSTATIC_LIGHT@flesh_interior_blended_pass_vs20_Dynamic_Index@@QAEXH@Z 1020a9c0 f i flesh_interior_blended_pass_helper.obj
 0002:000f1af0       ??$CopyConstruct@PAVCShaderParam@floatcombine@@@@YAPAPAVCShaderParam@floatcombine@@PAPAV01@ABQAV01@@Z 1020aaf0 f i floatcombine.obj
 0002:000f1b90       ??$Destruct@PAVCShaderParam@floatcombine@@@@YAXPAPAVCShaderParam@floatcombine@@@Z 1020ab90 f i floatcombine.obj
 0002:000f1bf0       ??$MemAllocClassName@V?$CUtlMemory@PAVCShaderParam@floatcombine@@H@@@@YAPBDPAV?$CUtlMemory@PAVCShaderParam@floatcombine@@H@@@Z 1020abf0 f i floatcombine.obj
 0002:000f1c70       ??$MemAllocClassName@V?$CUtlVector@PAVCShaderParam@floatcombine@@V?$CUtlMemory@PAVCShaderParam@floatcombine@@H@@@@@@YAPBDPAV?$CUtlVector@PAVCShaderParam@floatcombine@@V?$CUtlMemory@PAVCShaderParam@floatcombine@@H@@@@@Z 1020ac70 f i floatcombine.obj
 0002:000f1cf0       ??0?$CUtlMemory@PAVCShaderParam@floatcombine@@H@@QAE@HH@Z 1020acf0 f i floatcombine.obj
 0002:000f1ee0       ??0?$CUtlVector@PAVCShaderParam@floatcombine@@V?$CUtlMemory@PAVCShaderParam@floatcombine@@H@@@@QAE@HH@Z 1020aee0 f i floatcombine.obj
 0002:000f1f60       ??0CShader@floatcombine@@QAE@XZ 1020af60 f i floatcombine.obj
 0002:000f1fc0       ??0CShaderParam@floatcombine@@QAE@PBDW4ShaderParamType_t@@00H@Z 1020afc0 f i floatcombine.obj
 0002:000f2080       ??0floatcombine_ps20b_Dynamic_Index@@QAE@PAVIShaderDynamicAPI@@@Z 1020b080 f i floatcombine.obj
 0002:000f20c0       ??0floatcombine_ps20b_Static_Index@@QAE@PAVIShaderShadow@@PAPAVIMaterialVar@@@Z 1020b0c0 f i floatcombine.obj
 0002:000f2100       ??1?$CUtlMemory@PAVCShaderParam@floatcombine@@H@@QAE@XZ 1020b100 f i floatcombine.obj
 0002:000f2150       ??1?$CUtlVector@PAVCShaderParam@floatcombine@@V?$CUtlMemory@PAVCShaderParam@floatcombine@@H@@@@QAE@XZ 1020b150 f i floatcombine.obj
 0002:000f21b0       ??A?$CUtlMemory@PAVCShaderParam@floatcombine@@H@@QAEAAPAVCShaderParam@floatcombine@@H@Z 1020b1b0 f i floatcombine.obj
 0002:000f23b0       ??A?$CUtlVector@PAVCShaderParam@floatcombine@@V?$CUtlMemory@PAVCShaderParam@floatcombine@@H@@@@QAEAAPAVCShaderParam@floatcombine@@H@Z 1020b3b0 f i floatcombine.obj
 0002:000f24e0       ??BCShaderParam@floatcombine@@QAEHXZ 1020b4e0 f i floatcombine.obj
 0002:000f2520       ?AddToTail@?$CUtlVector@PAVCShaderParam@floatcombine@@V?$CUtlMemory@PAVCShaderParam@floatcombine@@H@@@@QAEHABQAVCShaderParam@floatcombine@@@Z 1020b520 f i floatcombine.obj
 0002:000f2690       ?Base@?$CUtlMemory@PAVCShaderParam@floatcombine@@H@@QAEPAPAVCShaderParam@floatcombine@@XZ 1020b690 f i floatcombine.obj
 0002:000f27b0       ?Base@?$CUtlVector@PAVCShaderParam@floatcombine@@V?$CUtlMemory@PAVCShaderParam@floatcombine@@H@@@@QAEPAPAVCShaderParam@floatcombine@@XZ 1020b7b0 f i floatcombine.obj
 0002:000f2800       ?Count@?$CUtlVector@PAVCShaderParam@floatcombine@@V?$CUtlMemory@PAVCShaderParam@floatcombine@@H@@@@QBEHXZ 1020b800 f i floatcombine.obj
 0002:000f2840       ?Element@?$CUtlVector@PAVCShaderParam@floatcombine@@V?$CUtlMemory@PAVCShaderParam@floatcombine@@H@@@@QAEAAPAVCShaderParam@floatcombine@@H@Z 1020b840 f i floatcombine.obj
 0002:000f2970       ?GetFallbackShader@CShader@floatcombine@@UBEPBDPAPAVIMaterialVar@@@Z 1020b970 f i floatcombine.obj
 0002:000f29b0       ?GetFlags@CShader@floatcombine@@UBEHXZ 1020b9b0 f i floatcombine.obj
 0002:000f29f0       ?GetIndex@floatcombine_ps20b_Dynamic_Index@@QAEHXZ 1020b9f0 f i floatcombine.obj
 0002:000f2a30       ?GetIndex@floatcombine_ps20b_Static_Index@@QAEHXZ 1020ba30 f i floatcombine.obj
 0002:000f2a70       ?GetInfo@CShaderParam@floatcombine@@QBEABUShaderParamInfo_t@@XZ 1020ba70 f i floatcombine.obj
 0002:000f2ab0       ?GetName@CShader@floatcombine@@UBEPBDXZ 1020bab0 f i floatcombine.obj
 0002:000f2af0       ?GetParamCount@CShader@floatcombine@@UBEHXZ 1020baf0 f i floatcombine.obj
 0002:000f2b50       ?GetParamInfo@CShader@floatcombine@@UBEABUShaderParamInfo_t@@H@Z 1020bb50 f i floatcombine.obj
 0002:000f2bf0       ?Grow@?$CUtlMemory@PAVCShaderParam@floatcombine@@H@@QAEXH@Z 1020bbf0 f i floatcombine.obj
 0002:000f3260       ?GrowVector@?$CUtlVector@PAVCShaderParam@floatcombine@@V?$CUtlMemory@PAVCShaderParam@floatcombine@@H@@@@IAEXH@Z 1020c260 f i floatcombine.obj
 0002:000f3380       ?InsertBefore@?$CUtlVector@PAVCShaderParam@floatcombine@@V?$CUtlMemory@PAVCShaderParam@floatcombine@@H@@@@QAEHHABQAVCShaderParam@floatcombine@@@Z 1020c380 f i floatcombine.obj
 0002:000f3600       ?IsExternallyAllocated@?$CUtlMemory@PAVCShaderParam@floatcombine@@H@@QBE_NXZ 1020c600 f i floatcombine.obj
 0002:000f3670       ?IsIdxValid@?$CUtlMemory@PAVCShaderParam@floatcombine@@H@@QBE_NH@Z 1020c670 f i floatcombine.obj
 0002:000f36f0       ?IsReadOnly@?$CUtlMemory@PAVCShaderParam@floatcombine@@H@@QBE_NXZ 1020c6f0 f i floatcombine.obj
 0002:000f3760       ?IsValidIndex@?$CUtlVector@PAVCShaderParam@floatcombine@@V?$CUtlMemory@PAVCShaderParam@floatcombine@@H@@@@QBE_NH@Z 1020c760 f i floatcombine.obj
 0002:000f37d0       ?NumAllocated@?$CUtlMemory@PAVCShaderParam@floatcombine@@H@@QBEHXZ 1020c7d0 f i floatcombine.obj
 0002:000f3810       ?OnDrawElements@CShader@floatcombine@@UAEXPAPAVIMaterialVar@@PAVIShaderShadow@@PAVIShaderDynamicAPI@@W4VertexCompressionType_t@@PAPAVCBasePerMaterialContextData@@@Z 1020c810 f i floatcombine.obj
 0002:000f3fc0       ?OnInitShaderInstance@CShader@floatcombine@@UAEXPAPAVIMaterialVar@@PAVIShaderInit@@PBD@Z 1020cfc0 f i floatcombine.obj
 0002:000f40c0       ?Purge@?$CUtlMemory@PAVCShaderParam@floatcombine@@H@@QAEXXZ 1020d0c0 f i floatcombine.obj
 0002:000f4170       ?Purge@?$CUtlVector@PAVCShaderParam@floatcombine@@V?$CUtlMemory@PAVCShaderParam@floatcombine@@H@@@@QAEXXZ 1020d170 f i floatcombine.obj
 0002:000f41e0       ?RemoveAll@?$CUtlVector@PAVCShaderParam@floatcombine@@V?$CUtlMemory@PAVCShaderParam@floatcombine@@H@@@@QAEXXZ 1020d1e0 f i floatcombine.obj
 0002:000f4270       ?ResetDbgInfo@?$CUtlVector@PAVCShaderParam@floatcombine@@V?$CUtlMemory@PAVCShaderParam@floatcombine@@H@@@@IAEXXZ 1020d270 f i floatcombine.obj
 0002:000f42d0       ?ShiftElementsRight@?$CUtlVector@PAVCShaderParam@floatcombine@@V?$CUtlMemory@PAVCShaderParam@floatcombine@@H@@@@IAEXHH@Z 1020d2d0 f i floatcombine.obj
 0002:000f4470       ?ValidateGrowSize@?$CUtlMemory@PAVCShaderParam@floatcombine@@H@@IAEXXZ 1020d470 f i floatcombine.obj
 0002:000f44b0       ??$CopyConstruct@PAVCShaderParam@floatcombine_autoexpose@@@@YAPAPAVCShaderParam@floatcombine_autoexpose@@PAPAV01@ABQAV01@@Z 1020d4b0 f i floatcombine_autoexpose.obj
 0002:000f4550       ??$Destruct@PAVCShaderParam@floatcombine_autoexpose@@@@YAXPAPAVCShaderParam@floatcombine_autoexpose@@@Z 1020d550 f i floatcombine_autoexpose.obj
 0002:000f45b0       ??$MemAllocClassName@V?$CUtlMemory@PAVCShaderParam@floatcombine_autoexpose@@H@@@@YAPBDPAV?$CUtlMemory@PAVCShaderParam@floatcombine_autoexpose@@H@@@Z 1020d5b0 f i floatcombine_autoexpose.obj
 0002:000f4630       ??$MemAllocClassName@V?$CUtlVector@PAVCShaderParam@floatcombine_autoexpose@@V?$CUtlMemory@PAVCShaderParam@floatcombine_autoexpose@@H@@@@@@YAPBDPAV?$CUtlVector@PAVCShaderParam@floatcombine_autoexpose@@V?$CUtlMemory@PAVCShaderParam@floatcombine_autoexpose@@H@@@@@Z 1020d630 f i floatcombine_autoexpose.obj
 0002:000f46b0       ??0?$CUtlMemory@PAVCShaderParam@floatcombine_autoexpose@@H@@QAE@HH@Z 1020d6b0 f i floatcombine_autoexpose.obj
 0002:000f48a0       ??0?$CUtlVector@PAVCShaderParam@floatcombine_autoexpose@@V?$CUtlMemory@PAVCShaderParam@floatcombine_autoexpose@@H@@@@QAE@HH@Z 1020d8a0 f i floatcombine_autoexpose.obj
 0002:000f4920       ??0CShader@floatcombine_autoexpose@@QAE@XZ 1020d920 f i floatcombine_autoexpose.obj
 0002:000f4980       ??0CShaderParam@floatcombine_autoexpose@@QAE@PBDW4ShaderParamType_t@@00H@Z 1020d980 f i floatcombine_autoexpose.obj
 0002:000f4a40       ??0floatcombine_autoexpose_ps20b_Dynamic_Index@@QAE@PAVIShaderDynamicAPI@@@Z 1020da40 f i floatcombine_autoexpose.obj
 0002:000f4a80       ??0floatcombine_autoexpose_ps20b_Static_Index@@QAE@PAVIShaderShadow@@PAPAVIMaterialVar@@@Z 1020da80 f i floatcombine_autoexpose.obj
 0002:000f4ac0       ??1?$CUtlMemory@PAVCShaderParam@floatcombine_autoexpose@@H@@QAE@XZ 1020dac0 f i floatcombine_autoexpose.obj
 0002:000f4b10       ??1?$CUtlVector@PAVCShaderParam@floatcombine_autoexpose@@V?$CUtlMemory@PAVCShaderParam@floatcombine_autoexpose@@H@@@@QAE@XZ 1020db10 f i floatcombine_autoexpose.obj
 0002:000f4b70       ??A?$CUtlMemory@PAVCShaderParam@floatcombine_autoexpose@@H@@QAEAAPAVCShaderParam@floatcombine_autoexpose@@H@Z 1020db70 f i floatcombine_autoexpose.obj
 0002:000f4d70       ??A?$CUtlVector@PAVCShaderParam@floatcombine_autoexpose@@V?$CUtlMemory@PAVCShaderParam@floatcombine_autoexpose@@H@@@@QAEAAPAVCShaderParam@floatcombine_autoexpose@@H@Z 1020dd70 f i floatcombine_autoexpose.obj
 0002:000f4ea0       ??BCShaderParam@floatcombine_autoexpose@@QAEHXZ 1020dea0 f i floatcombine_autoexpose.obj
 0002:000f4ee0       ?AddToTail@?$CUtlVector@PAVCShaderParam@floatcombine_autoexpose@@V?$CUtlMemory@PAVCShaderParam@floatcombine_autoexpose@@H@@@@QAEHABQAVCShaderParam@floatcombine_autoexpose@@@Z 1020dee0 f i floatcombine_autoexpose.obj
 0002:000f5050       ?Base@?$CUtlMemory@PAVCShaderParam@floatcombine_autoexpose@@H@@QAEPAPAVCShaderParam@floatcombine_autoexpose@@XZ 1020e050 f i floatcombine_autoexpose.obj
 0002:000f5170       ?Base@?$CUtlVector@PAVCShaderParam@floatcombine_autoexpose@@V?$CUtlMemory@PAVCShaderParam@floatcombine_autoexpose@@H@@@@QAEPAPAVCShaderParam@floatcombine_autoexpose@@XZ 1020e170 f i floatcombine_autoexpose.obj
 0002:000f51c0       ?Count@?$CUtlVector@PAVCShaderParam@floatcombine_autoexpose@@V?$CUtlMemory@PAVCShaderParam@floatcombine_autoexpose@@H@@@@QBEHXZ 1020e1c0 f i floatcombine_autoexpose.obj
 0002:000f5200       ?Element@?$CUtlVector@PAVCShaderParam@floatcombine_autoexpose@@V?$CUtlMemory@PAVCShaderParam@floatcombine_autoexpose@@H@@@@QAEAAPAVCShaderParam@floatcombine_autoexpose@@H@Z 1020e200 f i floatcombine_autoexpose.obj
 0002:000f5330       ?GetFallbackShader@CShader@floatcombine_autoexpose@@UBEPBDPAPAVIMaterialVar@@@Z 1020e330 f i floatcombine_autoexpose.obj
 0002:000f5370       ?GetFlags@CShader@floatcombine_autoexpose@@UBEHXZ 1020e370 f i floatcombine_autoexpose.obj
 0002:000f53b0       ?GetIndex@floatcombine_autoexpose_ps20b_Dynamic_Index@@QAEHXZ 1020e3b0 f i floatcombine_autoexpose.obj
 0002:000f53f0       ?GetIndex@floatcombine_autoexpose_ps20b_Static_Index@@QAEHXZ 1020e3f0 f i floatcombine_autoexpose.obj
 0002:000f5430       ?GetInfo@CShaderParam@floatcombine_autoexpose@@QBEABUShaderParamInfo_t@@XZ 1020e430 f i floatcombine_autoexpose.obj
 0002:000f5470       ?GetName@CShader@floatcombine_autoexpose@@UBEPBDXZ 1020e470 f i floatcombine_autoexpose.obj
 0002:000f54b0       ?GetParamCount@CShader@floatcombine_autoexpose@@UBEHXZ 1020e4b0 f i floatcombine_autoexpose.obj
 0002:000f5510       ?GetParamInfo@CShader@floatcombine_autoexpose@@UBEABUShaderParamInfo_t@@H@Z 1020e510 f i floatcombine_autoexpose.obj
 0002:000f55b0       ?Grow@?$CUtlMemory@PAVCShaderParam@floatcombine_autoexpose@@H@@QAEXH@Z 1020e5b0 f i floatcombine_autoexpose.obj
 0002:000f5c20       ?GrowVector@?$CUtlVector@PAVCShaderParam@floatcombine_autoexpose@@V?$CUtlMemory@PAVCShaderParam@floatcombine_autoexpose@@H@@@@IAEXH@Z 1020ec20 f i floatcombine_autoexpose.obj
 0002:000f5d40       ?InsertBefore@?$CUtlVector@PAVCShaderParam@floatcombine_autoexpose@@V?$CUtlMemory@PAVCShaderParam@floatcombine_autoexpose@@H@@@@QAEHHABQAVCShaderParam@floatcombine_autoexpose@@@Z 1020ed40 f i floatcombine_autoexpose.obj
 0002:000f5fc0       ?IsExternallyAllocated@?$CUtlMemory@PAVCShaderParam@floatcombine_autoexpose@@H@@QBE_NXZ 1020efc0 f i floatcombine_autoexpose.obj
 0002:000f6030       ?IsIdxValid@?$CUtlMemory@PAVCShaderParam@floatcombine_autoexpose@@H@@QBE_NH@Z 1020f030 f i floatcombine_autoexpose.obj
 0002:000f60b0       ?IsReadOnly@?$CUtlMemory@PAVCShaderParam@floatcombine_autoexpose@@H@@QBE_NXZ 1020f0b0 f i floatcombine_autoexpose.obj
 0002:000f6120       ?IsValidIndex@?$CUtlVector@PAVCShaderParam@floatcombine_autoexpose@@V?$CUtlMemory@PAVCShaderParam@floatcombine_autoexpose@@H@@@@QBE_NH@Z 1020f120 f i floatcombine_autoexpose.obj
 0002:000f6190       ?NumAllocated@?$CUtlMemory@PAVCShaderParam@floatcombine_autoexpose@@H@@QBEHXZ 1020f190 f i floatcombine_autoexpose.obj
 0002:000f61d0       ?OnDrawElements@CShader@floatcombine_autoexpose@@UAEXPAPAVIMaterialVar@@PAVIShaderShadow@@PAVIShaderDynamicAPI@@W4VertexCompressionType_t@@PAPAVCBasePerMaterialContextData@@@Z 1020f1d0 f i floatcombine_autoexpose.obj
 0002:000f6890       ?OnInitShaderInstance@CShader@floatcombine_autoexpose@@UAEXPAPAVIMaterialVar@@PAVIShaderInit@@PBD@Z 1020f890 f i floatcombine_autoexpose.obj
 0002:000f69f0       ?Purge@?$CUtlMemory@PAVCShaderParam@floatcombine_autoexpose@@H@@QAEXXZ 1020f9f0 f i floatcombine_autoexpose.obj
 0002:000f6aa0       ?Purge@?$CUtlVector@PAVCShaderParam@floatcombine_autoexpose@@V?$CUtlMemory@PAVCShaderParam@floatcombine_autoexpose@@H@@@@QAEXXZ 1020faa0 f i floatcombine_autoexpose.obj
 0002:000f6b10       ?RemoveAll@?$CUtlVector@PAVCShaderParam@floatcombine_autoexpose@@V?$CUtlMemory@PAVCShaderParam@floatcombine_autoexpose@@H@@@@QAEXXZ 1020fb10 f i floatcombine_autoexpose.obj
 0002:000f6ba0       ?ResetDbgInfo@?$CUtlVector@PAVCShaderParam@floatcombine_autoexpose@@V?$CUtlMemory@PAVCShaderParam@floatcombine_autoexpose@@H@@@@IAEXXZ 1020fba0 f i floatcombine_autoexpose.obj
 0002:000f6c00       ?ShiftElementsRight@?$CUtlVector@PAVCShaderParam@floatcombine_autoexpose@@V?$CUtlMemory@PAVCShaderParam@floatcombine_autoexpose@@H@@@@IAEXHH@Z 1020fc00 f i floatcombine_autoexpose.obj
 0002:000f6da0       ?ValidateGrowSize@?$CUtlMemory@PAVCShaderParam@floatcombine_autoexpose@@H@@IAEXXZ 1020fda0 f i floatcombine_autoexpose.obj
 0002:000f6de0       ??$CopyConstruct@PAVCShaderParam@floattoscreen@@@@YAPAPAVCShaderParam@floattoscreen@@PAPAV01@ABQAV01@@Z 1020fde0 f i floattoscreen.obj
 0002:000f6e80       ??$Destruct@PAVCShaderParam@floattoscreen@@@@YAXPAPAVCShaderParam@floattoscreen@@@Z 1020fe80 f i floattoscreen.obj
 0002:000f6ee0       ??$MemAllocClassName@V?$CUtlMemory@PAVCShaderParam@floattoscreen@@H@@@@YAPBDPAV?$CUtlMemory@PAVCShaderParam@floattoscreen@@H@@@Z 1020fee0 f i floattoscreen.obj
 0002:000f6f60       ??$MemAllocClassName@V?$CUtlVector@PAVCShaderParam@floattoscreen@@V?$CUtlMemory@PAVCShaderParam@floattoscreen@@H@@@@@@YAPBDPAV?$CUtlVector@PAVCShaderParam@floattoscreen@@V?$CUtlMemory@PAVCShaderParam@floattoscreen@@H@@@@@Z 1020ff60 f i floattoscreen.obj
 0002:000f6fe0       ??0?$CUtlMemory@PAVCShaderParam@floattoscreen@@H@@QAE@HH@Z 1020ffe0 f i floattoscreen.obj
 0002:000f71d0       ??0?$CUtlVector@PAVCShaderParam@floattoscreen@@V?$CUtlMemory@PAVCShaderParam@floattoscreen@@H@@@@QAE@HH@Z 102101d0 f i floattoscreen.obj
 0002:000f7250       ??0CShader@floattoscreen@@QAE@XZ 10210250 f i floattoscreen.obj
 0002:000f72b0       ??0CShaderParam@floattoscreen@@QAE@PBDW4ShaderParamType_t@@00H@Z 102102b0 f i floattoscreen.obj
 0002:000f7370       ??1?$CUtlMemory@PAVCShaderParam@floattoscreen@@H@@QAE@XZ 10210370 f i floattoscreen.obj
 0002:000f73c0       ??1?$CUtlVector@PAVCShaderParam@floattoscreen@@V?$CUtlMemory@PAVCShaderParam@floattoscreen@@H@@@@QAE@XZ 102103c0 f i floattoscreen.obj
 0002:000f7420       ??A?$CUtlMemory@PAVCShaderParam@floattoscreen@@H@@QAEAAPAVCShaderParam@floattoscreen@@H@Z 10210420 f i floattoscreen.obj
 0002:000f7620       ??A?$CUtlVector@PAVCShaderParam@floattoscreen@@V?$CUtlMemory@PAVCShaderParam@floattoscreen@@H@@@@QAEAAPAVCShaderParam@floattoscreen@@H@Z 10210620 f i floattoscreen.obj
 0002:000f7750       ??BCShaderParam@floattoscreen@@QAEHXZ 10210750 f i floattoscreen.obj
 0002:000f7790       ?AddToTail@?$CUtlVector@PAVCShaderParam@floattoscreen@@V?$CUtlMemory@PAVCShaderParam@floattoscreen@@H@@@@QAEHABQAVCShaderParam@floattoscreen@@@Z 10210790 f i floattoscreen.obj
 0002:000f7900       ?Base@?$CUtlMemory@PAVCShaderParam@floattoscreen@@H@@QAEPAPAVCShaderParam@floattoscreen@@XZ 10210900 f i floattoscreen.obj
 0002:000f7a20       ?Base@?$CUtlVector@PAVCShaderParam@floattoscreen@@V?$CUtlMemory@PAVCShaderParam@floattoscreen@@H@@@@QAEPAPAVCShaderParam@floattoscreen@@XZ 10210a20 f i floattoscreen.obj
 0002:000f7a70       ?Count@?$CUtlVector@PAVCShaderParam@floattoscreen@@V?$CUtlMemory@PAVCShaderParam@floattoscreen@@H@@@@QBEHXZ 10210a70 f i floattoscreen.obj
 0002:000f7ab0       ?Element@?$CUtlVector@PAVCShaderParam@floattoscreen@@V?$CUtlMemory@PAVCShaderParam@floattoscreen@@H@@@@QAEAAPAVCShaderParam@floattoscreen@@H@Z 10210ab0 f i floattoscreen.obj
 0002:000f7be0       ?GetFallbackShader@CShader@floattoscreen@@UBEPBDPAPAVIMaterialVar@@@Z 10210be0 f i floattoscreen.obj
 0002:000f7c20       ?GetFlags@CShader@floattoscreen@@UBEHXZ 10210c20 f i floattoscreen.obj
 0002:000f7c60       ?GetInfo@CShaderParam@floattoscreen@@QBEABUShaderParamInfo_t@@XZ 10210c60 f i floattoscreen.obj
 0002:000f7ca0       ?GetName@CShader@floattoscreen@@UBEPBDXZ 10210ca0 f i floattoscreen.obj
 0002:000f7ce0       ?GetParamCount@CShader@floattoscreen@@UBEHXZ 10210ce0 f i floattoscreen.obj
 0002:000f7d40       ?GetParamInfo@CShader@floattoscreen@@UBEABUShaderParamInfo_t@@H@Z 10210d40 f i floattoscreen.obj
 0002:000f7de0       ?Grow@?$CUtlMemory@PAVCShaderParam@floattoscreen@@H@@QAEXH@Z 10210de0 f i floattoscreen.obj
 0002:000f8450       ?GrowVector@?$CUtlVector@PAVCShaderParam@floattoscreen@@V?$CUtlMemory@PAVCShaderParam@floattoscreen@@H@@@@IAEXH@Z 10211450 f i floattoscreen.obj
 0002:000f8570       ?InsertBefore@?$CUtlVector@PAVCShaderParam@floattoscreen@@V?$CUtlMemory@PAVCShaderParam@floattoscreen@@H@@@@QAEHHABQAVCShaderParam@floattoscreen@@@Z 10211570 f i floattoscreen.obj
 0002:000f87f0       ?IsExternallyAllocated@?$CUtlMemory@PAVCShaderParam@floattoscreen@@H@@QBE_NXZ 102117f0 f i floattoscreen.obj
 0002:000f8860       ?IsIdxValid@?$CUtlMemory@PAVCShaderParam@floattoscreen@@H@@QBE_NH@Z 10211860 f i floattoscreen.obj
 0002:000f88e0       ?IsReadOnly@?$CUtlMemory@PAVCShaderParam@floattoscreen@@H@@QBE_NXZ 102118e0 f i floattoscreen.obj
 0002:000f8950       ?IsValidIndex@?$CUtlVector@PAVCShaderParam@floattoscreen@@V?$CUtlMemory@PAVCShaderParam@floattoscreen@@H@@@@QBE_NH@Z 10211950 f i floattoscreen.obj
 0002:000f89c0       ?NumAllocated@?$CUtlMemory@PAVCShaderParam@floattoscreen@@H@@QBEHXZ 102119c0 f i floattoscreen.obj
 0002:000f8a00       ?OnDrawElements@CShader@floattoscreen@@UAEXPAPAVIMaterialVar@@PAVIShaderShadow@@PAVIShaderDynamicAPI@@W4VertexCompressionType_t@@PAPAVCBasePerMaterialContextData@@@Z 10211a00 f i floattoscreen.obj
 0002:000f8f10       ?OnInitShaderInstance@CShader@floattoscreen@@UAEXPAPAVIMaterialVar@@PAVIShaderInit@@PBD@Z 10211f10 f i floattoscreen.obj
 0002:000f8fc0       ?Purge@?$CUtlMemory@PAVCShaderParam@floattoscreen@@H@@QAEXXZ 10211fc0 f i floattoscreen.obj
 0002:000f9070       ?Purge@?$CUtlVector@PAVCShaderParam@floattoscreen@@V?$CUtlMemory@PAVCShaderParam@floattoscreen@@H@@@@QAEXXZ 10212070 f i floattoscreen.obj
 0002:000f90e0       ?RemoveAll@?$CUtlVector@PAVCShaderParam@floattoscreen@@V?$CUtlMemory@PAVCShaderParam@floattoscreen@@H@@@@QAEXXZ 102120e0 f i floattoscreen.obj
 0002:000f9170       ?ResetDbgInfo@?$CUtlVector@PAVCShaderParam@floattoscreen@@V?$CUtlMemory@PAVCShaderParam@floattoscreen@@H@@@@IAEXXZ 10212170 f i floattoscreen.obj
 0002:000f91d0       ?ShiftElementsRight@?$CUtlVector@PAVCShaderParam@floattoscreen@@V?$CUtlMemory@PAVCShaderParam@floattoscreen@@H@@@@IAEXHH@Z 102121d0 f i floattoscreen.obj
 0002:000f9370       ?ValidateGrowSize@?$CUtlMemory@PAVCShaderParam@floattoscreen@@H@@IAEXXZ 10212370 f i floattoscreen.obj
 0002:000f93b0       ??$CopyConstruct@PAVCShaderParam@floattoscreen_vanilla@@@@YAPAPAVCShaderParam@floattoscreen_vanilla@@PAPAV01@ABQAV01@@Z 102123b0 f i floattoscreen_vanilla.obj
 0002:000f9450       ??$Destruct@PAVCShaderParam@floattoscreen_vanilla@@@@YAXPAPAVCShaderParam@floattoscreen_vanilla@@@Z 10212450 f i floattoscreen_vanilla.obj
 0002:000f94b0       ??$MemAllocClassName@V?$CUtlMemory@PAVCShaderParam@floattoscreen_vanilla@@H@@@@YAPBDPAV?$CUtlMemory@PAVCShaderParam@floattoscreen_vanilla@@H@@@Z 102124b0 f i floattoscreen_vanilla.obj
 0002:000f9530       ??$MemAllocClassName@V?$CUtlVector@PAVCShaderParam@floattoscreen_vanilla@@V?$CUtlMemory@PAVCShaderParam@floattoscreen_vanilla@@H@@@@@@YAPBDPAV?$CUtlVector@PAVCShaderParam@floattoscreen_vanilla@@V?$CUtlMemory@PAVCShaderParam@floattoscreen_vanilla@@H@@@@@Z 10212530 f i floattoscreen_vanilla.obj
 0002:000f95b0       ??0?$CUtlMemory@PAVCShaderParam@floattoscreen_vanilla@@H@@QAE@HH@Z 102125b0 f i floattoscreen_vanilla.obj
 0002:000f97a0       ??0?$CUtlVector@PAVCShaderParam@floattoscreen_vanilla@@V?$CUtlMemory@PAVCShaderParam@floattoscreen_vanilla@@H@@@@QAE@HH@Z 102127a0 f i floattoscreen_vanilla.obj
 0002:000f9820       ??0CShader@floattoscreen_vanilla@@QAE@XZ 10212820 f i floattoscreen_vanilla.obj
 0002:000f9880       ??0CShaderParam@floattoscreen_vanilla@@QAE@PBDW4ShaderParamType_t@@00H@Z 10212880 f i floattoscreen_vanilla.obj
 0002:000f9940       ??0floattoscreen_ps20b_Static_Index@@QAE@PAVIShaderShadow@@PAPAVIMaterialVar@@@Z 10212940 f i floattoscreen_vanilla.obj
 0002:000f9980       ??0floattoscreen_vanilla_ps20b_Dynamic_Index@@QAE@PAVIShaderDynamicAPI@@@Z 10212980 f i floattoscreen_vanilla.obj
 0002:000f99c0       ??1?$CUtlMemory@PAVCShaderParam@floattoscreen_vanilla@@H@@QAE@XZ 102129c0 f i floattoscreen_vanilla.obj
 0002:000f9a10       ??1?$CUtlVector@PAVCShaderParam@floattoscreen_vanilla@@V?$CUtlMemory@PAVCShaderParam@floattoscreen_vanilla@@H@@@@QAE@XZ 10212a10 f i floattoscreen_vanilla.obj
 0002:000f9a70       ??A?$CUtlMemory@PAVCShaderParam@floattoscreen_vanilla@@H@@QAEAAPAVCShaderParam@floattoscreen_vanilla@@H@Z 10212a70 f i floattoscreen_vanilla.obj
 0002:000f9c70       ??A?$CUtlVector@PAVCShaderParam@floattoscreen_vanilla@@V?$CUtlMemory@PAVCShaderParam@floattoscreen_vanilla@@H@@@@QAEAAPAVCShaderParam@floattoscreen_vanilla@@H@Z 10212c70 f i floattoscreen_vanilla.obj
 0002:000f9da0       ??BCShaderParam@floattoscreen_vanilla@@QAEHXZ 10212da0 f i floattoscreen_vanilla.obj
 0002:000f9de0       ?AddToTail@?$CUtlVector@PAVCShaderParam@floattoscreen_vanilla@@V?$CUtlMemory@PAVCShaderParam@floattoscreen_vanilla@@H@@@@QAEHABQAVCShaderParam@floattoscreen_vanilla@@@Z 10212de0 f i floattoscreen_vanilla.obj
 0002:000f9f50       ?Base@?$CUtlMemory@PAVCShaderParam@floattoscreen_vanilla@@H@@QAEPAPAVCShaderParam@floattoscreen_vanilla@@XZ 10212f50 f i floattoscreen_vanilla.obj
 0002:000fa070       ?Base@?$CUtlVector@PAVCShaderParam@floattoscreen_vanilla@@V?$CUtlMemory@PAVCShaderParam@floattoscreen_vanilla@@H@@@@QAEPAPAVCShaderParam@floattoscreen_vanilla@@XZ 10213070 f i floattoscreen_vanilla.obj
 0002:000fa0c0       ?Count@?$CUtlVector@PAVCShaderParam@floattoscreen_vanilla@@V?$CUtlMemory@PAVCShaderParam@floattoscreen_vanilla@@H@@@@QBEHXZ 102130c0 f i floattoscreen_vanilla.obj
 0002:000fa100       ?Element@?$CUtlVector@PAVCShaderParam@floattoscreen_vanilla@@V?$CUtlMemory@PAVCShaderParam@floattoscreen_vanilla@@H@@@@QAEAAPAVCShaderParam@floattoscreen_vanilla@@H@Z 10213100 f i floattoscreen_vanilla.obj
 0002:000fa230       ?GetFallbackShader@CShader@floattoscreen_vanilla@@UBEPBDPAPAVIMaterialVar@@@Z 10213230 f i floattoscreen_vanilla.obj
 0002:000fa270       ?GetFlags@CShader@floattoscreen_vanilla@@UBEHXZ 10213270 f i floattoscreen_vanilla.obj
 0002:000fa2b0       ?GetIndex@floattoscreen_ps20b_Static_Index@@QAEHXZ 102132b0 f i floattoscreen_vanilla.obj
 0002:000fa2f0       ?GetIndex@floattoscreen_vanilla_ps20b_Dynamic_Index@@QAEHXZ 102132f0 f i floattoscreen_vanilla.obj
 0002:000fa330       ?GetInfo@CShaderParam@floattoscreen_vanilla@@QBEABUShaderParamInfo_t@@XZ 10213330 f i floattoscreen_vanilla.obj
 0002:000fa370       ?GetName@CShader@floattoscreen_vanilla@@UBEPBDXZ 10213370 f i floattoscreen_vanilla.obj
 0002:000fa3b0       ?GetParamCount@CShader@floattoscreen_vanilla@@UBEHXZ 102133b0 f i floattoscreen_vanilla.obj
 0002:000fa410       ?GetParamInfo@CShader@floattoscreen_vanilla@@UBEABUShaderParamInfo_t@@H@Z 10213410 f i floattoscreen_vanilla.obj
 0002:000fa4b0       ?Grow@?$CUtlMemory@PAVCShaderParam@floattoscreen_vanilla@@H@@QAEXH@Z 102134b0 f i floattoscreen_vanilla.obj
 0002:000fab20       ?GrowVector@?$CUtlVector@PAVCShaderParam@floattoscreen_vanilla@@V?$CUtlMemory@PAVCShaderParam@floattoscreen_vanilla@@H@@@@IAEXH@Z 10213b20 f i floattoscreen_vanilla.obj
 0002:000fac40       ?InsertBefore@?$CUtlVector@PAVCShaderParam@floattoscreen_vanilla@@V?$CUtlMemory@PAVCShaderParam@floattoscreen_vanilla@@H@@@@QAEHHABQAVCShaderParam@floattoscreen_vanilla@@@Z 10213c40 f i floattoscreen_vanilla.obj
 0002:000faec0       ?IsExternallyAllocated@?$CUtlMemory@PAVCShaderParam@floattoscreen_vanilla@@H@@QBE_NXZ 10213ec0 f i floattoscreen_vanilla.obj
 0002:000faf30       ?IsIdxValid@?$CUtlMemory@PAVCShaderParam@floattoscreen_vanilla@@H@@QBE_NH@Z 10213f30 f i floattoscreen_vanilla.obj
 0002:000fafb0       ?IsReadOnly@?$CUtlMemory@PAVCShaderParam@floattoscreen_vanilla@@H@@QBE_NXZ 10213fb0 f i floattoscreen_vanilla.obj
 0002:000fb020       ?IsValidIndex@?$CUtlVector@PAVCShaderParam@floattoscreen_vanilla@@V?$CUtlMemory@PAVCShaderParam@floattoscreen_vanilla@@H@@@@QBE_NH@Z 10214020 f i floattoscreen_vanilla.obj
 0002:000fb090       ?NumAllocated@?$CUtlMemory@PAVCShaderParam@floattoscreen_vanilla@@H@@QBEHXZ 10214090 f i floattoscreen_vanilla.obj
 0002:000fb0d0       ?OnDrawElements@CShader@floattoscreen_vanilla@@UAEXPAPAVIMaterialVar@@PAVIShaderShadow@@PAVIShaderDynamicAPI@@W4VertexCompressionType_t@@PAPAVCBasePerMaterialContextData@@@Z 102140d0 f i floattoscreen_vanilla.obj
 0002:000fb4f0       ?OnInitShaderInstance@CShader@floattoscreen_vanilla@@UAEXPAPAVIMaterialVar@@PAVIShaderInit@@PBD@Z 102144f0 f i floattoscreen_vanilla.obj
 0002:000fb5a0       ?Purge@?$CUtlMemory@PAVCShaderParam@floattoscreen_vanilla@@H@@QAEXXZ 102145a0 f i floattoscreen_vanilla.obj
 0002:000fb650       ?Purge@?$CUtlVector@PAVCShaderParam@floattoscreen_vanilla@@V?$CUtlMemory@PAVCShaderParam@floattoscreen_vanilla@@H@@@@QAEXXZ 10214650 f i floattoscreen_vanilla.obj
 0002:000fb6c0       ?RemoveAll@?$CUtlVector@PAVCShaderParam@floattoscreen_vanilla@@V?$CUtlMemory@PAVCShaderParam@floattoscreen_vanilla@@H@@@@QAEXXZ 102146c0 f i floattoscreen_vanilla.obj
 0002:000fb750       ?ResetDbgInfo@?$CUtlVector@PAVCShaderParam@floattoscreen_vanilla@@V?$CUtlMemory@PAVCShaderParam@floattoscreen_vanilla@@H@@@@IAEXXZ 10214750 f i floattoscreen_vanilla.obj
 0002:000fb7b0       ?ShiftElementsRight@?$CUtlVector@PAVCShaderParam@floattoscreen_vanilla@@V?$CUtlMemory@PAVCShaderParam@floattoscreen_vanilla@@H@@@@IAEXHH@Z 102147b0 f i floattoscreen_vanilla.obj
 0002:000fb950       ?ValidateGrowSize@?$CUtlMemory@PAVCShaderParam@floattoscreen_vanilla@@H@@IAEXXZ 10214950 f i floattoscreen_vanilla.obj
 0002:000fb990       ??$Destruct@PAVCShaderParam@GAMECONTROLS@@@@YAXPAPAVCShaderParam@GAMECONTROLS@@@Z 10214990 f i gamecontrols.obj
 0002:000fb9f0       ??$MemAllocClassName@V?$CUtlMemory@PAVCShaderParam@GAMECONTROLS@@H@@@@YAPBDPAV?$CUtlMemory@PAVCShaderParam@GAMECONTROLS@@H@@@Z 102149f0 f i gamecontrols.obj
 0002:000fba70       ??0?$CUtlMemory@PAVCShaderParam@GAMECONTROLS@@H@@QAE@HH@Z 10214a70 f i gamecontrols.obj
 0002:000fbc60       ??0?$CUtlVector@PAVCShaderParam@GAMECONTROLS@@V?$CUtlMemory@PAVCShaderParam@GAMECONTROLS@@H@@@@QAE@HH@Z 10214c60 f i gamecontrols.obj
 0002:000fbce0       ??0CShader@GAMECONTROLS@@QAE@XZ 10214ce0 f i gamecontrols.obj
 0002:000fbd40       ??0gamecontrols_ps20_Dynamic_Index@@QAE@PAVIShaderDynamicAPI@@@Z 10214d40 f i gamecontrols.obj
 0002:000fbd80       ??0gamecontrols_ps20_Static_Index@@QAE@PAVIShaderShadow@@PAPAVIMaterialVar@@@Z 10214d80 f i gamecontrols.obj
 0002:000fbdc0       ??0gamecontrols_vs20_Dynamic_Index@@QAE@PAVIShaderDynamicAPI@@@Z 10214dc0 f i gamecontrols.obj
 0002:000fbe00       ??0gamecontrols_vs20_Static_Index@@QAE@PAVIShaderShadow@@PAPAVIMaterialVar@@@Z 10214e00 f i gamecontrols.obj
 0002:000fbe40       ??1?$CUtlMemory@PAVCShaderParam@GAMECONTROLS@@H@@QAE@XZ 10214e40 f i gamecontrols.obj
 0002:000fbe90       ??1?$CUtlVector@PAVCShaderParam@GAMECONTROLS@@V?$CUtlMemory@PAVCShaderParam@GAMECONTROLS@@H@@@@QAE@XZ 10214e90 f i gamecontrols.obj
 0002:000fbef0       ??A?$CUtlMemory@PAVCShaderParam@GAMECONTROLS@@H@@QAEAAPAVCShaderParam@GAMECONTROLS@@H@Z 10214ef0 f i gamecontrols.obj
 0002:000fc0f0       ??A?$CUtlVector@PAVCShaderParam@GAMECONTROLS@@V?$CUtlMemory@PAVCShaderParam@GAMECONTROLS@@H@@@@QAEAAPAVCShaderParam@GAMECONTROLS@@H@Z 102150f0 f i gamecontrols.obj
 0002:000fc220       ?Base@?$CUtlMemory@PAVCShaderParam@GAMECONTROLS@@H@@QAEPAPAVCShaderParam@GAMECONTROLS@@XZ 10215220 f i gamecontrols.obj
 0002:000fc340       ?Base@?$CUtlVector@PAVCShaderParam@GAMECONTROLS@@V?$CUtlMemory@PAVCShaderParam@GAMECONTROLS@@H@@@@QAEPAPAVCShaderParam@GAMECONTROLS@@XZ 10215340 f i gamecontrols.obj
 0002:000fc390       ?Count@?$CUtlVector@PAVCShaderParam@GAMECONTROLS@@V?$CUtlMemory@PAVCShaderParam@GAMECONTROLS@@H@@@@QBEHXZ 10215390 f i gamecontrols.obj
 0002:000fc3d0       ?Element@?$CUtlVector@PAVCShaderParam@GAMECONTROLS@@V?$CUtlMemory@PAVCShaderParam@GAMECONTROLS@@H@@@@QAEAAPAVCShaderParam@GAMECONTROLS@@H@Z 102153d0 f i gamecontrols.obj
 0002:000fc500       ?GetFallbackShader@CShader@GAMECONTROLS@@UBEPBDPAPAVIMaterialVar@@@Z 10215500 f i gamecontrols.obj
 0002:000fc540       ?GetFlags@CShader@GAMECONTROLS@@UBEHXZ 10215540 f i gamecontrols.obj
 0002:000fc580       ?GetIndex@gamecontrols_ps20_Dynamic_Index@@QAEHXZ 10215580 f i gamecontrols.obj
 0002:000fc5c0       ?GetIndex@gamecontrols_ps20_Static_Index@@QAEHXZ 102155c0 f i gamecontrols.obj
 0002:000fc600       ?GetIndex@gamecontrols_vs20_Dynamic_Index@@QAEHXZ 10215600 f i gamecontrols.obj
 0002:000fc640       ?GetIndex@gamecontrols_vs20_Static_Index@@QAEHXZ 10215640 f i gamecontrols.obj
 0002:000fc680       ?GetInfo@CShaderParam@GAMECONTROLS@@QBEABUShaderParamInfo_t@@XZ 10215680 f i gamecontrols.obj
 0002:000fc6c0       ?GetName@CShader@GAMECONTROLS@@UBEPBDXZ 102156c0 f i gamecontrols.obj
 0002:000fc700       ?GetParamCount@CShader@GAMECONTROLS@@UBEHXZ 10215700 f i gamecontrols.obj
 0002:000fc760       ?GetParamInfo@CShader@GAMECONTROLS@@UBEABUShaderParamInfo_t@@H@Z 10215760 f i gamecontrols.obj
 0002:000fc800       ?IsExternallyAllocated@?$CUtlMemory@PAVCShaderParam@GAMECONTROLS@@H@@QBE_NXZ 10215800 f i gamecontrols.obj
 0002:000fc870       ?IsIdxValid@?$CUtlMemory@PAVCShaderParam@GAMECONTROLS@@H@@QBE_NH@Z 10215870 f i gamecontrols.obj
 0002:000fc8f0       ?IsReadOnly@?$CUtlMemory@PAVCShaderParam@GAMECONTROLS@@H@@QBE_NXZ 102158f0 f i gamecontrols.obj
 0002:000fc960       ?OnDrawElements@CShader@GAMECONTROLS@@UAEXPAPAVIMaterialVar@@PAVIShaderShadow@@PAVIShaderDynamicAPI@@W4VertexCompressionType_t@@PAPAVCBasePerMaterialContextData@@@Z 10215960 f i gamecontrols.obj
 0002:000fcd60       ?OnInitShaderInstance@CShader@GAMECONTROLS@@UAEXPAPAVIMaterialVar@@PAVIShaderInit@@PBD@Z 10215d60 f i gamecontrols.obj
 0002:000fcdc0       ?OnInitShaderParams@CShader@GAMECONTROLS@@UAEXPAPAVIMaterialVar@@PBD@Z 10215dc0 f i gamecontrols.obj
 0002:000fce50       ?Purge@?$CUtlMemory@PAVCShaderParam@GAMECONTROLS@@H@@QAEXXZ 10215e50 f i gamecontrols.obj
 0002:000fcf00       ?Purge@?$CUtlVector@PAVCShaderParam@GAMECONTROLS@@V?$CUtlMemory@PAVCShaderParam@GAMECONTROLS@@H@@@@QAEXXZ 10215f00 f i gamecontrols.obj
 0002:000fcf70       ?RemoveAll@?$CUtlVector@PAVCShaderParam@GAMECONTROLS@@V?$CUtlMemory@PAVCShaderParam@GAMECONTROLS@@H@@@@QAEXXZ 10215f70 f i gamecontrols.obj
 0002:000fd000       ?ResetDbgInfo@?$CUtlVector@PAVCShaderParam@GAMECONTROLS@@V?$CUtlMemory@PAVCShaderParam@GAMECONTROLS@@H@@@@IAEXXZ 10216000 f i gamecontrols.obj
 0002:000fd060       ?ValidateGrowSize@?$CUtlMemory@PAVCShaderParam@GAMECONTROLS@@H@@IAEXXZ 10216060 f i gamecontrols.obj
 0002:000fd0a0       ??$CopyConstruct@PAVCShaderParam@HDRCombineTo16Bit@@@@YAPAPAVCShaderParam@HDRCombineTo16Bit@@PAPAV01@ABQAV01@@Z 102160a0 f i HDRCombineTo16Bit.obj
 0002:000fd140       ??$Destruct@PAVCShaderParam@HDRCombineTo16Bit@@@@YAXPAPAVCShaderParam@HDRCombineTo16Bit@@@Z 10216140 f i HDRCombineTo16Bit.obj
 0002:000fd1a0       ??$MemAllocClassName@V?$CUtlMemory@PAVCShaderParam@HDRCombineTo16Bit@@H@@@@YAPBDPAV?$CUtlMemory@PAVCShaderParam@HDRCombineTo16Bit@@H@@@Z 102161a0 f i HDRCombineTo16Bit.obj
 0002:000fd220       ??$MemAllocClassName@V?$CUtlVector@PAVCShaderParam@HDRCombineTo16Bit@@V?$CUtlMemory@PAVCShaderParam@HDRCombineTo16Bit@@H@@@@@@YAPBDPAV?$CUtlVector@PAVCShaderParam@HDRCombineTo16Bit@@V?$CUtlMemory@PAVCShaderParam@HDRCombineTo16Bit@@H@@@@@Z 10216220 f i HDRCombineTo16Bit.obj
 0002:000fd2a0       ??0?$CUtlMemory@PAVCShaderParam@HDRCombineTo16Bit@@H@@QAE@HH@Z 102162a0 f i HDRCombineTo16Bit.obj
 0002:000fd490       ??0?$CUtlVector@PAVCShaderParam@HDRCombineTo16Bit@@V?$CUtlMemory@PAVCShaderParam@HDRCombineTo16Bit@@H@@@@QAE@HH@Z 10216490 f i HDRCombineTo16Bit.obj
 0002:000fd510       ??0CShader@HDRCombineTo16Bit@@QAE@XZ 10216510 f i HDRCombineTo16Bit.obj
 0002:000fd570       ??0CShaderParam@HDRCombineTo16Bit@@QAE@PBDW4ShaderParamType_t@@00H@Z 10216570 f i HDRCombineTo16Bit.obj
 0002:000fd630       ??0hdrcombineto16bit_ps20b_Dynamic_Index@@QAE@PAVIShaderDynamicAPI@@@Z 10216630 f i HDRCombineTo16Bit.obj
 0002:000fd670       ??0hdrcombineto16bit_ps20b_Static_Index@@QAE@PAVIShaderShadow@@PAPAVIMaterialVar@@@Z 10216670 f i HDRCombineTo16Bit.obj
 0002:000fd6b0       ??0hdrcombineto16bit_vs20_Dynamic_Index@@QAE@PAVIShaderDynamicAPI@@@Z 102166b0 f i HDRCombineTo16Bit.obj
 0002:000fd6f0       ??0hdrcombineto16bit_vs20_Static_Index@@QAE@PAVIShaderShadow@@PAPAVIMaterialVar@@@Z 102166f0 f i HDRCombineTo16Bit.obj
 0002:000fd730       ??1?$CUtlMemory@PAVCShaderParam@HDRCombineTo16Bit@@H@@QAE@XZ 10216730 f i HDRCombineTo16Bit.obj
 0002:000fd780       ??1?$CUtlVector@PAVCShaderParam@HDRCombineTo16Bit@@V?$CUtlMemory@PAVCShaderParam@HDRCombineTo16Bit@@H@@@@QAE@XZ 10216780 f i HDRCombineTo16Bit.obj
 0002:000fd7e0       ??A?$CUtlMemory@PAVCShaderParam@HDRCombineTo16Bit@@H@@QAEAAPAVCShaderParam@HDRCombineTo16Bit@@H@Z 102167e0 f i HDRCombineTo16Bit.obj
 0002:000fd9e0       ??A?$CUtlVector@PAVCShaderParam@HDRCombineTo16Bit@@V?$CUtlMemory@PAVCShaderParam@HDRCombineTo16Bit@@H@@@@QAEAAPAVCShaderParam@HDRCombineTo16Bit@@H@Z 102169e0 f i HDRCombineTo16Bit.obj
 0002:000fdb10       ??BCShaderParam@HDRCombineTo16Bit@@QAEHXZ 10216b10 f i HDRCombineTo16Bit.obj
 0002:000fdb50       ?AddToTail@?$CUtlVector@PAVCShaderParam@HDRCombineTo16Bit@@V?$CUtlMemory@PAVCShaderParam@HDRCombineTo16Bit@@H@@@@QAEHABQAVCShaderParam@HDRCombineTo16Bit@@@Z 10216b50 f i HDRCombineTo16Bit.obj
 0002:000fdcc0       ?Base@?$CUtlMemory@PAVCShaderParam@HDRCombineTo16Bit@@H@@QAEPAPAVCShaderParam@HDRCombineTo16Bit@@XZ 10216cc0 f i HDRCombineTo16Bit.obj
 0002:000fdde0       ?Base@?$CUtlVector@PAVCShaderParam@HDRCombineTo16Bit@@V?$CUtlMemory@PAVCShaderParam@HDRCombineTo16Bit@@H@@@@QAEPAPAVCShaderParam@HDRCombineTo16Bit@@XZ 10216de0 f i HDRCombineTo16Bit.obj
 0002:000fde30       ?Count@?$CUtlVector@PAVCShaderParam@HDRCombineTo16Bit@@V?$CUtlMemory@PAVCShaderParam@HDRCombineTo16Bit@@H@@@@QBEHXZ 10216e30 f i HDRCombineTo16Bit.obj
 0002:000fde70       ?Element@?$CUtlVector@PAVCShaderParam@HDRCombineTo16Bit@@V?$CUtlMemory@PAVCShaderParam@HDRCombineTo16Bit@@H@@@@QAEAAPAVCShaderParam@HDRCombineTo16Bit@@H@Z 10216e70 f i HDRCombineTo16Bit.obj
 0002:000fdfa0       ?GetFallbackShader@CShader@HDRCombineTo16Bit@@UBEPBDPAPAVIMaterialVar@@@Z 10216fa0 f i HDRCombineTo16Bit.obj
 0002:000fdfe0       ?GetFlags@CShader@HDRCombineTo16Bit@@UBEHXZ 10216fe0 f i HDRCombineTo16Bit.obj
 0002:000fe020       ?GetIndex@hdrcombineto16bit_ps20b_Dynamic_Index@@QAEHXZ 10217020 f i HDRCombineTo16Bit.obj
 0002:000fe060       ?GetIndex@hdrcombineto16bit_ps20b_Static_Index@@QAEHXZ 10217060 f i HDRCombineTo16Bit.obj
 0002:000fe0a0       ?GetIndex@hdrcombineto16bit_vs20_Dynamic_Index@@QAEHXZ 102170a0 f i HDRCombineTo16Bit.obj
 0002:000fe0e0       ?GetIndex@hdrcombineto16bit_vs20_Static_Index@@QAEHXZ 102170e0 f i HDRCombineTo16Bit.obj
 0002:000fe120       ?GetInfo@CShaderParam@HDRCombineTo16Bit@@QBEABUShaderParamInfo_t@@XZ 10217120 f i HDRCombineTo16Bit.obj
 0002:000fe160       ?GetName@CShader@HDRCombineTo16Bit@@UBEPBDXZ 10217160 f i HDRCombineTo16Bit.obj
 0002:000fe1a0       ?GetParamCount@CShader@HDRCombineTo16Bit@@UBEHXZ 102171a0 f i HDRCombineTo16Bit.obj
 0002:000fe200       ?GetParamInfo@CShader@HDRCombineTo16Bit@@UBEABUShaderParamInfo_t@@H@Z 10217200 f i HDRCombineTo16Bit.obj
 0002:000fe2a0       ?Grow@?$CUtlMemory@PAVCShaderParam@HDRCombineTo16Bit@@H@@QAEXH@Z 102172a0 f i HDRCombineTo16Bit.obj
 0002:000fe910       ?GrowVector@?$CUtlVector@PAVCShaderParam@HDRCombineTo16Bit@@V?$CUtlMemory@PAVCShaderParam@HDRCombineTo16Bit@@H@@@@IAEXH@Z 10217910 f i HDRCombineTo16Bit.obj
 0002:000fea30       ?InsertBefore@?$CUtlVector@PAVCShaderParam@HDRCombineTo16Bit@@V?$CUtlMemory@PAVCShaderParam@HDRCombineTo16Bit@@H@@@@QAEHHABQAVCShaderParam@HDRCombineTo16Bit@@@Z 10217a30 f i HDRCombineTo16Bit.obj
 0002:000fecb0       ?IsExternallyAllocated@?$CUtlMemory@PAVCShaderParam@HDRCombineTo16Bit@@H@@QBE_NXZ 10217cb0 f i HDRCombineTo16Bit.obj
 0002:000fed20       ?IsIdxValid@?$CUtlMemory@PAVCShaderParam@HDRCombineTo16Bit@@H@@QBE_NH@Z 10217d20 f i HDRCombineTo16Bit.obj
 0002:000feda0       ?IsReadOnly@?$CUtlMemory@PAVCShaderParam@HDRCombineTo16Bit@@H@@QBE_NXZ 10217da0 f i HDRCombineTo16Bit.obj
 0002:000fee10       ?IsValidIndex@?$CUtlVector@PAVCShaderParam@HDRCombineTo16Bit@@V?$CUtlMemory@PAVCShaderParam@HDRCombineTo16Bit@@H@@@@QBE_NH@Z 10217e10 f i HDRCombineTo16Bit.obj
 0002:000fee80       ?NumAllocated@?$CUtlMemory@PAVCShaderParam@HDRCombineTo16Bit@@H@@QBEHXZ 10217e80 f i HDRCombineTo16Bit.obj
 0002:000feec0       ?OnDrawElements@CShader@HDRCombineTo16Bit@@UAEXPAPAVIMaterialVar@@PAVIShaderShadow@@PAVIShaderDynamicAPI@@W4VertexCompressionType_t@@PAPAVCBasePerMaterialContextData@@@Z 10217ec0 f i HDRCombineTo16Bit.obj
 0002:000ff310       ?OnInitShaderInstance@CShader@HDRCombineTo16Bit@@UAEXPAPAVIMaterialVar@@PAVIShaderInit@@PBD@Z 10218310 f i HDRCombineTo16Bit.obj
 0002:000ff370       ?Purge@?$CUtlMemory@PAVCShaderParam@HDRCombineTo16Bit@@H@@QAEXXZ 10218370 f i HDRCombineTo16Bit.obj
 0002:000ff420       ?Purge@?$CUtlVector@PAVCShaderParam@HDRCombineTo16Bit@@V?$CUtlMemory@PAVCShaderParam@HDRCombineTo16Bit@@H@@@@QAEXXZ 10218420 f i HDRCombineTo16Bit.obj
 0002:000ff490       ?RemoveAll@?$CUtlVector@PAVCShaderParam@HDRCombineTo16Bit@@V?$CUtlMemory@PAVCShaderParam@HDRCombineTo16Bit@@H@@@@QAEXXZ 10218490 f i HDRCombineTo16Bit.obj
 0002:000ff520       ?ResetDbgInfo@?$CUtlVector@PAVCShaderParam@HDRCombineTo16Bit@@V?$CUtlMemory@PAVCShaderParam@HDRCombineTo16Bit@@H@@@@IAEXXZ 10218520 f i HDRCombineTo16Bit.obj
 0002:000ff580       ?ShiftElementsRight@?$CUtlVector@PAVCShaderParam@HDRCombineTo16Bit@@V?$CUtlMemory@PAVCShaderParam@HDRCombineTo16Bit@@H@@@@IAEXHH@Z 10218580 f i HDRCombineTo16Bit.obj
 0002:000ff720       ?ValidateGrowSize@?$CUtlMemory@PAVCShaderParam@HDRCombineTo16Bit@@H@@IAEXXZ 10218720 f i HDRCombineTo16Bit.obj
 0002:000ff760       ??$CopyConstruct@PAVCShaderParam@HDRSelectRange@@@@YAPAPAVCShaderParam@HDRSelectRange@@PAPAV01@ABQAV01@@Z 10218760 f i HDRSelectRange.obj
 0002:000ff800       ??$Destruct@PAVCShaderParam@HDRSelectRange@@@@YAXPAPAVCShaderParam@HDRSelectRange@@@Z 10218800 f i HDRSelectRange.obj
 0002:000ff860       ??$MemAllocClassName@V?$CUtlMemory@PAVCShaderParam@HDRSelectRange@@H@@@@YAPBDPAV?$CUtlMemory@PAVCShaderParam@HDRSelectRange@@H@@@Z 10218860 f i HDRSelectRange.obj
 0002:000ff8e0       ??$MemAllocClassName@V?$CUtlVector@PAVCShaderParam@HDRSelectRange@@V?$CUtlMemory@PAVCShaderParam@HDRSelectRange@@H@@@@@@YAPBDPAV?$CUtlVector@PAVCShaderParam@HDRSelectRange@@V?$CUtlMemory@PAVCShaderParam@HDRSelectRange@@H@@@@@Z 102188e0 f i HDRSelectRange.obj
 0002:000ff960       ??0?$CUtlMemory@PAVCShaderParam@HDRSelectRange@@H@@QAE@HH@Z 10218960 f i HDRSelectRange.obj
 0002:000ffb50       ??0?$CUtlVector@PAVCShaderParam@HDRSelectRange@@V?$CUtlMemory@PAVCShaderParam@HDRSelectRange@@H@@@@QAE@HH@Z 10218b50 f i HDRSelectRange.obj
 0002:000ffbd0       ??0CShader@HDRSelectRange@@QAE@XZ 10218bd0 f i HDRSelectRange.obj
 0002:000ffc30       ??0CShaderParam@HDRSelectRange@@QAE@PBDW4ShaderParamType_t@@00H@Z 10218c30 f i HDRSelectRange.obj
 0002:000ffcf0       ??0hdrselectrange_ps20b_Dynamic_Index@@QAE@PAVIShaderDynamicAPI@@@Z 10218cf0 f i HDRSelectRange.obj
 0002:000ffd30       ??0hdrselectrange_ps20b_Static_Index@@QAE@PAVIShaderShadow@@PAPAVIMaterialVar@@@Z 10218d30 f i HDRSelectRange.obj
 0002:000ffd70       ??1?$CUtlMemory@PAVCShaderParam@HDRSelectRange@@H@@QAE@XZ 10218d70 f i HDRSelectRange.obj
 0002:000ffdc0       ??1?$CUtlVector@PAVCShaderParam@HDRSelectRange@@V?$CUtlMemory@PAVCShaderParam@HDRSelectRange@@H@@@@QAE@XZ 10218dc0 f i HDRSelectRange.obj
 0002:000ffe20       ??A?$CUtlMemory@PAVCShaderParam@HDRSelectRange@@H@@QAEAAPAVCShaderParam@HDRSelectRange@@H@Z 10218e20 f i HDRSelectRange.obj
 0002:00100020       ??A?$CUtlVector@PAVCShaderParam@HDRSelectRange@@V?$CUtlMemory@PAVCShaderParam@HDRSelectRange@@H@@@@QAEAAPAVCShaderParam@HDRSelectRange@@H@Z 10219020 f i HDRSelectRange.obj
 0002:00100150       ??BCShaderParam@HDRSelectRange@@QAEHXZ 10219150 f i HDRSelectRange.obj
 0002:00100190       ?AddToTail@?$CUtlVector@PAVCShaderParam@HDRSelectRange@@V?$CUtlMemory@PAVCShaderParam@HDRSelectRange@@H@@@@QAEHABQAVCShaderParam@HDRSelectRange@@@Z 10219190 f i HDRSelectRange.obj
 0002:00100300       ?Base@?$CUtlMemory@PAVCShaderParam@HDRSelectRange@@H@@QAEPAPAVCShaderParam@HDRSelectRange@@XZ 10219300 f i HDRSelectRange.obj
 0002:00100420       ?Base@?$CUtlVector@PAVCShaderParam@HDRSelectRange@@V?$CUtlMemory@PAVCShaderParam@HDRSelectRange@@H@@@@QAEPAPAVCShaderParam@HDRSelectRange@@XZ 10219420 f i HDRSelectRange.obj
 0002:00100470       ?Count@?$CUtlVector@PAVCShaderParam@HDRSelectRange@@V?$CUtlMemory@PAVCShaderParam@HDRSelectRange@@H@@@@QBEHXZ 10219470 f i HDRSelectRange.obj
 0002:001004b0       ?Element@?$CUtlVector@PAVCShaderParam@HDRSelectRange@@V?$CUtlMemory@PAVCShaderParam@HDRSelectRange@@H@@@@QAEAAPAVCShaderParam@HDRSelectRange@@H@Z 102194b0 f i HDRSelectRange.obj
 0002:001005e0       ?GetFallbackShader@CShader@HDRSelectRange@@UBEPBDPAPAVIMaterialVar@@@Z 102195e0 f i HDRSelectRange.obj
 0002:00100620       ?GetFlags@CShader@HDRSelectRange@@UBEHXZ 10219620 f i HDRSelectRange.obj
 0002:00100660       ?GetIndex@hdrselectrange_ps20b_Dynamic_Index@@QAEHXZ 10219660 f i HDRSelectRange.obj
 0002:001006a0       ?GetIndex@hdrselectrange_ps20b_Static_Index@@QAEHXZ 102196a0 f i HDRSelectRange.obj
 0002:001006e0       ?GetInfo@CShaderParam@HDRSelectRange@@QBEABUShaderParamInfo_t@@XZ 102196e0 f i HDRSelectRange.obj
 0002:00100720       ?GetName@CShader@HDRSelectRange@@UBEPBDXZ 10219720 f i HDRSelectRange.obj
 0002:00100760       ?GetParamCount@CShader@HDRSelectRange@@UBEHXZ 10219760 f i HDRSelectRange.obj
 0002:001007c0       ?GetParamInfo@CShader@HDRSelectRange@@UBEABUShaderParamInfo_t@@H@Z 102197c0 f i HDRSelectRange.obj
 0002:00100860       ?Grow@?$CUtlMemory@PAVCShaderParam@HDRSelectRange@@H@@QAEXH@Z 10219860 f i HDRSelectRange.obj
 0002:00100ed0       ?GrowVector@?$CUtlVector@PAVCShaderParam@HDRSelectRange@@V?$CUtlMemory@PAVCShaderParam@HDRSelectRange@@H@@@@IAEXH@Z 10219ed0 f i HDRSelectRange.obj
 0002:00100ff0       ?InsertBefore@?$CUtlVector@PAVCShaderParam@HDRSelectRange@@V?$CUtlMemory@PAVCShaderParam@HDRSelectRange@@H@@@@QAEHHABQAVCShaderParam@HDRSelectRange@@@Z 10219ff0 f i HDRSelectRange.obj
 0002:00101270       ?IsExternallyAllocated@?$CUtlMemory@PAVCShaderParam@HDRSelectRange@@H@@QBE_NXZ 1021a270 f i HDRSelectRange.obj
 0002:001012e0       ?IsIdxValid@?$CUtlMemory@PAVCShaderParam@HDRSelectRange@@H@@QBE_NH@Z 1021a2e0 f i HDRSelectRange.obj
 0002:00101360       ?IsReadOnly@?$CUtlMemory@PAVCShaderParam@HDRSelectRange@@H@@QBE_NXZ 1021a360 f i HDRSelectRange.obj
 0002:001013d0       ?IsValidIndex@?$CUtlVector@PAVCShaderParam@HDRSelectRange@@V?$CUtlMemory@PAVCShaderParam@HDRSelectRange@@H@@@@QBE_NH@Z 1021a3d0 f i HDRSelectRange.obj
 0002:00101440       ?NumAllocated@?$CUtlMemory@PAVCShaderParam@HDRSelectRange@@H@@QBEHXZ 1021a440 f i HDRSelectRange.obj
 0002:00101480       ?OnDrawElements@CShader@HDRSelectRange@@UAEXPAPAVIMaterialVar@@PAVIShaderShadow@@PAVIShaderDynamicAPI@@W4VertexCompressionType_t@@PAPAVCBasePerMaterialContextData@@@Z 1021a480 f i HDRSelectRange.obj
 0002:00101780       ?OnInitShaderInstance@CShader@HDRSelectRange@@UAEXPAPAVIMaterialVar@@PAVIShaderInit@@PBD@Z 1021a780 f i HDRSelectRange.obj
 0002:001017e0       ?Purge@?$CUtlMemory@PAVCShaderParam@HDRSelectRange@@H@@QAEXXZ 1021a7e0 f i HDRSelectRange.obj
 0002:00101890       ?Purge@?$CUtlVector@PAVCShaderParam@HDRSelectRange@@V?$CUtlMemory@PAVCShaderParam@HDRSelectRange@@H@@@@QAEXXZ 1021a890 f i HDRSelectRange.obj
 0002:00101900       ?RemoveAll@?$CUtlVector@PAVCShaderParam@HDRSelectRange@@V?$CUtlMemory@PAVCShaderParam@HDRSelectRange@@H@@@@QAEXXZ 1021a900 f i HDRSelectRange.obj
 0002:00101990       ?ResetDbgInfo@?$CUtlVector@PAVCShaderParam@HDRSelectRange@@V?$CUtlMemory@PAVCShaderParam@HDRSelectRange@@H@@@@IAEXXZ 1021a990 f i HDRSelectRange.obj
 0002:001019f0       ?ShiftElementsRight@?$CUtlVector@PAVCShaderParam@HDRSelectRange@@V?$CUtlMemory@PAVCShaderParam@HDRSelectRange@@H@@@@IAEXHH@Z 1021a9f0 f i HDRSelectRange.obj
 0002:00101b90       ?ValidateGrowSize@?$CUtlMemory@PAVCShaderParam@HDRSelectRange@@H@@IAEXXZ 1021ab90 f i HDRSelectRange.obj
 0002:00101bd0       ??$CopyConstruct@PAVCShaderParam@hsl_filmgrain_pass1@@@@YAPAPAVCShaderParam@hsl_filmgrain_pass1@@PAPAV01@ABQAV01@@Z 1021abd0 f i hsl_filmgrain_pass1.obj
 0002:00101c70       ??$Destruct@PAVCShaderParam@hsl_filmgrain_pass1@@@@YAXPAPAVCShaderParam@hsl_filmgrain_pass1@@@Z 1021ac70 f i hsl_filmgrain_pass1.obj
 0002:00101cd0       ??$MemAllocClassName@V?$CUtlMemory@PAVCShaderParam@hsl_filmgrain_pass1@@H@@@@YAPBDPAV?$CUtlMemory@PAVCShaderParam@hsl_filmgrain_pass1@@H@@@Z 1021acd0 f i hsl_filmgrain_pass1.obj
 0002:00101d50       ??$MemAllocClassName@V?$CUtlVector@PAVCShaderParam@hsl_filmgrain_pass1@@V?$CUtlMemory@PAVCShaderParam@hsl_filmgrain_pass1@@H@@@@@@YAPBDPAV?$CUtlVector@PAVCShaderParam@hsl_filmgrain_pass1@@V?$CUtlMemory@PAVCShaderParam@hsl_filmgrain_pass1@@H@@@@@Z 1021ad50 f i hsl_filmgrain_pass1.obj
 0002:00101dd0       ??0?$CUtlMemory@PAVCShaderParam@hsl_filmgrain_pass1@@H@@QAE@HH@Z 1021add0 f i hsl_filmgrain_pass1.obj
 0002:00101fc0       ??0?$CUtlVector@PAVCShaderParam@hsl_filmgrain_pass1@@V?$CUtlMemory@PAVCShaderParam@hsl_filmgrain_pass1@@H@@@@QAE@HH@Z 1021afc0 f i hsl_filmgrain_pass1.obj
 0002:00102040       ??0CShader@hsl_filmgrain_pass1@@QAE@XZ 1021b040 f i hsl_filmgrain_pass1.obj
 0002:001020a0       ??0CShaderParam@hsl_filmgrain_pass1@@QAE@PBDW4ShaderParamType_t@@00H@Z 1021b0a0 f i hsl_filmgrain_pass1.obj
 0002:00102160       ??0filmgrain_vs20_Dynamic_Index@@QAE@PAVIShaderDynamicAPI@@@Z 1021b160 f i hsl_filmgrain_pass1.obj
 0002:001021a0       ??0filmgrain_vs20_Static_Index@@QAE@PAVIShaderShadow@@PAPAVIMaterialVar@@@Z 1021b1a0 f i hsl_filmgrain_pass1.obj
 0002:001021e0       ??0hsl_filmgrain_pass1_ps20b_Dynamic_Index@@QAE@PAVIShaderDynamicAPI@@@Z 1021b1e0 f i hsl_filmgrain_pass1.obj
 0002:00102220       ??0hsl_filmgrain_pass1_ps20b_Static_Index@@QAE@PAVIShaderShadow@@PAPAVIMaterialVar@@@Z 1021b220 f i hsl_filmgrain_pass1.obj
 0002:00102260       ??1?$CUtlMemory@PAVCShaderParam@hsl_filmgrain_pass1@@H@@QAE@XZ 1021b260 f i hsl_filmgrain_pass1.obj
 0002:001022b0       ??1?$CUtlVector@PAVCShaderParam@hsl_filmgrain_pass1@@V?$CUtlMemory@PAVCShaderParam@hsl_filmgrain_pass1@@H@@@@QAE@XZ 1021b2b0 f i hsl_filmgrain_pass1.obj
 0002:00102310       ??A?$CUtlMemory@PAVCShaderParam@hsl_filmgrain_pass1@@H@@QAEAAPAVCShaderParam@hsl_filmgrain_pass1@@H@Z 1021b310 f i hsl_filmgrain_pass1.obj
 0002:00102510       ??A?$CUtlVector@PAVCShaderParam@hsl_filmgrain_pass1@@V?$CUtlMemory@PAVCShaderParam@hsl_filmgrain_pass1@@H@@@@QAEAAPAVCShaderParam@hsl_filmgrain_pass1@@H@Z 1021b510 f i hsl_filmgrain_pass1.obj
 0002:00102640       ??BCShaderParam@hsl_filmgrain_pass1@@QAEHXZ 1021b640 f i hsl_filmgrain_pass1.obj
 0002:00102680       ?AddToTail@?$CUtlVector@PAVCShaderParam@hsl_filmgrain_pass1@@V?$CUtlMemory@PAVCShaderParam@hsl_filmgrain_pass1@@H@@@@QAEHABQAVCShaderParam@hsl_filmgrain_pass1@@@Z 1021b680 f i hsl_filmgrain_pass1.obj
 0002:001027f0       ?Base@?$CUtlMemory@PAVCShaderParam@hsl_filmgrain_pass1@@H@@QAEPAPAVCShaderParam@hsl_filmgrain_pass1@@XZ 1021b7f0 f i hsl_filmgrain_pass1.obj
 0002:00102910       ?Base@?$CUtlVector@PAVCShaderParam@hsl_filmgrain_pass1@@V?$CUtlMemory@PAVCShaderParam@hsl_filmgrain_pass1@@H@@@@QAEPAPAVCShaderParam@hsl_filmgrain_pass1@@XZ 1021b910 f i hsl_filmgrain_pass1.obj
 0002:00102960       ?Count@?$CUtlVector@PAVCShaderParam@hsl_filmgrain_pass1@@V?$CUtlMemory@PAVCShaderParam@hsl_filmgrain_pass1@@H@@@@QBEHXZ 1021b960 f i hsl_filmgrain_pass1.obj
 0002:001029a0       ?Element@?$CUtlVector@PAVCShaderParam@hsl_filmgrain_pass1@@V?$CUtlMemory@PAVCShaderParam@hsl_filmgrain_pass1@@H@@@@QAEAAPAVCShaderParam@hsl_filmgrain_pass1@@H@Z 1021b9a0 f i hsl_filmgrain_pass1.obj
 0002:00102ad0       ?GetFallbackShader@CShader@hsl_filmgrain_pass1@@UBEPBDPAPAVIMaterialVar@@@Z 1021bad0 f i hsl_filmgrain_pass1.obj
 0002:00102b10       ?GetFlags@CShader@hsl_filmgrain_pass1@@UBEHXZ 1021bb10 f i hsl_filmgrain_pass1.obj
 0002:00102b50       ?GetIndex@filmgrain_vs20_Dynamic_Index@@QAEHXZ 1021bb50 f i hsl_filmgrain_pass1.obj
 0002:00102b90       ?GetIndex@filmgrain_vs20_Static_Index@@QAEHXZ 1021bb90 f i hsl_filmgrain_pass1.obj
 0002:00102bd0       ?GetIndex@hsl_filmgrain_pass1_ps20b_Dynamic_Index@@QAEHXZ 1021bbd0 f i hsl_filmgrain_pass1.obj
 0002:00102c10       ?GetIndex@hsl_filmgrain_pass1_ps20b_Static_Index@@QAEHXZ 1021bc10 f i hsl_filmgrain_pass1.obj
 0002:00102c50       ?GetInfo@CShaderParam@hsl_filmgrain_pass1@@QBEABUShaderParamInfo_t@@XZ 1021bc50 f i hsl_filmgrain_pass1.obj
 0002:00102c90       ?GetName@CShader@hsl_filmgrain_pass1@@UBEPBDXZ 1021bc90 f i hsl_filmgrain_pass1.obj
 0002:00102cd0       ?GetParamCount@CShader@hsl_filmgrain_pass1@@UBEHXZ 1021bcd0 f i hsl_filmgrain_pass1.obj
 0002:00102d30       ?GetParamInfo@CShader@hsl_filmgrain_pass1@@UBEABUShaderParamInfo_t@@H@Z 1021bd30 f i hsl_filmgrain_pass1.obj
 0002:00102dd0       ?Grow@?$CUtlMemory@PAVCShaderParam@hsl_filmgrain_pass1@@H@@QAEXH@Z 1021bdd0 f i hsl_filmgrain_pass1.obj
 0002:00103440       ?GrowVector@?$CUtlVector@PAVCShaderParam@hsl_filmgrain_pass1@@V?$CUtlMemory@PAVCShaderParam@hsl_filmgrain_pass1@@H@@@@IAEXH@Z 1021c440 f i hsl_filmgrain_pass1.obj
 0002:00103560       ?InsertBefore@?$CUtlVector@PAVCShaderParam@hsl_filmgrain_pass1@@V?$CUtlMemory@PAVCShaderParam@hsl_filmgrain_pass1@@H@@@@QAEHHABQAVCShaderParam@hsl_filmgrain_pass1@@@Z 1021c560 f i hsl_filmgrain_pass1.obj
 0002:001037e0       ?IsExternallyAllocated@?$CUtlMemory@PAVCShaderParam@hsl_filmgrain_pass1@@H@@QBE_NXZ 1021c7e0 f i hsl_filmgrain_pass1.obj
 0002:00103850       ?IsIdxValid@?$CUtlMemory@PAVCShaderParam@hsl_filmgrain_pass1@@H@@QBE_NH@Z 1021c850 f i hsl_filmgrain_pass1.obj
 0002:001038d0       ?IsReadOnly@?$CUtlMemory@PAVCShaderParam@hsl_filmgrain_pass1@@H@@QBE_NXZ 1021c8d0 f i hsl_filmgrain_pass1.obj
 0002:00103940       ?IsValidIndex@?$CUtlVector@PAVCShaderParam@hsl_filmgrain_pass1@@V?$CUtlMemory@PAVCShaderParam@hsl_filmgrain_pass1@@H@@@@QBE_NH@Z 1021c940 f i hsl_filmgrain_pass1.obj
 0002:001039b0       ?NumAllocated@?$CUtlMemory@PAVCShaderParam@hsl_filmgrain_pass1@@H@@QBEHXZ 1021c9b0 f i hsl_filmgrain_pass1.obj
 0002:001039f0       ?OnDrawElements@CShader@hsl_filmgrain_pass1@@UAEXPAPAVIMaterialVar@@PAVIShaderShadow@@PAVIShaderDynamicAPI@@W4VertexCompressionType_t@@PAPAVCBasePerMaterialContextData@@@Z 1021c9f0 f i hsl_filmgrain_pass1.obj
 0002:00103ed0       ?OnInitShaderInstance@CShader@hsl_filmgrain_pass1@@UAEXPAPAVIMaterialVar@@PAVIShaderInit@@PBD@Z 1021ced0 f i hsl_filmgrain_pass1.obj
 0002:00103f50       ?Purge@?$CUtlMemory@PAVCShaderParam@hsl_filmgrain_pass1@@H@@QAEXXZ 1021cf50 f i hsl_filmgrain_pass1.obj
 0002:00104000       ?Purge@?$CUtlVector@PAVCShaderParam@hsl_filmgrain_pass1@@V?$CUtlMemory@PAVCShaderParam@hsl_filmgrain_pass1@@H@@@@QAEXXZ 1021d000 f i hsl_filmgrain_pass1.obj
 0002:00104070       ?RemoveAll@?$CUtlVector@PAVCShaderParam@hsl_filmgrain_pass1@@V?$CUtlMemory@PAVCShaderParam@hsl_filmgrain_pass1@@H@@@@QAEXXZ 1021d070 f i hsl_filmgrain_pass1.obj
 0002:00104100       ?ResetDbgInfo@?$CUtlVector@PAVCShaderParam@hsl_filmgrain_pass1@@V?$CUtlMemory@PAVCShaderParam@hsl_filmgrain_pass1@@H@@@@IAEXXZ 1021d100 f i hsl_filmgrain_pass1.obj
 0002:00104160       ?ShiftElementsRight@?$CUtlVector@PAVCShaderParam@hsl_filmgrain_pass1@@V?$CUtlMemory@PAVCShaderParam@hsl_filmgrain_pass1@@H@@@@IAEXHH@Z 1021d160 f i hsl_filmgrain_pass1.obj
 0002:00104300       ?ValidateGrowSize@?$CUtlMemory@PAVCShaderParam@hsl_filmgrain_pass1@@H@@IAEXXZ 1021d300 f i hsl_filmgrain_pass1.obj
 0002:00104340       ??$CopyConstruct@PAVCShaderParam@hsl_filmgrain_pass2@@@@YAPAPAVCShaderParam@hsl_filmgrain_pass2@@PAPAV01@ABQAV01@@Z 1021d340 f i hsl_filmgrain_pass2.obj
 0002:001043e0       ??$Destruct@PAVCShaderParam@hsl_filmgrain_pass2@@@@YAXPAPAVCShaderParam@hsl_filmgrain_pass2@@@Z 1021d3e0 f i hsl_filmgrain_pass2.obj
 0002:00104440       ??$MemAllocClassName@V?$CUtlMemory@PAVCShaderParam@hsl_filmgrain_pass2@@H@@@@YAPBDPAV?$CUtlMemory@PAVCShaderParam@hsl_filmgrain_pass2@@H@@@Z 1021d440 f i hsl_filmgrain_pass2.obj
 0002:001044c0       ??$MemAllocClassName@V?$CUtlVector@PAVCShaderParam@hsl_filmgrain_pass2@@V?$CUtlMemory@PAVCShaderParam@hsl_filmgrain_pass2@@H@@@@@@YAPBDPAV?$CUtlVector@PAVCShaderParam@hsl_filmgrain_pass2@@V?$CUtlMemory@PAVCShaderParam@hsl_filmgrain_pass2@@H@@@@@Z 1021d4c0 f i hsl_filmgrain_pass2.obj
 0002:00104540       ??0?$CUtlMemory@PAVCShaderParam@hsl_filmgrain_pass2@@H@@QAE@HH@Z 1021d540 f i hsl_filmgrain_pass2.obj
 0002:00104730       ??0?$CUtlVector@PAVCShaderParam@hsl_filmgrain_pass2@@V?$CUtlMemory@PAVCShaderParam@hsl_filmgrain_pass2@@H@@@@QAE@HH@Z 1021d730 f i hsl_filmgrain_pass2.obj
 0002:001047b0       ??0CShader@hsl_filmgrain_pass2@@QAE@XZ 1021d7b0 f i hsl_filmgrain_pass2.obj
 0002:00104810       ??0CShaderParam@hsl_filmgrain_pass2@@QAE@PBDW4ShaderParamType_t@@00H@Z 1021d810 f i hsl_filmgrain_pass2.obj
 0002:001048d0       ??0hsl_filmgrain_pass2_ps20b_Dynamic_Index@@QAE@PAVIShaderDynamicAPI@@@Z 1021d8d0 f i hsl_filmgrain_pass2.obj
 0002:00104910       ??0hsl_filmgrain_pass2_ps20b_Static_Index@@QAE@PAVIShaderShadow@@PAPAVIMaterialVar@@@Z 1021d910 f i hsl_filmgrain_pass2.obj
 0002:00104950       ??1?$CUtlMemory@PAVCShaderParam@hsl_filmgrain_pass2@@H@@QAE@XZ 1021d950 f i hsl_filmgrain_pass2.obj
 0002:001049a0       ??1?$CUtlVector@PAVCShaderParam@hsl_filmgrain_pass2@@V?$CUtlMemory@PAVCShaderParam@hsl_filmgrain_pass2@@H@@@@QAE@XZ 1021d9a0 f i hsl_filmgrain_pass2.obj
 0002:00104a00       ??A?$CUtlMemory@PAVCShaderParam@hsl_filmgrain_pass2@@H@@QAEAAPAVCShaderParam@hsl_filmgrain_pass2@@H@Z 1021da00 f i hsl_filmgrain_pass2.obj
 0002:00104c00       ??A?$CUtlVector@PAVCShaderParam@hsl_filmgrain_pass2@@V?$CUtlMemory@PAVCShaderParam@hsl_filmgrain_pass2@@H@@@@QAEAAPAVCShaderParam@hsl_filmgrain_pass2@@H@Z 1021dc00 f i hsl_filmgrain_pass2.obj
 0002:00104d30       ??BCShaderParam@hsl_filmgrain_pass2@@QAEHXZ 1021dd30 f i hsl_filmgrain_pass2.obj
 0002:00104d70       ?AddToTail@?$CUtlVector@PAVCShaderParam@hsl_filmgrain_pass2@@V?$CUtlMemory@PAVCShaderParam@hsl_filmgrain_pass2@@H@@@@QAEHABQAVCShaderParam@hsl_filmgrain_pass2@@@Z 1021dd70 f i hsl_filmgrain_pass2.obj
 0002:00104ee0       ?Base@?$CUtlMemory@PAVCShaderParam@hsl_filmgrain_pass2@@H@@QAEPAPAVCShaderParam@hsl_filmgrain_pass2@@XZ 1021dee0 f i hsl_filmgrain_pass2.obj
 0002:00105000       ?Base@?$CUtlVector@PAVCShaderParam@hsl_filmgrain_pass2@@V?$CUtlMemory@PAVCShaderParam@hsl_filmgrain_pass2@@H@@@@QAEPAPAVCShaderParam@hsl_filmgrain_pass2@@XZ 1021e000 f i hsl_filmgrain_pass2.obj
 0002:00105050       ?Count@?$CUtlVector@PAVCShaderParam@hsl_filmgrain_pass2@@V?$CUtlMemory@PAVCShaderParam@hsl_filmgrain_pass2@@H@@@@QBEHXZ 1021e050 f i hsl_filmgrain_pass2.obj
 0002:00105090       ?Element@?$CUtlVector@PAVCShaderParam@hsl_filmgrain_pass2@@V?$CUtlMemory@PAVCShaderParam@hsl_filmgrain_pass2@@H@@@@QAEAAPAVCShaderParam@hsl_filmgrain_pass2@@H@Z 1021e090 f i hsl_filmgrain_pass2.obj
 0002:001051c0       ?GetFallbackShader@CShader@hsl_filmgrain_pass2@@UBEPBDPAPAVIMaterialVar@@@Z 1021e1c0 f i hsl_filmgrain_pass2.obj
 0002:00105200       ?GetFlags@CShader@hsl_filmgrain_pass2@@UBEHXZ 1021e200 f i hsl_filmgrain_pass2.obj
 0002:00105240       ?GetIndex@hsl_filmgrain_pass2_ps20b_Dynamic_Index@@QAEHXZ 1021e240 f i hsl_filmgrain_pass2.obj
 0002:00105280       ?GetIndex@hsl_filmgrain_pass2_ps20b_Static_Index@@QAEHXZ 1021e280 f i hsl_filmgrain_pass2.obj
 0002:001052c0       ?GetInfo@CShaderParam@hsl_filmgrain_pass2@@QBEABUShaderParamInfo_t@@XZ 1021e2c0 f i hsl_filmgrain_pass2.obj
 0002:00105300       ?GetName@CShader@hsl_filmgrain_pass2@@UBEPBDXZ 1021e300 f i hsl_filmgrain_pass2.obj
 0002:00105340       ?GetParamCount@CShader@hsl_filmgrain_pass2@@UBEHXZ 1021e340 f i hsl_filmgrain_pass2.obj
 0002:001053a0       ?GetParamInfo@CShader@hsl_filmgrain_pass2@@UBEABUShaderParamInfo_t@@H@Z 1021e3a0 f i hsl_filmgrain_pass2.obj
 0002:00105440       ?Grow@?$CUtlMemory@PAVCShaderParam@hsl_filmgrain_pass2@@H@@QAEXH@Z 1021e440 f i hsl_filmgrain_pass2.obj
 0002:00105ab0       ?GrowVector@?$CUtlVector@PAVCShaderParam@hsl_filmgrain_pass2@@V?$CUtlMemory@PAVCShaderParam@hsl_filmgrain_pass2@@H@@@@IAEXH@Z 1021eab0 f i hsl_filmgrain_pass2.obj
 0002:00105bd0       ?InsertBefore@?$CUtlVector@PAVCShaderParam@hsl_filmgrain_pass2@@V?$CUtlMemory@PAVCShaderParam@hsl_filmgrain_pass2@@H@@@@QAEHHABQAVCShaderParam@hsl_filmgrain_pass2@@@Z 1021ebd0 f i hsl_filmgrain_pass2.obj
 0002:00105e50       ?IsExternallyAllocated@?$CUtlMemory@PAVCShaderParam@hsl_filmgrain_pass2@@H@@QBE_NXZ 1021ee50 f i hsl_filmgrain_pass2.obj
 0002:00105ec0       ?IsIdxValid@?$CUtlMemory@PAVCShaderParam@hsl_filmgrain_pass2@@H@@QBE_NH@Z 1021eec0 f i hsl_filmgrain_pass2.obj
 0002:00105f40       ?IsReadOnly@?$CUtlMemory@PAVCShaderParam@hsl_filmgrain_pass2@@H@@QBE_NXZ 1021ef40 f i hsl_filmgrain_pass2.obj
 0002:00105fb0       ?IsValidIndex@?$CUtlVector@PAVCShaderParam@hsl_filmgrain_pass2@@V?$CUtlMemory@PAVCShaderParam@hsl_filmgrain_pass2@@H@@@@QBE_NH@Z 1021efb0 f i hsl_filmgrain_pass2.obj
 0002:00106020       ?NumAllocated@?$CUtlMemory@PAVCShaderParam@hsl_filmgrain_pass2@@H@@QBEHXZ 1021f020 f i hsl_filmgrain_pass2.obj
 0002:00106060       ?OnDrawElements@CShader@hsl_filmgrain_pass2@@UAEXPAPAVIMaterialVar@@PAVIShaderShadow@@PAVIShaderDynamicAPI@@W4VertexCompressionType_t@@PAPAVCBasePerMaterialContextData@@@Z 1021f060 f i hsl_filmgrain_pass2.obj
 0002:001064d0       ?OnInitShaderInstance@CShader@hsl_filmgrain_pass2@@UAEXPAPAVIMaterialVar@@PAVIShaderInit@@PBD@Z 1021f4d0 f i hsl_filmgrain_pass2.obj
 0002:00106530       ?Purge@?$CUtlMemory@PAVCShaderParam@hsl_filmgrain_pass2@@H@@QAEXXZ 1021f530 f i hsl_filmgrain_pass2.obj
 0002:001065e0       ?Purge@?$CUtlVector@PAVCShaderParam@hsl_filmgrain_pass2@@V?$CUtlMemory@PAVCShaderParam@hsl_filmgrain_pass2@@H@@@@QAEXXZ 1021f5e0 f i hsl_filmgrain_pass2.obj
 0002:00106650       ?RemoveAll@?$CUtlVector@PAVCShaderParam@hsl_filmgrain_pass2@@V?$CUtlMemory@PAVCShaderParam@hsl_filmgrain_pass2@@H@@@@QAEXXZ 1021f650 f i hsl_filmgrain_pass2.obj
 0002:001066e0       ?ResetDbgInfo@?$CUtlVector@PAVCShaderParam@hsl_filmgrain_pass2@@V?$CUtlMemory@PAVCShaderParam@hsl_filmgrain_pass2@@H@@@@IAEXXZ 1021f6e0 f i hsl_filmgrain_pass2.obj
 0002:00106740       ?ShiftElementsRight@?$CUtlVector@PAVCShaderParam@hsl_filmgrain_pass2@@V?$CUtlMemory@PAVCShaderParam@hsl_filmgrain_pass2@@H@@@@IAEXHH@Z 1021f740 f i hsl_filmgrain_pass2.obj
 0002:001068e0       ?ValidateGrowSize@?$CUtlMemory@PAVCShaderParam@hsl_filmgrain_pass2@@H@@IAEXXZ 1021f8e0 f i hsl_filmgrain_pass2.obj
 0002:00106920       ??$Destruct@PAVCShaderParam@HSV@@@@YAXPAPAVCShaderParam@HSV@@@Z 1021f920 f i hsv.obj
 0002:00106980       ??$MemAllocClassName@V?$CUtlMemory@PAVCShaderParam@HSV@@H@@@@YAPBDPAV?$CUtlMemory@PAVCShaderParam@HSV@@H@@@Z 1021f980 f i hsv.obj
 0002:00106a00       ??0?$CUtlMemory@PAVCShaderParam@HSV@@H@@QAE@HH@Z 1021fa00 f i hsv.obj
 0002:00106bf0       ??0?$CUtlVector@PAVCShaderParam@HSV@@V?$CUtlMemory@PAVCShaderParam@HSV@@H@@@@QAE@HH@Z 1021fbf0 f i hsv.obj
 0002:00106c70       ??0CShader@HSV@@QAE@XZ     1021fc70 f i hsv.obj
 0002:00106cd0       ??0hsv_ps20b_Static_Index@@QAE@PAVIShaderShadow@@PAPAVIMaterialVar@@@Z 1021fcd0 f i hsv.obj
 0002:00106d10       ??1?$CUtlMemory@PAVCShaderParam@HSV@@H@@QAE@XZ 1021fd10 f i hsv.obj
 0002:00106d60       ??1?$CUtlVector@PAVCShaderParam@HSV@@V?$CUtlMemory@PAVCShaderParam@HSV@@H@@@@QAE@XZ 1021fd60 f i hsv.obj
 0002:00106dc0       ??A?$CUtlMemory@PAVCShaderParam@HSV@@H@@QAEAAPAVCShaderParam@HSV@@H@Z 1021fdc0 f i hsv.obj
 0002:00106fc0       ??A?$CUtlVector@PAVCShaderParam@HSV@@V?$CUtlMemory@PAVCShaderParam@HSV@@H@@@@QAEAAPAVCShaderParam@HSV@@H@Z 1021ffc0 f i hsv.obj
 0002:001070f0       ?Base@?$CUtlMemory@PAVCShaderParam@HSV@@H@@QAEPAPAVCShaderParam@HSV@@XZ 102200f0 f i hsv.obj
 0002:00107210       ?Base@?$CUtlVector@PAVCShaderParam@HSV@@V?$CUtlMemory@PAVCShaderParam@HSV@@H@@@@QAEPAPAVCShaderParam@HSV@@XZ 10220210 f i hsv.obj
 0002:00107260       ?Count@?$CUtlVector@PAVCShaderParam@HSV@@V?$CUtlMemory@PAVCShaderParam@HSV@@H@@@@QBEHXZ 10220260 f i hsv.obj
 0002:001072a0       ?Element@?$CUtlVector@PAVCShaderParam@HSV@@V?$CUtlMemory@PAVCShaderParam@HSV@@H@@@@QAEAAPAVCShaderParam@HSV@@H@Z 102202a0 f i hsv.obj
 0002:001073d0       ?GetFallbackShader@CShader@HSV@@UBEPBDPAPAVIMaterialVar@@@Z 102203d0 f i hsv.obj
 0002:00107410       ?GetFlags@CShader@HSV@@UBEHXZ 10220410 f i hsv.obj
 0002:00107450       ?GetIndex@hsv_ps20b_Static_Index@@QAEHXZ 10220450 f i hsv.obj
 0002:00107490       ?GetInfo@CShaderParam@HSV@@QBEABUShaderParamInfo_t@@XZ 10220490 f i hsv.obj
 0002:001074d0       ?GetName@CShader@HSV@@UBEPBDXZ 102204d0 f i hsv.obj
 0002:00107510       ?GetParamCount@CShader@HSV@@UBEHXZ 10220510 f i hsv.obj
 0002:00107570       ?GetParamInfo@CShader@HSV@@UBEABUShaderParamInfo_t@@H@Z 10220570 f i hsv.obj
 0002:00107610       ?IsExternallyAllocated@?$CUtlMemory@PAVCShaderParam@HSV@@H@@QBE_NXZ 10220610 f i hsv.obj
 0002:00107680       ?IsIdxValid@?$CUtlMemory@PAVCShaderParam@HSV@@H@@QBE_NH@Z 10220680 f i hsv.obj
 0002:00107700       ?IsReadOnly@?$CUtlMemory@PAVCShaderParam@HSV@@H@@QBE_NXZ 10220700 f i hsv.obj
 0002:00107770       ?OnDrawElements@CShader@HSV@@UAEXPAPAVIMaterialVar@@PAVIShaderShadow@@PAVIShaderDynamicAPI@@W4VertexCompressionType_t@@PAPAVCBasePerMaterialContextData@@@Z 10220770 f i hsv.obj
 0002:00107a90       ?OnInitShaderInstance@CShader@HSV@@UAEXPAPAVIMaterialVar@@PAVIShaderInit@@PBD@Z 10220a90 f i hsv.obj
 0002:00107ad0       ?OnInitShaderParams@CShader@HSV@@UAEXPAPAVIMaterialVar@@PBD@Z 10220ad0 f i hsv.obj
 0002:00107b30       ?Purge@?$CUtlMemory@PAVCShaderParam@HSV@@H@@QAEXXZ 10220b30 f i hsv.obj
 0002:00107be0       ?Purge@?$CUtlVector@PAVCShaderParam@HSV@@V?$CUtlMemory@PAVCShaderParam@HSV@@H@@@@QAEXXZ 10220be0 f i hsv.obj
 0002:00107c50       ?RemoveAll@?$CUtlVector@PAVCShaderParam@HSV@@V?$CUtlMemory@PAVCShaderParam@HSV@@H@@@@QAEXXZ 10220c50 f i hsv.obj
 0002:00107ce0       ?ResetDbgInfo@?$CUtlVector@PAVCShaderParam@HSV@@V?$CUtlMemory@PAVCShaderParam@HSV@@H@@@@IAEXXZ 10220ce0 f i hsv.obj
 0002:00107d40       ?ValidateGrowSize@?$CUtlMemory@PAVCShaderParam@HSV@@H@@IAEXXZ 10220d40 f i hsv.obj
 0002:00107d80       ??$CopyConstruct@PAVCShaderParam@LightmappedGeneric@@@@YAPAPAVCShaderParam@LightmappedGeneric@@PAPAV01@ABQAV01@@Z 10220d80 f i lightmappedgeneric_dx9.obj
 0002:00107e20       ??$Destruct@PAVCShaderParam@LightmappedGeneric@@@@YAXPAPAVCShaderParam@LightmappedGeneric@@@Z 10220e20 f i lightmappedgeneric_dx9.obj
 0002:00107e80       ??$MemAllocClassName@V?$CUtlMemory@PAVCShaderParam@LightmappedGeneric@@H@@@@YAPBDPAV?$CUtlMemory@PAVCShaderParam@LightmappedGeneric@@H@@@Z 10220e80 f i lightmappedgeneric_dx9.obj
 0002:00107f00       ??$MemAllocClassName@V?$CUtlVector@PAVCShaderParam@LightmappedGeneric@@V?$CUtlMemory@PAVCShaderParam@LightmappedGeneric@@H@@@@@@YAPBDPAV?$CUtlVector@PAVCShaderParam@LightmappedGeneric@@V?$CUtlMemory@PAVCShaderParam@LightmappedGeneric@@H@@@@@Z 10220f00 f i lightmappedgeneric_dx9.obj
 0002:00107f80       ??0?$CUtlMemory@PAVCShaderParam@LightmappedGeneric@@H@@QAE@HH@Z 10220f80 f i lightmappedgeneric_dx9.obj
 0002:00108170       ??0?$CUtlVector@PAVCShaderParam@LightmappedGeneric@@V?$CUtlMemory@PAVCShaderParam@LightmappedGeneric@@H@@@@QAE@HH@Z 10221170 f i lightmappedgeneric_dx9.obj
 0002:001081f0       ??0CShader@LightmappedGeneric@@QAE@XZ 102211f0 f i lightmappedgeneric_dx9.obj
 0002:00108250       ??0CShaderParam@LightmappedGeneric@@QAE@PBDW4ShaderParamType_t@@00H@Z 10221250 f i lightmappedgeneric_dx9.obj
 0002:00108310       ??0LightmappedGeneric_DX9_Vars_t@@QAE@XZ 10221310 f i lightmappedgeneric_dx9.obj
 0002:00108380       ??1?$CUtlMemory@PAVCShaderParam@LightmappedGeneric@@H@@QAE@XZ 10221380 f i lightmappedgeneric_dx9.obj
 0002:001083d0       ??1?$CUtlVector@PAVCShaderParam@LightmappedGeneric@@V?$CUtlMemory@PAVCShaderParam@LightmappedGeneric@@H@@@@QAE@XZ 102213d0 f i lightmappedgeneric_dx9.obj
 0002:00108430       ??A?$CUtlMemory@PAVCShaderParam@LightmappedGeneric@@H@@QAEAAPAVCShaderParam@LightmappedGeneric@@H@Z 10221430 f i lightmappedgeneric_dx9.obj
 0002:00108630       ??A?$CUtlVector@PAVCShaderParam@LightmappedGeneric@@V?$CUtlMemory@PAVCShaderParam@LightmappedGeneric@@H@@@@QAEAAPAVCShaderParam@LightmappedGeneric@@H@Z 10221630 f i lightmappedgeneric_dx9.obj
 0002:00108760       ??BCShaderParam@LightmappedGeneric@@QAEHXZ 10221760 f i lightmappedgeneric_dx9.obj
 0002:001087a0       ?AddToTail@?$CUtlVector@PAVCShaderParam@LightmappedGeneric@@V?$CUtlMemory@PAVCShaderParam@LightmappedGeneric@@H@@@@QAEHABQAVCShaderParam@LightmappedGeneric@@@Z 102217a0 f i lightmappedgeneric_dx9.obj
 0002:00108910       ?Base@?$CUtlMemory@PAVCShaderParam@LightmappedGeneric@@H@@QAEPAPAVCShaderParam@LightmappedGeneric@@XZ 10221910 f i lightmappedgeneric_dx9.obj
 0002:00108a30       ?Base@?$CUtlVector@PAVCShaderParam@LightmappedGeneric@@V?$CUtlMemory@PAVCShaderParam@LightmappedGeneric@@H@@@@QAEPAPAVCShaderParam@LightmappedGeneric@@XZ 10221a30 f i lightmappedgeneric_dx9.obj
 0002:00108a80       ?Count@?$CUtlVector@PAVCShaderParam@LightmappedGeneric@@V?$CUtlMemory@PAVCShaderParam@LightmappedGeneric@@H@@@@QBEHXZ 10221a80 f i lightmappedgeneric_dx9.obj
 0002:00108ac0       ?Element@?$CUtlVector@PAVCShaderParam@LightmappedGeneric@@V?$CUtlMemory@PAVCShaderParam@LightmappedGeneric@@H@@@@QAEAAPAVCShaderParam@LightmappedGeneric@@H@Z 10221ac0 f i lightmappedgeneric_dx9.obj
 0002:00108bf0       ?GetFallbackShader@CShader@LightmappedGeneric@@UBEPBDPAPAVIMaterialVar@@@Z 10221bf0 f i lightmappedgeneric_dx9.obj
 0002:00108c30       ?GetFlags@CShader@LightmappedGeneric@@UBEHXZ 10221c30 f i lightmappedgeneric_dx9.obj
 0002:00108c70       ?GetInfo@CShaderParam@LightmappedGeneric@@QBEABUShaderParamInfo_t@@XZ 10221c70 f i lightmappedgeneric_dx9.obj
 0002:00108cb0       ?GetName@CShader@LightmappedGeneric@@UBEPBDXZ 10221cb0 f i lightmappedgeneric_dx9.obj
 0002:00108cf0       ?GetParamCount@CShader@LightmappedGeneric@@UBEHXZ 10221cf0 f i lightmappedgeneric_dx9.obj
 0002:00108d50       ?GetParamInfo@CShader@LightmappedGeneric@@UBEABUShaderParamInfo_t@@H@Z 10221d50 f i lightmappedgeneric_dx9.obj
 0002:00108df0       ?Grow@?$CUtlMemory@PAVCShaderParam@LightmappedGeneric@@H@@QAEXH@Z 10221df0 f i lightmappedgeneric_dx9.obj
 0002:00109460       ?GrowVector@?$CUtlVector@PAVCShaderParam@LightmappedGeneric@@V?$CUtlMemory@PAVCShaderParam@LightmappedGeneric@@H@@@@IAEXH@Z 10222460 f i lightmappedgeneric_dx9.obj
 0002:00109580       ?InsertBefore@?$CUtlVector@PAVCShaderParam@LightmappedGeneric@@V?$CUtlMemory@PAVCShaderParam@LightmappedGeneric@@H@@@@QAEHHABQAVCShaderParam@LightmappedGeneric@@@Z 10222580 f i lightmappedgeneric_dx9.obj
 0002:00109800       ?IsExternallyAllocated@?$CUtlMemory@PAVCShaderParam@LightmappedGeneric@@H@@QBE_NXZ 10222800 f i lightmappedgeneric_dx9.obj
 0002:00109870       ?IsIdxValid@?$CUtlMemory@PAVCShaderParam@LightmappedGeneric@@H@@QBE_NH@Z 10222870 f i lightmappedgeneric_dx9.obj
 0002:001098f0       ?IsReadOnly@?$CUtlMemory@PAVCShaderParam@LightmappedGeneric@@H@@QBE_NXZ 102228f0 f i lightmappedgeneric_dx9.obj
 0002:00109960       ?IsValidIndex@?$CUtlVector@PAVCShaderParam@LightmappedGeneric@@V?$CUtlMemory@PAVCShaderParam@LightmappedGeneric@@H@@@@QBE_NH@Z 10222960 f i lightmappedgeneric_dx9.obj
 0002:001099d0       ?NumAllocated@?$CUtlMemory@PAVCShaderParam@LightmappedGeneric@@H@@QBEHXZ 102229d0 f i lightmappedgeneric_dx9.obj
 0002:00109a10       ?OnDrawElements@CShader@LightmappedGeneric@@UAEXPAPAVIMaterialVar@@PAVIShaderShadow@@PAVIShaderDynamicAPI@@W4VertexCompressionType_t@@PAPAVCBasePerMaterialContextData@@@Z 10222a10 f i lightmappedgeneric_dx9.obj
 0002:00109b00       ?OnInitShaderInstance@CShader@LightmappedGeneric@@UAEXPAPAVIMaterialVar@@PAVIShaderInit@@PBD@Z 10222b00 f i lightmappedgeneric_dx9.obj
 0002:00109b80       ?OnInitShaderParams@CShader@LightmappedGeneric@@UAEXPAPAVIMaterialVar@@PBD@Z 10222b80 f i lightmappedgeneric_dx9.obj
 0002:00109c00       ?Purge@?$CUtlMemory@PAVCShaderParam@LightmappedGeneric@@H@@QAEXXZ 10222c00 f i lightmappedgeneric_dx9.obj
 0002:00109cb0       ?Purge@?$CUtlVector@PAVCShaderParam@LightmappedGeneric@@V?$CUtlMemory@PAVCShaderParam@LightmappedGeneric@@H@@@@QAEXXZ 10222cb0 f i lightmappedgeneric_dx9.obj
 0002:00109d20       ?RemoveAll@?$CUtlVector@PAVCShaderParam@LightmappedGeneric@@V?$CUtlMemory@PAVCShaderParam@LightmappedGeneric@@H@@@@QAEXXZ 10222d20 f i lightmappedgeneric_dx9.obj
 0002:00109db0       ?ResetDbgInfo@?$CUtlVector@PAVCShaderParam@LightmappedGeneric@@V?$CUtlMemory@PAVCShaderParam@LightmappedGeneric@@H@@@@IAEXXZ 10222db0 f i lightmappedgeneric_dx9.obj
 0002:00109e10       ?SetupVars@CShader@LightmappedGeneric@@QAEXAAULightmappedGeneric_DX9_Vars_t@@@Z 10222e10 f i lightmappedgeneric_dx9.obj
 0002:0010a350       ?ShiftElementsRight@?$CUtlVector@PAVCShaderParam@LightmappedGeneric@@V?$CUtlMemory@PAVCShaderParam@LightmappedGeneric@@H@@@@IAEXHH@Z 10223350 f i lightmappedgeneric_dx9.obj
 0002:0010a4f0       ?ValidateGrowSize@?$CUtlMemory@PAVCShaderParam@LightmappedGeneric@@H@@IAEXXZ 102234f0 f i lightmappedgeneric_dx9.obj
 0002:0010a530       ??$Put@H@?$CFixedCommandStorageBuffer@$0BDII@@@QAEXABH@Z 10223530 f i lightmappedgeneric_dx9_helper.obj
 0002:0010a5d0       ??$Put@H@?$CFixedCommandStorageBuffer@$0DIE@@@QAEXABH@Z 102235d0 f i lightmappedgeneric_dx9_helper.obj
 0002:0010a670       ??$Put@H@?$CFixedCommandStorageBuffer@$0DOI@@@QAEXABH@Z 10223670 f i lightmappedgeneric_dx9_helper.obj
 0002:0010a710       ??$Put@M@?$CFixedCommandStorageBuffer@$0BDII@@@QAEXABM@Z 10223710 f i lightmappedgeneric_dx9_helper.obj
 0002:0010a7b0       ??$Put@M@?$CFixedCommandStorageBuffer@$0DIE@@@QAEXABM@Z 102237b0 f i lightmappedgeneric_dx9_helper.obj
 0002:0010a850       ??$Put@M@?$CFixedCommandStorageBuffer@$0DOI@@@QAEXABM@Z 10223850 f i lightmappedgeneric_dx9_helper.obj
 0002:0010a8f0       ??$Put@PAX@?$CFixedCommandStorageBuffer@$0DOI@@@QAEXABQAX@Z 102238f0 f i lightmappedgeneric_dx9_helper.obj
 0002:0010a990       ??0?$CBaseCommandBufferBuilder@V?$CFixedCommandStorageBuffer@$0BDII@@@@@QAE@XZ 10223990 f i lightmappedgeneric_dx9_helper.obj
 0002:0010a9f0       ??0?$CBaseCommandBufferBuilder@V?$CFixedCommandStorageBuffer@$0DIE@@@@@QAE@XZ 102239f0 f i lightmappedgeneric_dx9_helper.obj
 0002:0010aa50       ??0?$CBaseCommandBufferBuilder@V?$CFixedCommandStorageBuffer@$0DOI@@@@@QAE@XZ 10223a50 f i lightmappedgeneric_dx9_helper.obj
 0002:0010aab0       ??0?$CCommandBufferBuilder@V?$CFixedCommandStorageBuffer@$0BDII@@@@@QAE@XZ 10223ab0 f i lightmappedgeneric_dx9_helper.obj
 0002:0010ab10       ??0?$CCommandBufferBuilder@V?$CFixedCommandStorageBuffer@$0DIE@@@@@QAE@XZ 10223b10 f i lightmappedgeneric_dx9_helper.obj
 0002:0010ab70       ??0?$CCommandBufferBuilder@V?$CFixedCommandStorageBuffer@$0DOI@@@@@QAE@XZ 10223b70 f i lightmappedgeneric_dx9_helper.obj
 0002:0010abd0       ??0?$CFixedCommandStorageBuffer@$0BDII@@@QAE@XZ 10223bd0 f i lightmappedgeneric_dx9_helper.obj
 0002:0010ac30       ??0?$CFixedCommandStorageBuffer@$0DIE@@@QAE@XZ 10223c30 f i lightmappedgeneric_dx9_helper.obj
 0002:0010ac90       ??0?$CFixedCommandStorageBuffer@$0DOI@@@QAE@XZ 10223c90 f i lightmappedgeneric_dx9_helper.obj
 0002:0010acf0       ??0CLightmappedGeneric_DX9_Context@@QAE@XZ 10223cf0 f i lightmappedgeneric_dx9_helper.obj
 0002:0010ad80       ??0DrawFlashlight_dx90_Vars_t@CBaseVSShader@@QAE@XZ 10223d80 f i lightmappedgeneric_dx9_helper.obj
 0002:0010ae20       ??0lightmappedgeneric_ps20b_Dynamic_Index@@QAE@PAVIShaderDynamicAPI@@@Z 10223e20 f i lightmappedgeneric_dx9_helper.obj
 0002:0010af30       ??0lightmappedgeneric_ps20b_Static_Index@@QAE@PAVIShaderShadow@@PAPAVIMaterialVar@@@Z 10223f30 f i lightmappedgeneric_dx9_helper.obj
 0002:0010b1e0       ??0lightmappedgeneric_vs20_Dynamic_Index@@QAE@PAVIShaderDynamicAPI@@@Z 102241e0 f i lightmappedgeneric_dx9_helper.obj
 0002:0010b2a0       ??0lightmappedgeneric_vs20_Static_Index@@QAE@PAVIShaderShadow@@PAPAVIMaterialVar@@@Z 102242a0 f i lightmappedgeneric_dx9_helper.obj
 0002:0010b4b0       ??1CLightmappedGeneric_DX9_Context@@UAE@XZ 102244b0 f i lightmappedgeneric_dx9_helper.obj
 0002:0010b590       ??_GCLightmappedGeneric_DX9_Context@@UAEPAXI@Z 10224590 f i lightmappedgeneric_dx9_helper.obj
 0002:0010b590       ??_ECLightmappedGeneric_DX9_Context@@UAEPAXI@Z 10224590 f i lightmappedgeneric_dx9_helper.obj
 0002:0010b600       ?Base@?$CCommandBufferBuilder@V?$CFixedCommandStorageBuffer@$0BDII@@@@@QAEPAEXZ 10224600 f i lightmappedgeneric_dx9_helper.obj
 0002:0010b650       ?Base@?$CCommandBufferBuilder@V?$CFixedCommandStorageBuffer@$0DIE@@@@@QAEPAEXZ 10224650 f i lightmappedgeneric_dx9_helper.obj
 0002:0010b6a0       ?Base@?$CCommandBufferBuilder@V?$CFixedCommandStorageBuffer@$0DOI@@@@@QAEPAEXZ 102246a0 f i lightmappedgeneric_dx9_helper.obj
 0002:0010b6f0       ?Base@?$CFixedCommandStorageBuffer@$0BDII@@@QAEPAEXZ 102246f0 f i lightmappedgeneric_dx9_helper.obj
 0002:0010b730       ?Base@?$CFixedCommandStorageBuffer@$0DIE@@@QAEPAEXZ 10224730 f i lightmappedgeneric_dx9_helper.obj
 0002:0010b770       ?Base@?$CFixedCommandStorageBuffer@$0DOI@@@QAEPAEXZ 10224770 f i lightmappedgeneric_dx9_helper.obj
 0002:0010b7b0       ?BindStandardTexture@?$CCommandBufferBuilder@V?$CFixedCommandStorageBuffer@$0BDII@@@@@QAEXW4Sampler_t@@W4StandardTextureId_t@@@Z 102247b0 f i lightmappedgeneric_dx9_helper.obj
 0002:0010b830       ?BindStandardTexture@?$CCommandBufferBuilder@V?$CFixedCommandStorageBuffer@$0DIE@@@@@QAEXW4Sampler_t@@W4StandardTextureId_t@@@Z 10224830 f i lightmappedgeneric_dx9_helper.obj
 0002:0010b8b0       ?BindTexture@?$CCommandBufferBuilder@V?$CFixedCommandStorageBuffer@$0DIE@@@@@QAEXPAVCBaseShader@@W4Sampler_t@@HH@Z 102248b0 f i lightmappedgeneric_dx9_helper.obj
 0002:0010b930       ?BindTexture@?$CCommandBufferBuilder@V?$CFixedCommandStorageBuffer@$0DIE@@@@@QAEXW4Sampler_t@@H@Z 10224930 f i lightmappedgeneric_dx9_helper.obj
 0002:0010ba70       ?BindTexture@?$CCommandBufferBuilder@V?$CFixedCommandStorageBuffer@$0DOI@@@@@QAEXPAVCBaseShader@@W4Sampler_t@@HH@Z 10224a70 f i lightmappedgeneric_dx9_helper.obj
 0002:0010baf0       ?BindTexture@?$CCommandBufferBuilder@V?$CFixedCommandStorageBuffer@$0DOI@@@@@QAEXW4Sampler_t@@H@Z 10224af0 f i lightmappedgeneric_dx9_helper.obj
 0002:0010bc30       ?Call@?$CCommandBufferBuilder@V?$CFixedCommandStorageBuffer@$0DOI@@@@@QAEXPAE@Z 10224c30 f i lightmappedgeneric_dx9_helper.obj
 0002:0010bca0       ?DrawLightmappedGeneric_DX9@@YAXPAVCBaseVSShader@@PAPAVIMaterialVar@@PAVIShaderDynamicAPI@@PAVIShaderShadow@@AAULightmappedGeneric_DX9_Vars_t@@PAPAVCBasePerMaterialContextData@@@Z 10224ca0 f   lightmappedgeneric_dx9_helper.obj
 0002:001105f0       ?End@?$CCommandBufferBuilder@V?$CFixedCommandStorageBuffer@$0BDII@@@@@QAEXXZ 102295f0 f i lightmappedgeneric_dx9_helper.obj
 0002:00110650       ?End@?$CCommandBufferBuilder@V?$CFixedCommandStorageBuffer@$0DIE@@@@@QAEXXZ 10229650 f i lightmappedgeneric_dx9_helper.obj
 0002:001106b0       ?End@?$CCommandBufferBuilder@V?$CFixedCommandStorageBuffer@$0DOI@@@@@QAEXXZ 102296b0 f i lightmappedgeneric_dx9_helper.obj
 0002:00110710       ?EnsureCapacity@?$CFixedCommandStorageBuffer@$0BDII@@@QAEXI@Z 10229710 f i lightmappedgeneric_dx9_helper.obj
 0002:00110850       ?EnsureCapacity@?$CFixedCommandStorageBuffer@$0DIE@@@QAEXI@Z 10229850 f i lightmappedgeneric_dx9_helper.obj
 0002:00110990       ?EnsureCapacity@?$CFixedCommandStorageBuffer@$0DOI@@@QAEXI@Z 10229990 f i lightmappedgeneric_dx9_helper.obj
 0002:00110ad0       ?GetFloat@ConVarRef@@QBEMXZ 10229ad0 f i lightmappedgeneric_dx9_helper.obj
 0002:00110b10       ?GetIndex@lightmappedgeneric_ps20b_Dynamic_Index@@QAEHXZ 10229b10 f i lightmappedgeneric_dx9_helper.obj
 0002:00110ce0       ?GetIndex@lightmappedgeneric_ps20b_Static_Index@@QAEHXZ 10229ce0 f i lightmappedgeneric_dx9_helper.obj
 0002:00111120       ?GetIndex@lightmappedgeneric_vs20_Dynamic_Index@@QAEHXZ 1022a120 f i lightmappedgeneric_dx9_helper.obj
 0002:00111290       ?GetIndex@lightmappedgeneric_vs20_Static_Index@@QAEHXZ 1022a290 f i lightmappedgeneric_dx9_helper.obj
 0002:00111570       ?InitFloatParam@@YAXHPAPAVIMaterialVar@@M@Z 1022a570 f i lightmappedgeneric_dx9_helper.obj
 0002:00111630       ?InitIntParam@@YAXHPAPAVIMaterialVar@@H@Z 1022a630 f i lightmappedgeneric_dx9_helper.obj
 0002:001116e0       ?InitLightmappedGeneric_DX9@@YAXPAVCBaseVSShader@@PAPAVIMaterialVar@@AAULightmappedGeneric_DX9_Vars_t@@@Z 1022a6e0 f   lightmappedgeneric_dx9_helper.obj
 0002:00111ed0       ?InitParamsLightmappedGeneric_DX9@@YAXPAVCBaseVSShader@@PAPAVIMaterialVar@@PBDAAULightmappedGeneric_DX9_Vars_t@@@Z 1022aed0 f   lightmappedgeneric_dx9_helper.obj
 0002:00113140       ?IsBoolSet@@YA_NHPAPAVIMaterialVar@@@Z 1022c140 f i lightmappedgeneric_dx9_helper.obj
 0002:001131c0       ?OutputConstantData4@?$CCommandBufferBuilder@V?$CFixedCommandStorageBuffer@$0DIE@@@@@QAEXMMMM@Z 1022c1c0 f i lightmappedgeneric_dx9_helper.obj
 0002:00113270       ?OutputConstantData@?$CCommandBufferBuilder@V?$CFixedCommandStorageBuffer@$0DIE@@@@@QAEXPBM@Z 1022c270 f i lightmappedgeneric_dx9_helper.obj
 0002:00113350       ?Param@?$CBaseCommandBufferBuilder@V?$CFixedCommandStorageBuffer@$0DIE@@@@@QBEPAVIMaterialVar@@H@Z 1022c350 f i lightmappedgeneric_dx9_helper.obj
 0002:001133a0       ?PutFloat@?$CFixedCommandStorageBuffer@$0BDII@@@QAEXM@Z 1022c3a0 f i lightmappedgeneric_dx9_helper.obj
 0002:00113400       ?PutFloat@?$CFixedCommandStorageBuffer@$0DIE@@@QAEXM@Z 1022c400 f i lightmappedgeneric_dx9_helper.obj
 0002:00113460       ?PutFloat@?$CFixedCommandStorageBuffer@$0DOI@@@QAEXM@Z 1022c460 f i lightmappedgeneric_dx9_helper.obj
 0002:001134c0       ?PutInt@?$CFixedCommandStorageBuffer@$0BDII@@@QAEXH@Z 1022c4c0 f i lightmappedgeneric_dx9_helper.obj
 0002:00113520       ?PutInt@?$CFixedCommandStorageBuffer@$0DIE@@@QAEXH@Z 1022c520 f i lightmappedgeneric_dx9_helper.obj
 0002:00113580       ?PutInt@?$CFixedCommandStorageBuffer@$0DOI@@@QAEXH@Z 1022c580 f i lightmappedgeneric_dx9_helper.obj
 0002:001135e0       ?PutMemory@?$CFixedCommandStorageBuffer@$0DIE@@@QAEXPBXI@Z 1022c5e0 f i lightmappedgeneric_dx9_helper.obj
 0002:00113690       ?PutMemory@?$CFixedCommandStorageBuffer@$0DOI@@@QAEXPBXI@Z 1022c690 f i lightmappedgeneric_dx9_helper.obj
 0002:00113740       ?PutPtr@?$CFixedCommandStorageBuffer@$0DOI@@@QAEXPAX@Z 1022c740 f i lightmappedgeneric_dx9_helper.obj
 0002:001137a0       ?Reset@?$CCommandBufferBuilder@V?$CFixedCommandStorageBuffer@$0DIE@@@@@QAEXXZ 1022c7a0 f i lightmappedgeneric_dx9_helper.obj
 0002:001137f0       ?Reset@?$CFixedCommandStorageBuffer@$0DIE@@@QAEXXZ 1022c7f0 f i lightmappedgeneric_dx9_helper.obj
 0002:00113850       ?ResetStaticCmds@CLightmappedGeneric_DX9_Context@@QAEXXZ 1022c850 f i lightmappedgeneric_dx9_helper.obj
 0002:001138d0       ?SetBASEALPHAENVMAPMASK@lightmappedgeneric_ps20b_Static_Index@@QAEX_N@Z 1022c8d0 f i lightmappedgeneric_dx9_helper.obj
 0002:00113950       ?SetBASETEXTURE2@lightmappedgeneric_ps20b_Static_Index@@QAEX_N@Z 1022c950 f i lightmappedgeneric_dx9_helper.obj
 0002:001139d0       ?SetBASETEXTURE2NOENVMAP@lightmappedgeneric_ps20b_Static_Index@@QAEXH@Z 1022c9d0 f i lightmappedgeneric_dx9_helper.obj
 0002:00113b00       ?SetBASETEXTURENOENVMAP@lightmappedgeneric_ps20b_Static_Index@@QAEXH@Z 1022cb00 f i lightmappedgeneric_dx9_helper.obj
 0002:00113c30       ?SetBUMPMAP2@lightmappedgeneric_ps20b_Static_Index@@QAEX_N@Z 1022cc30 f i lightmappedgeneric_dx9_helper.obj
 0002:00113cb0       ?SetBUMPMAP@lightmappedgeneric_ps20b_Static_Index@@QAEXH@Z 1022ccb0 f i lightmappedgeneric_dx9_helper.obj
 0002:00113dd0       ?SetBUMPMAP@lightmappedgeneric_vs20_Static_Index@@QAEX_N@Z 1022cdd0 f i lightmappedgeneric_dx9_helper.obj
 0002:00113e50       ?SetBUMPMASK@lightmappedgeneric_ps20b_Static_Index@@QAEX_N@Z 1022ce50 f i lightmappedgeneric_dx9_helper.obj
 0002:00113ed0       ?SetBUMPMASK@lightmappedgeneric_vs20_Static_Index@@QAEX_N@Z 1022ced0 f i lightmappedgeneric_dx9_helper.obj
 0002:00113f50       ?SetCUBEMAP@lightmappedgeneric_ps20b_Static_Index@@QAEXH@Z 1022cf50 f i lightmappedgeneric_dx9_helper.obj
 0002:00114080       ?SetDETAILTEXTURE@lightmappedgeneric_vs20_Static_Index@@QAEX_N@Z 1022d080 f i lightmappedgeneric_dx9_helper.obj
 0002:00114100       ?SetDETAIL_BLEND_MODE@lightmappedgeneric_ps20b_Static_Index@@QAEXH@Z 1022d100 f i lightmappedgeneric_dx9_helper.obj
 0002:00114240       ?SetDIFFUSEBUMPMAP@lightmappedgeneric_ps20b_Static_Index@@QAEX_N@Z 1022d240 f i lightmappedgeneric_dx9_helper.obj
 0002:001142c0       ?SetDIFFUSEBUMPMAP@lightmappedgeneric_vs20_Static_Index@@QAEX_N@Z 1022d2c0 f i lightmappedgeneric_dx9_helper.obj
 0002:00114340       ?SetENVMAPMASK@lightmappedgeneric_ps20b_Static_Index@@QAEX_N@Z 1022d340 f i lightmappedgeneric_dx9_helper.obj
 0002:001143c0       ?SetENVMAP_MASK@lightmappedgeneric_vs20_Static_Index@@QAEX_N@Z 1022d3c0 f i lightmappedgeneric_dx9_helper.obj
 0002:00114440       ?SetEnvMapTintPixelShaderDynamicState@?$CCommandBufferBuilder@V?$CFixedCommandStorageBuffer@$0DIE@@@@@QAEXHH@Z 1022d440 f i lightmappedgeneric_dx9_helper.obj
 0002:00114530       ?SetFANCY_BLENDING@lightmappedgeneric_ps20b_Static_Index@@QAEX_N@Z 1022d530 f i lightmappedgeneric_dx9_helper.obj
 0002:001145b0       ?SetFANCY_BLENDING@lightmappedgeneric_vs20_Static_Index@@QAEX_N@Z 1022d5b0 f i lightmappedgeneric_dx9_helper.obj
 0002:00114630       ?SetFASTPATH@lightmappedgeneric_ps20b_Dynamic_Index@@QAEX_N@Z 1022d630 f i lightmappedgeneric_dx9_helper.obj
 0002:001146b0       ?SetFASTPATH@lightmappedgeneric_vs20_Dynamic_Index@@QAEX_N@Z 1022d6b0 f i lightmappedgeneric_dx9_helper.obj
 0002:00114730       ?SetFASTPATHENVMAPCONTRAST@lightmappedgeneric_ps20b_Dynamic_Index@@QAEX_N@Z 1022d730 f i lightmappedgeneric_dx9_helper.obj
 0002:001147b0       ?SetFLASHLIGHTSHADOWS@lightmappedgeneric_ps20b_Dynamic_Index@@QAEX_N@Z 1022d7b0 f i lightmappedgeneric_dx9_helper.obj
 0002:00114830       ?SetLIGHTING_PREVIEW@lightmappedgeneric_ps20b_Static_Index@@QAEXH@Z 1022d830 f i lightmappedgeneric_dx9_helper.obj
 0002:00114970       ?SetLIGHTING_PREVIEW@lightmappedgeneric_vs20_Static_Index@@QAEXH@Z 1022d970 f i lightmappedgeneric_dx9_helper.obj
 0002:00114aa0       ?SetMASKEDBLENDING@lightmappedgeneric_ps20b_Static_Index@@QAEX_N@Z 1022daa0 f i lightmappedgeneric_dx9_helper.obj
 0002:00114b20       ?SetNORMALMAPALPHAENVMAPMASK@lightmappedgeneric_ps20b_Static_Index@@QAEX_N@Z 1022db20 f i lightmappedgeneric_dx9_helper.obj
 0002:00114ba0       ?SetOUTLINE@lightmappedgeneric_ps20b_Static_Index@@QAEX_N@Z 1022dba0 f i lightmappedgeneric_dx9_helper.obj
 0002:00114c20       ?SetPARALLAX_MAPPING@lightmappedgeneric_ps20b_Static_Index@@QAEX_N@Z 1022dc20 f i lightmappedgeneric_dx9_helper.obj
 0002:00114ca0       ?SetPARALLAX_MAPPING@lightmappedgeneric_vs20_Static_Index@@QAEX_N@Z 1022dca0 f i lightmappedgeneric_dx9_helper.obj
 0002:00114d20       ?SetPixelShaderConstant4@?$CCommandBufferBuilder@V?$CFixedCommandStorageBuffer@$0DIE@@@@@QAEXHMMMM@Z 1022dd20 f i lightmappedgeneric_dx9_helper.obj
 0002:00114dc0       ?SetPixelShaderConstant@?$CCommandBufferBuilder@V?$CFixedCommandStorageBuffer@$0DIE@@@@@QAEXHPBM@Z 1022ddc0 f i lightmappedgeneric_dx9_helper.obj
 0002:00114e30       ?SetPixelShaderConstant@?$CCommandBufferBuilder@V?$CFixedCommandStorageBuffer@$0DIE@@@@@QAEXHPBMH@Z 1022de30 f i lightmappedgeneric_dx9_helper.obj
 0002:00114eb0       ?SetPixelShaderConstant@?$CCommandBufferBuilder@V?$CFixedCommandStorageBuffer@$0DOI@@@@@QAEXHPBMH@Z 1022deb0 f i lightmappedgeneric_dx9_helper.obj
 0002:00114f30       ?SetPixelShaderConstants@?$CCommandBufferBuilder@V?$CFixedCommandStorageBuffer@$0DIE@@@@@QAEXHH@Z 1022df30 f i lightmappedgeneric_dx9_helper.obj
 0002:00114fb0       ?SetPixelShaderConstants@?$CCommandBufferBuilder@V?$CFixedCommandStorageBuffer@$0DOI@@@@@QAEXHH@Z 1022dfb0 f i lightmappedgeneric_dx9_helper.obj
 0002:00115030       ?SetPixelShaderFlashlightState@?$CCommandBufferBuilder@V?$CFixedCommandStorageBuffer@$0DIE@@@@@QAEXABUCBCmdSetPixelShaderFlashlightState_t@@@Z 1022e030 f i lightmappedgeneric_dx9_helper.obj
 0002:00115160       ?SetPixelShaderFogParams@?$CCommandBufferBuilder@V?$CFixedCommandStorageBuffer@$0BDII@@@@@QAEXH@Z 1022e160 f i lightmappedgeneric_dx9_helper.obj
 0002:001151d0       ?SetPixelShaderIndex@?$CCommandBufferBuilder@V?$CFixedCommandStorageBuffer@$0DOI@@@@@QAEXH@Z 1022e1d0 f i lightmappedgeneric_dx9_helper.obj
 0002:00115240       ?SetSEAMLESS@lightmappedgeneric_ps20b_Static_Index@@QAEX_N@Z 1022e240 f i lightmappedgeneric_dx9_helper.obj
 0002:001152c0       ?SetSEAMLESS@lightmappedgeneric_vs20_Static_Index@@QAEX_N@Z 1022e2c0 f i lightmappedgeneric_dx9_helper.obj
 0002:00115340       ?SetSELFILLUM@lightmappedgeneric_ps20b_Static_Index@@QAEX_N@Z 1022e340 f i lightmappedgeneric_dx9_helper.obj
 0002:001153c0       ?SetSELFILLUM@lightmappedgeneric_vs20_Static_Index@@QAEX_N@Z 1022e3c0 f i lightmappedgeneric_dx9_helper.obj
 0002:00115440       ?SetSHADER_SRGB_READ@lightmappedgeneric_ps20b_Static_Index@@QAEX_N@Z 1022e440 f i lightmappedgeneric_dx9_helper.obj
 0002:001154c0       ?SetSOFTEDGES@lightmappedgeneric_ps20b_Static_Index@@QAEX_N@Z 1022e4c0 f i lightmappedgeneric_dx9_helper.obj
 0002:00115540       ?SetTANGENTSPACE@lightmappedgeneric_vs20_Static_Index@@QAEX_N@Z 1022e540 f i lightmappedgeneric_dx9_helper.obj
 0002:001155c0       ?SetVERTEXALPHATEXBLENDFACTOR@lightmappedgeneric_vs20_Static_Index@@QAEX_N@Z 1022e5c0 f i lightmappedgeneric_dx9_helper.obj
 0002:00115640       ?SetVERTEXCOLOR@lightmappedgeneric_vs20_Static_Index@@QAEX_N@Z 1022e640 f i lightmappedgeneric_dx9_helper.obj
 0002:001156c0       ?SetVertexShaderConstant4@?$CCommandBufferBuilder@V?$CFixedCommandStorageBuffer@$0BDII@@@@@QAEXHMMMM@Z 1022e6c0 f i lightmappedgeneric_dx9_helper.obj
 0002:00115790       ?SetVertexShaderConstant4@?$CCommandBufferBuilder@V?$CFixedCommandStorageBuffer@$0DOI@@@@@QAEXHMMMM@Z 1022e790 f i lightmappedgeneric_dx9_helper.obj
 0002:00115860       ?SetVertexShaderConstant@?$CCommandBufferBuilder@V?$CFixedCommandStorageBuffer@$0DIE@@@@@QAEXHPBM@Z 1022e860 f i lightmappedgeneric_dx9_helper.obj
 0002:001158e0       ?SetVertexShaderConstant@?$CCommandBufferBuilder@V?$CFixedCommandStorageBuffer@$0DIE@@@@@QAEXHPBMH@Z 1022e8e0 f i lightmappedgeneric_dx9_helper.obj
 0002:00115970       ?SetVertexShaderFlashlightState@?$CCommandBufferBuilder@V?$CFixedCommandStorageBuffer@$0DIE@@@@@QAEXH@Z 1022e970 f i lightmappedgeneric_dx9_helper.obj
 0002:001159e0       ?SetVertexShaderIndex@?$CCommandBufferBuilder@V?$CFixedCommandStorageBuffer@$0DOI@@@@@QAEXH@Z 1022e9e0 f i lightmappedgeneric_dx9_helper.obj
 0002:00115a50       ?SetVertexShaderNearAndFarZ@?$CCommandBufferBuilder@V?$CFixedCommandStorageBuffer@$0BDII@@@@@QAEXH@Z 1022ea50 f i lightmappedgeneric_dx9_helper.obj
 0002:00115ac0       ?SetVertexShaderTextureScaledTransform@?$CCommandBufferBuilder@V?$CFixedCommandStorageBuffer@$0DIE@@@@@QAEXHHH@Z 1022eac0 f i lightmappedgeneric_dx9_helper.obj
 0002:001160a0       ?SetVertexShaderTextureTransform@?$CCommandBufferBuilder@V?$CFixedCommandStorageBuffer@$0DIE@@@@@QAEXHH@Z 1022f0a0 f i lightmappedgeneric_dx9_helper.obj
 0002:001163d0       ?SetWARPLIGHTING@lightmappedgeneric_ps20b_Static_Index@@QAEX_N@Z 1022f3d0 f i lightmappedgeneric_dx9_helper.obj
 0002:00116450       ?SetWRITEWATERFOGTODESTALPHA@lightmappedgeneric_ps20b_Dynamic_Index@@QAEX_N@Z 1022f450 f i lightmappedgeneric_dx9_helper.obj
 0002:001164d0       ?SetWRITE_DEPTH_TO_DESTALPHA@lightmappedgeneric_ps20b_Dynamic_Index@@QAEX_N@Z 1022f4d0 f i lightmappedgeneric_dx9_helper.obj
 0002:00116550       ?Size@?$CCommandBufferBuilder@V?$CFixedCommandStorageBuffer@$0BDII@@@@@QBEIXZ 1022f550 f i lightmappedgeneric_dx9_helper.obj
 0002:001165a0       ?Size@?$CFixedCommandStorageBuffer@$0BDII@@@QBEIXZ 1022f5a0 f i lightmappedgeneric_dx9_helper.obj
 0002:001165f0       ?StoreEyePosInPixelShaderConstant@?$CCommandBufferBuilder@V?$CFixedCommandStorageBuffer@$0BDII@@@@@QAEXHM@Z 1022f5f0 f i lightmappedgeneric_dx9_helper.obj
 0002:00116670       ?UseSpecular@MaterialSystem_Config_t@@QBE_NXZ 1022f670 f i lightmappedgeneric_dx9_helper.obj
 0002:001166e0       ??0lightmappedpaint_ps20b_Dynamic_Index@@QAE@PAVIShaderDynamicAPI@@@Z 1022f6e0 f i lightmappedpaint_dx9_helper.obj
 0002:001167c0       ??0lightmappedpaint_ps20b_Static_Index@@QAE@PAVIShaderShadow@@PAPAVIMaterialVar@@@Z 1022f7c0 f i lightmappedpaint_dx9_helper.obj
 0002:001168d0       ?DrawLightmappedPaint_DX9@@YAXPAVCBaseVSShader@@PAPAVIMaterialVar@@PAVIShaderDynamicAPI@@PAVIShaderShadow@@AAULightmappedGeneric_DX9_Vars_t@@PAPAVCBasePerMaterialContextData@@@Z 1022f8d0 f   lightmappedpaint_dx9_helper.obj
 0002:001197f0       ?GetIndex@lightmappedpaint_ps20b_Dynamic_Index@@QAEHXZ 102327f0 f i lightmappedpaint_dx9_helper.obj
 0002:00119990       ?GetIndex@lightmappedpaint_ps20b_Static_Index@@QAEHXZ 10232990 f i lightmappedpaint_dx9_helper.obj
 0002:00119b70       ?SetBUMPMAP@lightmappedpaint_ps20b_Static_Index@@QAEXH@Z 10232b70 f i lightmappedpaint_dx9_helper.obj
 0002:00119c90       ?SetBUMPMASK@lightmappedgeneric_vs20_Static_Index@@QAEXH@Z 10232c90 f i lightmappedpaint_dx9_helper.obj
 0002:00119dc0       ?SetCUBEMAP@lightmappedpaint_ps20b_Static_Index@@QAEXH@Z 10232dc0 f i lightmappedpaint_dx9_helper.obj
 0002:00119ee0       ?SetDETAILTEXTURE@lightmappedgeneric_vs20_Static_Index@@QAEXH@Z 10232ee0 f i lightmappedpaint_dx9_helper.obj
 0002:0011a000       ?SetFASTPATH@lightmappedpaint_ps20b_Dynamic_Index@@QAEX_N@Z 10233000 f i lightmappedpaint_dx9_helper.obj
 0002:0011a080       ?SetFASTPATHENVMAPCONTRAST@lightmappedpaint_ps20b_Dynamic_Index@@QAEX_N@Z 10233080 f i lightmappedpaint_dx9_helper.obj
 0002:0011a100       ?SetFLASHLIGHT@lightmappedpaint_ps20b_Static_Index@@QAEX_N@Z 10233100 f i lightmappedpaint_dx9_helper.obj
 0002:0011a180       ?SetFLASHLIGHTSHADOWS@lightmappedpaint_ps20b_Dynamic_Index@@QAEX_N@Z 10233180 f i lightmappedpaint_dx9_helper.obj
 0002:0011a200       ?SetPARALLAX_MAPPING@lightmappedgeneric_vs20_Static_Index@@QAEXH@Z 10233200 f i lightmappedpaint_dx9_helper.obj
 0002:0011a330       ?SetSEAMLESS@lightmappedpaint_ps20b_Static_Index@@QAEX_N@Z 10233330 f i lightmappedpaint_dx9_helper.obj
 0002:0011a3b0       ?SetSHADER_SRGB_READ@lightmappedpaint_ps20b_Static_Index@@QAEX_N@Z 102333b0 f i lightmappedpaint_dx9_helper.obj
 0002:0011a430       ?SetTANGENTSPACE@lightmappedgeneric_vs20_Static_Index@@QAEXH@Z 10233430 f i lightmappedpaint_dx9_helper.obj
 0002:0011a550       ?SetVERTEXALPHATEXBLENDFACTOR@lightmappedgeneric_vs20_Static_Index@@QAEXH@Z 10233550 f i lightmappedpaint_dx9_helper.obj
 0002:0011a680       ??$CopyConstruct@PAVCShaderParam@LightmappedReflective_DX90@@@@YAPAPAVCShaderParam@LightmappedReflective_DX90@@PAPAV01@ABQAV01@@Z 10233680 f i lightmappedreflective.obj
 0002:0011a720       ??$Destruct@PAVCShaderParam@LightmappedReflective@@@@YAXPAPAVCShaderParam@LightmappedReflective@@@Z 10233720 f i lightmappedreflective.obj
 0002:0011a780       ??$Destruct@PAVCShaderParam@LightmappedReflective_DX90@@@@YAXPAPAVCShaderParam@LightmappedReflective_DX90@@@Z 10233780 f i lightmappedreflective.obj
 0002:0011a7e0       ??$MemAllocClassName@V?$CUtlMemory@PAVCShaderParam@LightmappedReflective@@H@@@@YAPBDPAV?$CUtlMemory@PAVCShaderParam@LightmappedReflective@@H@@@Z 102337e0 f i lightmappedreflective.obj
 0002:0011a860       ??$MemAllocClassName@V?$CUtlMemory@PAVCShaderParam@LightmappedReflective_DX90@@H@@@@YAPBDPAV?$CUtlMemory@PAVCShaderParam@LightmappedReflective_DX90@@H@@@Z 10233860 f i lightmappedreflective.obj
 0002:0011a8e0       ??$MemAllocClassName@V?$CUtlVector@PAVCShaderParam@LightmappedReflective_DX90@@V?$CUtlMemory@PAVCShaderParam@LightmappedReflective_DX90@@H@@@@@@YAPBDPAV?$CUtlVector@PAVCShaderParam@LightmappedReflective_DX90@@V?$CUtlMemory@PAVCShaderParam@LightmappedReflective_DX90@@H@@@@@Z 102338e0 f i lightmappedreflective.obj
 0002:0011a960       ??0?$CUtlMemory@PAVCShaderParam@LightmappedReflective@@H@@QAE@HH@Z 10233960 f i lightmappedreflective.obj
 0002:0011ab50       ??0?$CUtlMemory@PAVCShaderParam@LightmappedReflective_DX90@@H@@QAE@HH@Z 10233b50 f i lightmappedreflective.obj
 0002:0011ad40       ??0?$CUtlVector@PAVCShaderParam@LightmappedReflective@@V?$CUtlMemory@PAVCShaderParam@LightmappedReflective@@H@@@@QAE@HH@Z 10233d40 f i lightmappedreflective.obj
 0002:0011adc0       ??0?$CUtlVector@PAVCShaderParam@LightmappedReflective_DX90@@V?$CUtlMemory@PAVCShaderParam@LightmappedReflective_DX90@@H@@@@QAE@HH@Z 10233dc0 f i lightmappedreflective.obj
 0002:0011ae40       ??0CShader@LightmappedReflective@@QAE@XZ 10233e40 f i lightmappedreflective.obj
 0002:0011aea0       ??0CShader@LightmappedReflective_DX90@@QAE@XZ 10233ea0 f i lightmappedreflective.obj
 0002:0011af00       ??0CShaderParam@LightmappedReflective_DX90@@QAE@PBDW4ShaderParamType_t@@00H@Z 10233f00 f i lightmappedreflective.obj
 0002:0011afc0       ??0lightmappedreflective_ps20b_Dynamic_Index@@QAE@PAVIShaderDynamicAPI@@@Z 10233fc0 f i lightmappedreflective.obj
 0002:0011b080       ??0lightmappedreflective_ps20b_Static_Index@@QAE@PAVIShaderShadow@@PAPAVIMaterialVar@@@Z 10234080 f i lightmappedreflective.obj
 0002:0011b110       ??0lightmappedreflective_vs20_Dynamic_Index@@QAE@PAVIShaderDynamicAPI@@@Z 10234110 f i lightmappedreflective.obj
 0002:0011b150       ??0lightmappedreflective_vs20_Static_Index@@QAE@PAVIShaderShadow@@PAPAVIMaterialVar@@@Z 10234150 f i lightmappedreflective.obj
 0002:0011b1a0       ??1?$CUtlMemory@PAVCShaderParam@LightmappedReflective@@H@@QAE@XZ 102341a0 f i lightmappedreflective.obj
 0002:0011b1f0       ??1?$CUtlMemory@PAVCShaderParam@LightmappedReflective_DX90@@H@@QAE@XZ 102341f0 f i lightmappedreflective.obj
 0002:0011b240       ??1?$CUtlVector@PAVCShaderParam@LightmappedReflective@@V?$CUtlMemory@PAVCShaderParam@LightmappedReflective@@H@@@@QAE@XZ 10234240 f i lightmappedreflective.obj
 0002:0011b2a0       ??1?$CUtlVector@PAVCShaderParam@LightmappedReflective_DX90@@V?$CUtlMemory@PAVCShaderParam@LightmappedReflective_DX90@@H@@@@QAE@XZ 102342a0 f i lightmappedreflective.obj
 0002:0011b300       ??A?$CUtlMemory@PAVCShaderParam@LightmappedReflective@@H@@QAEAAPAVCShaderParam@LightmappedReflective@@H@Z 10234300 f i lightmappedreflective.obj
 0002:0011b500       ??A?$CUtlMemory@PAVCShaderParam@LightmappedReflective_DX90@@H@@QAEAAPAVCShaderParam@LightmappedReflective_DX90@@H@Z 10234500 f i lightmappedreflective.obj
 0002:0011b700       ??A?$CUtlVector@PAVCShaderParam@LightmappedReflective@@V?$CUtlMemory@PAVCShaderParam@LightmappedReflective@@H@@@@QAEAAPAVCShaderParam@LightmappedReflective@@H@Z 10234700 f i lightmappedreflective.obj
 0002:0011b830       ??A?$CUtlVector@PAVCShaderParam@LightmappedReflective_DX90@@V?$CUtlMemory@PAVCShaderParam@LightmappedReflective_DX90@@H@@@@QAEAAPAVCShaderParam@LightmappedReflective_DX90@@H@Z 10234830 f i lightmappedreflective.obj
 0002:0011b960       ??BCShaderParam@LightmappedReflective_DX90@@QAEHXZ 10234960 f i lightmappedreflective.obj
 0002:0011b9a0       ?AddToTail@?$CUtlVector@PAVCShaderParam@LightmappedReflective_DX90@@V?$CUtlMemory@PAVCShaderParam@LightmappedReflective_DX90@@H@@@@QAEHABQAVCShaderParam@LightmappedReflective_DX90@@@Z 102349a0 f i lightmappedreflective.obj
 0002:0011bb10       ?Base@?$CUtlMemory@PAVCShaderParam@LightmappedReflective@@H@@QAEPAPAVCShaderParam@LightmappedReflective@@XZ 10234b10 f i lightmappedreflective.obj
 0002:0011bc30       ?Base@?$CUtlMemory@PAVCShaderParam@LightmappedReflective_DX90@@H@@QAEPAPAVCShaderParam@LightmappedReflective_DX90@@XZ 10234c30 f i lightmappedreflective.obj
 0002:0011bd50       ?Base@?$CUtlVector@PAVCShaderParam@LightmappedReflective@@V?$CUtlMemory@PAVCShaderParam@LightmappedReflective@@H@@@@QAEPAPAVCShaderParam@LightmappedReflective@@XZ 10234d50 f i lightmappedreflective.obj
 0002:0011bda0       ?Base@?$CUtlVector@PAVCShaderParam@LightmappedReflective_DX90@@V?$CUtlMemory@PAVCShaderParam@LightmappedReflective_DX90@@H@@@@QAEPAPAVCShaderParam@LightmappedReflective_DX90@@XZ 10234da0 f i lightmappedreflective.obj
 0002:0011bdf0       ?Count@?$CUtlVector@PAVCShaderParam@LightmappedReflective@@V?$CUtlMemory@PAVCShaderParam@LightmappedReflective@@H@@@@QBEHXZ 10234df0 f i lightmappedreflective.obj
 0002:0011be30       ?Count@?$CUtlVector@PAVCShaderParam@LightmappedReflective_DX90@@V?$CUtlMemory@PAVCShaderParam@LightmappedReflective_DX90@@H@@@@QBEHXZ 10234e30 f i lightmappedreflective.obj
 0002:0011be70       ?DrawReflectionRefraction@CShader@LightmappedReflective_DX90@@QAEXPAPAVIMaterialVar@@PAVIShaderShadow@@PAVIShaderDynamicAPI@@_N3@Z 10234e70 f i lightmappedreflective.obj
 0002:0011cec0       ?Element@?$CUtlVector@PAVCShaderParam@LightmappedReflective@@V?$CUtlMemory@PAVCShaderParam@LightmappedReflective@@H@@@@QAEAAPAVCShaderParam@LightmappedReflective@@H@Z 10235ec0 f i lightmappedreflective.obj
 0002:0011cff0       ?Element@?$CUtlVector@PAVCShaderParam@LightmappedReflective_DX90@@V?$CUtlMemory@PAVCShaderParam@LightmappedReflective_DX90@@H@@@@QAEAAPAVCShaderParam@LightmappedReflective_DX90@@H@Z 10235ff0 f i lightmappedreflective.obj
 0002:0011d120       ?GetFallbackShader@CShader@LightmappedReflective@@UBEPBDPAPAVIMaterialVar@@@Z 10236120 f i lightmappedreflective.obj
 0002:0011d160       ?GetFallbackShader@CShader@LightmappedReflective_DX90@@UBEPBDPAPAVIMaterialVar@@@Z 10236160 f i lightmappedreflective.obj
 0002:0011d1a0       ?GetFlags@CShader@LightmappedReflective@@UBEHXZ 102361a0 f i lightmappedreflective.obj
 0002:0011d1e0       ?GetFlags@CShader@LightmappedReflective_DX90@@UBEHXZ 102361e0 f i lightmappedreflective.obj
 0002:0011d220       ?GetIndex@lightmappedreflective_ps20b_Dynamic_Index@@QAEHXZ 10236220 f i lightmappedreflective.obj
 0002:0011d390       ?GetIndex@lightmappedreflective_ps20b_Static_Index@@QAEHXZ 10236390 f i lightmappedreflective.obj
 0002:0011d530       ?GetIndex@lightmappedreflective_vs20_Dynamic_Index@@QAEHXZ 10236530 f i lightmappedreflective.obj
 0002:0011d570       ?GetIndex@lightmappedreflective_vs20_Static_Index@@QAEHXZ 10236570 f i lightmappedreflective.obj
 0002:0011d690       ?GetInfo@CShaderParam@LightmappedReflective@@QBEABUShaderParamInfo_t@@XZ 10236690 f i lightmappedreflective.obj
 0002:0011d6d0       ?GetInfo@CShaderParam@LightmappedReflective_DX90@@QBEABUShaderParamInfo_t@@XZ 102366d0 f i lightmappedreflective.obj
 0002:0011d710       ?GetName@CShader@LightmappedReflective@@UBEPBDXZ 10236710 f i lightmappedreflective.obj
 0002:0011d750       ?GetName@CShader@LightmappedReflective_DX90@@UBEPBDXZ 10236750 f i lightmappedreflective.obj
 0002:0011d790       ?GetParamCount@CShader@LightmappedReflective@@UBEHXZ 10236790 f i lightmappedreflective.obj
 0002:0011d7f0       ?GetParamCount@CShader@LightmappedReflective_DX90@@UBEHXZ 102367f0 f i lightmappedreflective.obj
 0002:0011d850       ?GetParamInfo@CShader@LightmappedReflective@@UBEABUShaderParamInfo_t@@H@Z 10236850 f i lightmappedreflective.obj
 0002:0011d8f0       ?GetParamInfo@CShader@LightmappedReflective_DX90@@UBEABUShaderParamInfo_t@@H@Z 102368f0 f i lightmappedreflective.obj
 0002:0011d990       ?Grow@?$CUtlMemory@PAVCShaderParam@LightmappedReflective_DX90@@H@@QAEXH@Z 10236990 f i lightmappedreflective.obj
 0002:0011e000       ?GrowVector@?$CUtlVector@PAVCShaderParam@LightmappedReflective_DX90@@V?$CUtlMemory@PAVCShaderParam@LightmappedReflective_DX90@@H@@@@IAEXH@Z 10237000 f i lightmappedreflective.obj
 0002:0011e120       ?InsertBefore@?$CUtlVector@PAVCShaderParam@LightmappedReflective_DX90@@V?$CUtlMemory@PAVCShaderParam@LightmappedReflective_DX90@@H@@@@QAEHHABQAVCShaderParam@LightmappedReflective_DX90@@@Z 10237120 f i lightmappedreflective.obj
 0002:0011e3a0       ?IsExternallyAllocated@?$CUtlMemory@PAVCShaderParam@LightmappedReflective@@H@@QBE_NXZ 102373a0 f i lightmappedreflective.obj
 0002:0011e410       ?IsExternallyAllocated@?$CUtlMemory@PAVCShaderParam@LightmappedReflective_DX90@@H@@QBE_NXZ 10237410 f i lightmappedreflective.obj
 0002:0011e480       ?IsIdxValid@?$CUtlMemory@PAVCShaderParam@LightmappedReflective@@H@@QBE_NH@Z 10237480 f i lightmappedreflective.obj
 0002:0011e500       ?IsIdxValid@?$CUtlMemory@PAVCShaderParam@LightmappedReflective_DX90@@H@@QBE_NH@Z 10237500 f i lightmappedreflective.obj
 0002:0011e580       ?IsReadOnly@?$CUtlMemory@PAVCShaderParam@LightmappedReflective@@H@@QBE_NXZ 10237580 f i lightmappedreflective.obj
 0002:0011e5f0       ?IsReadOnly@?$CUtlMemory@PAVCShaderParam@LightmappedReflective_DX90@@H@@QBE_NXZ 102375f0 f i lightmappedreflective.obj
 0002:0011e660       ?IsValidIndex@?$CUtlVector@PAVCShaderParam@LightmappedReflective_DX90@@V?$CUtlMemory@PAVCShaderParam@LightmappedReflective_DX90@@H@@@@QBE_NH@Z 10237660 f i lightmappedreflective.obj
 0002:0011e6d0       ?NumAllocated@?$CUtlMemory@PAVCShaderParam@LightmappedReflective_DX90@@H@@QBEHXZ 102376d0 f i lightmappedreflective.obj
 0002:0011e710       ?OnDrawElements@CShader@LightmappedReflective@@UAEXPAPAVIMaterialVar@@PAVIShaderShadow@@PAVIShaderDynamicAPI@@W4VertexCompressionType_t@@PAPAVCBasePerMaterialContextData@@@Z 10237710 f i lightmappedreflective.obj
 0002:0011e750       ?OnDrawElements@CShader@LightmappedReflective_DX90@@UAEXPAPAVIMaterialVar@@PAVIShaderShadow@@PAVIShaderDynamicAPI@@W4VertexCompressionType_t@@PAPAVCBasePerMaterialContextData@@@Z 10237750 f i lightmappedreflective.obj
 0002:0011e800       ?OnInitShaderInstance@CShader@LightmappedReflective@@UAEXPAPAVIMaterialVar@@PAVIShaderInit@@PBD@Z 10237800 f i lightmappedreflective.obj
 0002:0011e840       ?OnInitShaderInstance@CShader@LightmappedReflective_DX90@@UAEXPAPAVIMaterialVar@@PAVIShaderInit@@PBD@Z 10237840 f i lightmappedreflective.obj
 0002:0011ea90       ?OnInitShaderParams@CShader@LightmappedReflective_DX90@@UAEXPAPAVIMaterialVar@@PBD@Z 10237a90 f i lightmappedreflective.obj
 0002:0011ec40       ?Purge@?$CUtlMemory@PAVCShaderParam@LightmappedReflective@@H@@QAEXXZ 10237c40 f i lightmappedreflective.obj
 0002:0011ecf0       ?Purge@?$CUtlMemory@PAVCShaderParam@LightmappedReflective_DX90@@H@@QAEXXZ 10237cf0 f i lightmappedreflective.obj
 0002:0011eda0       ?Purge@?$CUtlVector@PAVCShaderParam@LightmappedReflective@@V?$CUtlMemory@PAVCShaderParam@LightmappedReflective@@H@@@@QAEXXZ 10237da0 f i lightmappedreflective.obj
 0002:0011ee10       ?Purge@?$CUtlVector@PAVCShaderParam@LightmappedReflective_DX90@@V?$CUtlMemory@PAVCShaderParam@LightmappedReflective_DX90@@H@@@@QAEXXZ 10237e10 f i lightmappedreflective.obj
 0002:0011ee80       ?RemoveAll@?$CUtlVector@PAVCShaderParam@LightmappedReflective@@V?$CUtlMemory@PAVCShaderParam@LightmappedReflective@@H@@@@QAEXXZ 10237e80 f i lightmappedreflective.obj
 0002:0011ef10       ?RemoveAll@?$CUtlVector@PAVCShaderParam@LightmappedReflective_DX90@@V?$CUtlMemory@PAVCShaderParam@LightmappedReflective_DX90@@H@@@@QAEXXZ 10237f10 f i lightmappedreflective.obj
 0002:0011efa0       ?ResetDbgInfo@?$CUtlVector@PAVCShaderParam@LightmappedReflective@@V?$CUtlMemory@PAVCShaderParam@LightmappedReflective@@H@@@@IAEXXZ 10237fa0 f i lightmappedreflective.obj
 0002:0011f000       ?ResetDbgInfo@?$CUtlVector@PAVCShaderParam@LightmappedReflective_DX90@@V?$CUtlMemory@PAVCShaderParam@LightmappedReflective_DX90@@H@@@@IAEXXZ 10238000 f i lightmappedreflective.obj
 0002:0011f060       ?SetBASETEXTURE@lightmappedreflective_ps20b_Static_Index@@QAEX_N@Z 10238060 f i lightmappedreflective.obj
 0002:0011f0e0       ?SetBASETEXTURE@lightmappedreflective_vs20_Static_Index@@QAEX_N@Z 102380e0 f i lightmappedreflective.obj
 0002:0011f160       ?SetENVMAPMASK@lightmappedreflective_ps20b_Static_Index@@QAEX_N@Z 10238160 f i lightmappedreflective.obj
 0002:0011f1e0       ?SetREFLECT@lightmappedreflective_ps20b_Static_Index@@QAEX_N@Z 102381e0 f i lightmappedreflective.obj
 0002:0011f260       ?SetREFRACT@lightmappedreflective_ps20b_Static_Index@@QAEX_N@Z 10238260 f i lightmappedreflective.obj
 0002:0011f2e0       ?SetWRITE_DEPTH_TO_DESTALPHA@lightmappedreflective_ps20b_Dynamic_Index@@QAEX_N@Z 102382e0 f i lightmappedreflective.obj
 0002:0011f360       ?ShiftElementsRight@?$CUtlVector@PAVCShaderParam@LightmappedReflective_DX90@@V?$CUtlMemory@PAVCShaderParam@LightmappedReflective_DX90@@H@@@@IAEXHH@Z 10238360 f i lightmappedreflective.obj
 0002:0011f500       ?ValidateGrowSize@?$CUtlMemory@PAVCShaderParam@LightmappedReflective@@H@@IAEXXZ 10238500 f i lightmappedreflective.obj
 0002:0011f540       ?ValidateGrowSize@?$CUtlMemory@PAVCShaderParam@LightmappedReflective_DX90@@H@@IAEXXZ 10238540 f i lightmappedreflective.obj
 0002:0011f580       ??$CopyConstruct@PAVCShaderParam@LightShafts_dx9@@@@YAPAPAVCShaderParam@LightShafts_dx9@@PAPAV01@ABQAV01@@Z 10238580 f i lightshafts.obj
 0002:0011f620       ??$Destruct@PAVCShaderParam@LightShafts@@@@YAXPAPAVCShaderParam@LightShafts@@@Z 10238620 f i lightshafts.obj
 0002:0011f680       ??$Destruct@PAVCShaderParam@LightShafts_dx9@@@@YAXPAPAVCShaderParam@LightShafts_dx9@@@Z 10238680 f i lightshafts.obj
 0002:0011f6e0       ??$MemAllocClassName@V?$CUtlMemory@PAVCShaderParam@LightShafts@@H@@@@YAPBDPAV?$CUtlMemory@PAVCShaderParam@LightShafts@@H@@@Z 102386e0 f i lightshafts.obj
 0002:0011f760       ??$MemAllocClassName@V?$CUtlMemory@PAVCShaderParam@LightShafts_dx9@@H@@@@YAPBDPAV?$CUtlMemory@PAVCShaderParam@LightShafts_dx9@@H@@@Z 10238760 f i lightshafts.obj
 0002:0011f7e0       ??$MemAllocClassName@V?$CUtlVector@PAVCShaderParam@LightShafts_dx9@@V?$CUtlMemory@PAVCShaderParam@LightShafts_dx9@@H@@@@@@YAPBDPAV?$CUtlVector@PAVCShaderParam@LightShafts_dx9@@V?$CUtlMemory@PAVCShaderParam@LightShafts_dx9@@H@@@@@Z 102387e0 f i lightshafts.obj
 0002:0011f860       ??0?$CUtlMemory@PAVCShaderParam@LightShafts@@H@@QAE@HH@Z 10238860 f i lightshafts.obj
 0002:0011fa50       ??0?$CUtlMemory@PAVCShaderParam@LightShafts_dx9@@H@@QAE@HH@Z 10238a50 f i lightshafts.obj
 0002:0011fc40       ??0?$CUtlVector@PAVCShaderParam@LightShafts@@V?$CUtlMemory@PAVCShaderParam@LightShafts@@H@@@@QAE@HH@Z 10238c40 f i lightshafts.obj
 0002:0011fcc0       ??0?$CUtlVector@PAVCShaderParam@LightShafts_dx9@@V?$CUtlMemory@PAVCShaderParam@LightShafts_dx9@@H@@@@QAE@HH@Z 10238cc0 f i lightshafts.obj
 0002:0011fd40       ??0CShader@LightShafts@@QAE@XZ 10238d40 f i lightshafts.obj
 0002:0011fda0       ??0CShader@LightShafts_dx9@@QAE@XZ 10238da0 f i lightshafts.obj
 0002:0011fe00       ??0CShaderParam@LightShafts_dx9@@QAE@PBDW4ShaderParamType_t@@00H@Z 10238e00 f i lightshafts.obj
 0002:0011fec0       ??0LightShaftsVars_t@@QAE@XZ 10238ec0 f i lightshafts.obj
 0002:0011ff20       ??1?$CUtlMemory@PAVCShaderParam@LightShafts@@H@@QAE@XZ 10238f20 f i lightshafts.obj
 0002:0011ff70       ??1?$CUtlMemory@PAVCShaderParam@LightShafts_dx9@@H@@QAE@XZ 10238f70 f i lightshafts.obj
 0002:0011ffc0       ??1?$CUtlVector@PAVCShaderParam@LightShafts@@V?$CUtlMemory@PAVCShaderParam@LightShafts@@H@@@@QAE@XZ 10238fc0 f i lightshafts.obj
 0002:00120020       ??1?$CUtlVector@PAVCShaderParam@LightShafts_dx9@@V?$CUtlMemory@PAVCShaderParam@LightShafts_dx9@@H@@@@QAE@XZ 10239020 f i lightshafts.obj
 0002:00120080       ??A?$CUtlMemory@PAVCShaderParam@LightShafts@@H@@QAEAAPAVCShaderParam@LightShafts@@H@Z 10239080 f i lightshafts.obj
 0002:00120280       ??A?$CUtlMemory@PAVCShaderParam@LightShafts_dx9@@H@@QAEAAPAVCShaderParam@LightShafts_dx9@@H@Z 10239280 f i lightshafts.obj
 0002:00120480       ??A?$CUtlVector@PAVCShaderParam@LightShafts@@V?$CUtlMemory@PAVCShaderParam@LightShafts@@H@@@@QAEAAPAVCShaderParam@LightShafts@@H@Z 10239480 f i lightshafts.obj
 0002:001205b0       ??A?$CUtlVector@PAVCShaderParam@LightShafts_dx9@@V?$CUtlMemory@PAVCShaderParam@LightShafts_dx9@@H@@@@QAEAAPAVCShaderParam@LightShafts_dx9@@H@Z 102395b0 f i lightshafts.obj
 0002:001206e0       ??BCShaderParam@LightShafts_dx9@@QAEHXZ 102396e0 f i lightshafts.obj
 0002:00120720       ?AddToTail@?$CUtlVector@PAVCShaderParam@LightShafts_dx9@@V?$CUtlMemory@PAVCShaderParam@LightShafts_dx9@@H@@@@QAEHABQAVCShaderParam@LightShafts_dx9@@@Z 10239720 f i lightshafts.obj
 0002:00120890       ?Base@?$CUtlMemory@PAVCShaderParam@LightShafts@@H@@QAEPAPAVCShaderParam@LightShafts@@XZ 10239890 f i lightshafts.obj
 0002:001209b0       ?Base@?$CUtlMemory@PAVCShaderParam@LightShafts_dx9@@H@@QAEPAPAVCShaderParam@LightShafts_dx9@@XZ 102399b0 f i lightshafts.obj
 0002:00120ad0       ?Base@?$CUtlVector@PAVCShaderParam@LightShafts@@V?$CUtlMemory@PAVCShaderParam@LightShafts@@H@@@@QAEPAPAVCShaderParam@LightShafts@@XZ 10239ad0 f i lightshafts.obj
 0002:00120b20       ?Base@?$CUtlVector@PAVCShaderParam@LightShafts_dx9@@V?$CUtlMemory@PAVCShaderParam@LightShafts_dx9@@H@@@@QAEPAPAVCShaderParam@LightShafts_dx9@@XZ 10239b20 f i lightshafts.obj
 0002:00120b70       ?Count@?$CUtlVector@PAVCShaderParam@LightShafts@@V?$CUtlMemory@PAVCShaderParam@LightShafts@@H@@@@QBEHXZ 10239b70 f i lightshafts.obj
 0002:00120bb0       ?Count@?$CUtlVector@PAVCShaderParam@LightShafts_dx9@@V?$CUtlMemory@PAVCShaderParam@LightShafts_dx9@@H@@@@QBEHXZ 10239bb0 f i lightshafts.obj
 0002:00120bf0       ?Element@?$CUtlVector@PAVCShaderParam@LightShafts@@V?$CUtlMemory@PAVCShaderParam@LightShafts@@H@@@@QAEAAPAVCShaderParam@LightShafts@@H@Z 10239bf0 f i lightshafts.obj
 0002:00120d20       ?Element@?$CUtlVector@PAVCShaderParam@LightShafts_dx9@@V?$CUtlMemory@PAVCShaderParam@LightShafts_dx9@@H@@@@QAEAAPAVCShaderParam@LightShafts_dx9@@H@Z 10239d20 f i lightshafts.obj
 0002:00120e50       ?GetFallbackShader@CShader@LightShafts@@UBEPBDPAPAVIMaterialVar@@@Z 10239e50 f i lightshafts.obj
 0002:00120e90       ?GetFallbackShader@CShader@LightShafts_dx9@@UBEPBDPAPAVIMaterialVar@@@Z 10239e90 f i lightshafts.obj
 0002:00120f10       ?GetFlags@CShader@LightShafts@@UBEHXZ 10239f10 f i lightshafts.obj
 0002:00120f50       ?GetFlags@CShader@LightShafts_dx9@@UBEHXZ 10239f50 f i lightshafts.obj
 0002:00120f90       ?GetInfo@CShaderParam@LightShafts@@QBEABUShaderParamInfo_t@@XZ 10239f90 f i lightshafts.obj
 0002:00120fd0       ?GetInfo@CShaderParam@LightShafts_dx9@@QBEABUShaderParamInfo_t@@XZ 10239fd0 f i lightshafts.obj
 0002:00121010       ?GetName@CShader@LightShafts@@UBEPBDXZ 1023a010 f i lightshafts.obj
 0002:00121050       ?GetName@CShader@LightShafts_dx9@@UBEPBDXZ 1023a050 f i lightshafts.obj
 0002:00121090       ?GetParamCount@CShader@LightShafts@@UBEHXZ 1023a090 f i lightshafts.obj
 0002:001210f0       ?GetParamCount@CShader@LightShafts_dx9@@UBEHXZ 1023a0f0 f i lightshafts.obj
 0002:00121150       ?GetParamInfo@CShader@LightShafts@@UBEABUShaderParamInfo_t@@H@Z 1023a150 f i lightshafts.obj
 0002:001211f0       ?GetParamInfo@CShader@LightShafts_dx9@@UBEABUShaderParamInfo_t@@H@Z 1023a1f0 f i lightshafts.obj
 0002:00121290       ?Grow@?$CUtlMemory@PAVCShaderParam@LightShafts_dx9@@H@@QAEXH@Z 1023a290 f i lightshafts.obj
 0002:00121900       ?GrowVector@?$CUtlVector@PAVCShaderParam@LightShafts_dx9@@V?$CUtlMemory@PAVCShaderParam@LightShafts_dx9@@H@@@@IAEXH@Z 1023a900 f i lightshafts.obj
 0002:00121a20       ?InsertBefore@?$CUtlVector@PAVCShaderParam@LightShafts_dx9@@V?$CUtlMemory@PAVCShaderParam@LightShafts_dx9@@H@@@@QAEHHABQAVCShaderParam@LightShafts_dx9@@@Z 1023aa20 f i lightshafts.obj
 0002:00121ca0       ?IsExternallyAllocated@?$CUtlMemory@PAVCShaderParam@LightShafts@@H@@QBE_NXZ 1023aca0 f i lightshafts.obj
 0002:00121d10       ?IsExternallyAllocated@?$CUtlMemory@PAVCShaderParam@LightShafts_dx9@@H@@QBE_NXZ 1023ad10 f i lightshafts.obj
 0002:00121d80       ?IsIdxValid@?$CUtlMemory@PAVCShaderParam@LightShafts@@H@@QBE_NH@Z 1023ad80 f i lightshafts.obj
 0002:00121e00       ?IsIdxValid@?$CUtlMemory@PAVCShaderParam@LightShafts_dx9@@H@@QBE_NH@Z 1023ae00 f i lightshafts.obj
 0002:00121e80       ?IsReadOnly@?$CUtlMemory@PAVCShaderParam@LightShafts@@H@@QBE_NXZ 1023ae80 f i lightshafts.obj
 0002:00121ef0       ?IsReadOnly@?$CUtlMemory@PAVCShaderParam@LightShafts_dx9@@H@@QBE_NXZ 1023aef0 f i lightshafts.obj
 0002:00121f60       ?IsValidIndex@?$CUtlVector@PAVCShaderParam@LightShafts_dx9@@V?$CUtlMemory@PAVCShaderParam@LightShafts_dx9@@H@@@@QBE_NH@Z 1023af60 f i lightshafts.obj
 0002:00121fd0       ?NumAllocated@?$CUtlMemory@PAVCShaderParam@LightShafts_dx9@@H@@QBEHXZ 1023afd0 f i lightshafts.obj
 0002:00122010       ?OnDrawElements@CShader@LightShafts@@UAEXPAPAVIMaterialVar@@PAVIShaderShadow@@PAVIShaderDynamicAPI@@W4VertexCompressionType_t@@PAPAVCBasePerMaterialContextData@@@Z 1023b010 f i lightshafts.obj
 0002:00122050       ?OnDrawElements@CShader@LightShafts_dx9@@UAEXPAPAVIMaterialVar@@PAVIShaderShadow@@PAVIShaderDynamicAPI@@W4VertexCompressionType_t@@PAPAVCBasePerMaterialContextData@@@Z 1023b050 f i lightshafts.obj
 0002:00122110       ?OnInitShaderInstance@CShader@LightShafts@@UAEXPAPAVIMaterialVar@@PAVIShaderInit@@PBD@Z 1023b110 f i lightshafts.obj
 0002:00122150       ?OnInitShaderInstance@CShader@LightShafts_dx9@@UAEXPAPAVIMaterialVar@@PAVIShaderInit@@PBD@Z 1023b150 f i lightshafts.obj
 0002:00122200       ?OnInitShaderParams@CShader@LightShafts_dx9@@UAEXPAPAVIMaterialVar@@PBD@Z 1023b200 f i lightshafts.obj
 0002:001222c0       ?Purge@?$CUtlMemory@PAVCShaderParam@LightShafts@@H@@QAEXXZ 1023b2c0 f i lightshafts.obj
 0002:00122370       ?Purge@?$CUtlMemory@PAVCShaderParam@LightShafts_dx9@@H@@QAEXXZ 1023b370 f i lightshafts.obj
 0002:00122420       ?Purge@?$CUtlVector@PAVCShaderParam@LightShafts@@V?$CUtlMemory@PAVCShaderParam@LightShafts@@H@@@@QAEXXZ 1023b420 f i lightshafts.obj
 0002:00122490       ?Purge@?$CUtlVector@PAVCShaderParam@LightShafts_dx9@@V?$CUtlMemory@PAVCShaderParam@LightShafts_dx9@@H@@@@QAEXXZ 1023b490 f i lightshafts.obj
 0002:00122500       ?RemoveAll@?$CUtlVector@PAVCShaderParam@LightShafts@@V?$CUtlMemory@PAVCShaderParam@LightShafts@@H@@@@QAEXXZ 1023b500 f i lightshafts.obj
 0002:00122590       ?RemoveAll@?$CUtlVector@PAVCShaderParam@LightShafts_dx9@@V?$CUtlMemory@PAVCShaderParam@LightShafts_dx9@@H@@@@QAEXXZ 1023b590 f i lightshafts.obj
 0002:00122620       ?ResetDbgInfo@?$CUtlVector@PAVCShaderParam@LightShafts@@V?$CUtlMemory@PAVCShaderParam@LightShafts@@H@@@@IAEXXZ 1023b620 f i lightshafts.obj
 0002:00122680       ?ResetDbgInfo@?$CUtlVector@PAVCShaderParam@LightShafts_dx9@@V?$CUtlMemory@PAVCShaderParam@LightShafts_dx9@@H@@@@IAEXXZ 1023b680 f i lightshafts.obj
 0002:001226e0       ?SetupVarsLightShafts@CShader@LightShafts_dx9@@QAEXAAULightShaftsVars_t@@@Z 1023b6e0 f i lightshafts.obj
 0002:001228d0       ?ShiftElementsRight@?$CUtlVector@PAVCShaderParam@LightShafts_dx9@@V?$CUtlMemory@PAVCShaderParam@LightShafts_dx9@@H@@@@IAEXHH@Z 1023b8d0 f i lightshafts.obj
 0002:00122a70       ?ValidateGrowSize@?$CUtlMemory@PAVCShaderParam@LightShafts@@H@@IAEXXZ 1023ba70 f i lightshafts.obj
 0002:00122ab0       ?ValidateGrowSize@?$CUtlMemory@PAVCShaderParam@LightShafts_dx9@@H@@IAEXXZ 1023bab0 f i lightshafts.obj
 0002:00122af0       ??0lightshafts_ps30_Dynamic_Index@@QAE@PAVIShaderDynamicAPI@@@Z 1023baf0 f i lightshafts_helper.obj
 0002:00122b60       ??0lightshafts_ps30_Static_Index@@QAE@PAVIShaderShadow@@PAPAVIMaterialVar@@@Z 1023bb60 f i lightshafts_helper.obj
 0002:00122bb0       ??0lightshafts_vs30_Dynamic_Index@@QAE@PAVIShaderDynamicAPI@@@Z 1023bbb0 f i lightshafts_helper.obj
 0002:00122bf0       ??0lightshafts_vs30_Static_Index@@QAE@PAVIShaderShadow@@PAPAVIMaterialVar@@@Z 1023bbf0 f i lightshafts_helper.obj
 0002:00122c30       ?Base@Quaternion@@QAEPAMXZ 1023bc30 f i lightshafts_helper.obj
 0002:00122c70       ?DrawLightShafts@@YAXPAVCBaseVSShader@@PAPAVIMaterialVar@@PAVIShaderDynamicAPI@@PAVIShaderShadow@@AAULightShaftsVars_t@@W4VertexCompressionType_t@@@Z 1023bc70 f   lightshafts_helper.obj
 0002:00124990       ?GetIndex@lightshafts_ps30_Dynamic_Index@@QAEHXZ 1023d990 f i lightshafts_helper.obj
 0002:00124af0       ?GetIndex@lightshafts_ps30_Static_Index@@QAEHXZ 1023daf0 f i lightshafts_helper.obj
 0002:00124c10       ?GetIndex@lightshafts_vs30_Dynamic_Index@@QAEHXZ 1023dc10 f i lightshafts_helper.obj
 0002:00124c50       ?GetIndex@lightshafts_vs30_Static_Index@@QAEHXZ 1023dc50 f i lightshafts_helper.obj
 0002:00124c90       ?InitLightShafts@@YAXPAVCBaseVSShader@@PAPAVIMaterialVar@@AAULightShaftsVars_t@@@Z 1023dc90 f   lightshafts_helper.obj
 0002:00124de0       ?InitParamsLightShafts@@YAXPAVCBaseVSShader@@PAPAVIMaterialVar@@PBDAAULightShaftsVars_t@@@Z 1023dde0 f   lightshafts_helper.obj
 0002:00124f50       ?SetFLASHLIGHTDEPTHFILTERMODE@lightshafts_ps30_Static_Index@@QAEXH@Z 1023df50 f i lightshafts_helper.obj
 0002:00125070       ?SetFLASHLIGHTSHADOWS@lightshafts_ps30_Dynamic_Index@@QAEX_N@Z 1023e070 f i lightshafts_helper.obj
 0002:001250f0       ?SetUBERLIGHT@lightshafts_ps30_Dynamic_Index@@QAEX_N@Z 1023e0f0 f i lightshafts_helper.obj
 0002:00125170       ??$CopyConstruct@PAVCShaderParam@Modulate_DX9@@@@YAPAPAVCShaderParam@Modulate_DX9@@PAPAV01@ABQAV01@@Z 1023e170 f i modulate_dx9.obj
 0002:00125210       ??$Destruct@PAVCShaderParam@Modulate@@@@YAXPAPAVCShaderParam@Modulate@@@Z 1023e210 f i modulate_dx9.obj
 0002:00125270       ??$Destruct@PAVCShaderParam@Modulate_DX9@@@@YAXPAPAVCShaderParam@Modulate_DX9@@@Z 1023e270 f i modulate_dx9.obj
 0002:001252d0       ??$MemAllocClassName@V?$CUtlMemory@PAVCShaderParam@Modulate@@H@@@@YAPBDPAV?$CUtlMemory@PAVCShaderParam@Modulate@@H@@@Z 1023e2d0 f i modulate_dx9.obj
 0002:00125350       ??$MemAllocClassName@V?$CUtlMemory@PAVCShaderParam@Modulate_DX9@@H@@@@YAPBDPAV?$CUtlMemory@PAVCShaderParam@Modulate_DX9@@H@@@Z 1023e350 f i modulate_dx9.obj
 0002:001253d0       ??$MemAllocClassName@V?$CUtlVector@PAVCShaderParam@Modulate_DX9@@V?$CUtlMemory@PAVCShaderParam@Modulate_DX9@@H@@@@@@YAPBDPAV?$CUtlVector@PAVCShaderParam@Modulate_DX9@@V?$CUtlMemory@PAVCShaderParam@Modulate_DX9@@H@@@@@Z 1023e3d0 f i modulate_dx9.obj
 0002:00125450       ??0?$CUtlMemory@PAVCShaderParam@Modulate@@H@@QAE@HH@Z 1023e450 f i modulate_dx9.obj
 0002:00125640       ??0?$CUtlMemory@PAVCShaderParam@Modulate_DX9@@H@@QAE@HH@Z 1023e640 f i modulate_dx9.obj
 0002:00125830       ??0?$CUtlVector@PAVCShaderParam@Modulate@@V?$CUtlMemory@PAVCShaderParam@Modulate@@H@@@@QAE@HH@Z 1023e830 f i modulate_dx9.obj
 0002:001258b0       ??0?$CUtlVector@PAVCShaderParam@Modulate_DX9@@V?$CUtlMemory@PAVCShaderParam@Modulate_DX9@@H@@@@QAE@HH@Z 1023e8b0 f i modulate_dx9.obj
 0002:00125930       ??0CShader@Modulate@@QAE@XZ 1023e930 f i modulate_dx9.obj
 0002:00125990       ??0CShader@Modulate_DX9@@QAE@XZ 1023e990 f i modulate_dx9.obj
 0002:001259f0       ??0CShaderParam@Modulate_DX9@@QAE@PBDW4ShaderParamType_t@@00H@Z 1023e9f0 f i modulate_dx9.obj
 0002:00125ab0       ??0modulate_ps20b_Dynamic_Index@@QAE@PAVIShaderDynamicAPI@@@Z 1023eab0 f i modulate_dx9.obj
 0002:00125b70       ??0modulate_ps20b_Static_Index@@QAE@PAVIShaderShadow@@PAPAVIMaterialVar@@@Z 1023eb70 f i modulate_dx9.obj
 0002:00125bb0       ??0modulate_ps30_Dynamic_Index@@QAE@PAVIShaderDynamicAPI@@@Z 1023ebb0 f i modulate_dx9.obj
 0002:00125c70       ??0modulate_ps30_Static_Index@@QAE@PAVIShaderShadow@@PAPAVIMaterialVar@@@Z 1023ec70 f i modulate_dx9.obj
 0002:00125cb0       ??0unlitgeneric_vs20_Dynamic_Index@@QAE@PAVIShaderDynamicAPI@@@Z 1023ecb0 f i modulate_dx9.obj
 0002:00125d90       ??0unlitgeneric_vs20_Static_Index@@QAE@PAVIShaderShadow@@PAPAVIMaterialVar@@@Z 1023ed90 f i modulate_dx9.obj
 0002:00125e60       ??0unlitgeneric_vs30_Dynamic_Index@@QAE@PAVIShaderDynamicAPI@@@Z 1023ee60 f i modulate_dx9.obj
 0002:00125f40       ??0unlitgeneric_vs30_Static_Index@@QAE@PAVIShaderShadow@@PAPAVIMaterialVar@@@Z 1023ef40 f i modulate_dx9.obj
 0002:00125fe0       ??1?$CUtlMemory@PAVCShaderParam@Modulate@@H@@QAE@XZ 1023efe0 f i modulate_dx9.obj
 0002:00126030       ??1?$CUtlMemory@PAVCShaderParam@Modulate_DX9@@H@@QAE@XZ 1023f030 f i modulate_dx9.obj
 0002:00126080       ??1?$CUtlVector@PAVCShaderParam@Modulate@@V?$CUtlMemory@PAVCShaderParam@Modulate@@H@@@@QAE@XZ 1023f080 f i modulate_dx9.obj
 0002:001260e0       ??1?$CUtlVector@PAVCShaderParam@Modulate_DX9@@V?$CUtlMemory@PAVCShaderParam@Modulate_DX9@@H@@@@QAE@XZ 1023f0e0 f i modulate_dx9.obj
 0002:00126140       ??A?$CUtlMemory@PAVCShaderParam@Modulate@@H@@QAEAAPAVCShaderParam@Modulate@@H@Z 1023f140 f i modulate_dx9.obj
 0002:00126340       ??A?$CUtlMemory@PAVCShaderParam@Modulate_DX9@@H@@QAEAAPAVCShaderParam@Modulate_DX9@@H@Z 1023f340 f i modulate_dx9.obj
 0002:00126540       ??A?$CUtlVector@PAVCShaderParam@Modulate@@V?$CUtlMemory@PAVCShaderParam@Modulate@@H@@@@QAEAAPAVCShaderParam@Modulate@@H@Z 1023f540 f i modulate_dx9.obj
 0002:00126670       ??A?$CUtlVector@PAVCShaderParam@Modulate_DX9@@V?$CUtlMemory@PAVCShaderParam@Modulate_DX9@@H@@@@QAEAAPAVCShaderParam@Modulate_DX9@@H@Z 1023f670 f i modulate_dx9.obj
 0002:001267a0       ??BCShaderParam@Modulate_DX9@@QAEHXZ 1023f7a0 f i modulate_dx9.obj
 0002:001267e0       ?AddToTail@?$CUtlVector@PAVCShaderParam@Modulate_DX9@@V?$CUtlMemory@PAVCShaderParam@Modulate_DX9@@H@@@@QAEHABQAVCShaderParam@Modulate_DX9@@@Z 1023f7e0 f i modulate_dx9.obj
 0002:00126950       ?Base@?$CUtlMemory@PAVCShaderParam@Modulate@@H@@QAEPAPAVCShaderParam@Modulate@@XZ 1023f950 f i modulate_dx9.obj
 0002:00126a70       ?Base@?$CUtlMemory@PAVCShaderParam@Modulate_DX9@@H@@QAEPAPAVCShaderParam@Modulate_DX9@@XZ 1023fa70 f i modulate_dx9.obj
 0002:00126b90       ?Base@?$CUtlVector@PAVCShaderParam@Modulate@@V?$CUtlMemory@PAVCShaderParam@Modulate@@H@@@@QAEPAPAVCShaderParam@Modulate@@XZ 1023fb90 f i modulate_dx9.obj
 0002:00126be0       ?Base@?$CUtlVector@PAVCShaderParam@Modulate_DX9@@V?$CUtlMemory@PAVCShaderParam@Modulate_DX9@@H@@@@QAEPAPAVCShaderParam@Modulate_DX9@@XZ 1023fbe0 f i modulate_dx9.obj
 0002:00126c30       ?Count@?$CUtlVector@PAVCShaderParam@Modulate@@V?$CUtlMemory@PAVCShaderParam@Modulate@@H@@@@QBEHXZ 1023fc30 f i modulate_dx9.obj
 0002:00126c70       ?Count@?$CUtlVector@PAVCShaderParam@Modulate_DX9@@V?$CUtlMemory@PAVCShaderParam@Modulate_DX9@@H@@@@QBEHXZ 1023fc70 f i modulate_dx9.obj
 0002:00126cb0       ?Element@?$CUtlVector@PAVCShaderParam@Modulate@@V?$CUtlMemory@PAVCShaderParam@Modulate@@H@@@@QAEAAPAVCShaderParam@Modulate@@H@Z 1023fcb0 f i modulate_dx9.obj
 0002:00126de0       ?Element@?$CUtlVector@PAVCShaderParam@Modulate_DX9@@V?$CUtlMemory@PAVCShaderParam@Modulate_DX9@@H@@@@QAEAAPAVCShaderParam@Modulate_DX9@@H@Z 1023fde0 f i modulate_dx9.obj
 0002:00126f10       ?GetFallbackShader@CShader@Modulate@@UBEPBDPAPAVIMaterialVar@@@Z 1023ff10 f i modulate_dx9.obj
 0002:00126f50       ?GetFallbackShader@CShader@Modulate_DX9@@UBEPBDPAPAVIMaterialVar@@@Z 1023ff50 f i modulate_dx9.obj
 0002:00126f90       ?GetFlags@CShader@Modulate@@UBEHXZ 1023ff90 f i modulate_dx9.obj
 0002:00126fd0       ?GetFlags@CShader@Modulate_DX9@@UBEHXZ 1023ffd0 f i modulate_dx9.obj
 0002:00127010       ?GetIndex@modulate_ps20b_Dynamic_Index@@QAEHXZ 10240010 f i modulate_dx9.obj
 0002:00127170       ?GetIndex@modulate_ps20b_Static_Index@@QAEHXZ 10240170 f i modulate_dx9.obj
 0002:001271b0       ?GetIndex@modulate_ps30_Dynamic_Index@@QAEHXZ 102401b0 f i modulate_dx9.obj
 0002:00127310       ?GetIndex@modulate_ps30_Static_Index@@QAEHXZ 10240310 f i modulate_dx9.obj
 0002:00127350       ?GetIndex@unlitgeneric_vs20_Dynamic_Index@@QAEHXZ 10240350 f i modulate_dx9.obj
 0002:001274f0       ?GetIndex@unlitgeneric_vs20_Static_Index@@QAEHXZ 102404f0 f i modulate_dx9.obj
 0002:00127670       ?GetIndex@unlitgeneric_vs30_Dynamic_Index@@QAEHXZ 10240670 f i modulate_dx9.obj
 0002:00127810       ?GetIndex@unlitgeneric_vs30_Static_Index@@QAEHXZ 10240810 f i modulate_dx9.obj
 0002:00127990       ?GetInfo@CShaderParam@Modulate@@QBEABUShaderParamInfo_t@@XZ 10240990 f i modulate_dx9.obj
 0002:001279d0       ?GetInfo@CShaderParam@Modulate_DX9@@QBEABUShaderParamInfo_t@@XZ 102409d0 f i modulate_dx9.obj
 0002:00127a10       ?GetName@CShader@Modulate@@UBEPBDXZ 10240a10 f i modulate_dx9.obj
 0002:00127a50       ?GetName@CShader@Modulate_DX9@@UBEPBDXZ 10240a50 f i modulate_dx9.obj
 0002:00127a90       ?GetParamCount@CShader@Modulate@@UBEHXZ 10240a90 f i modulate_dx9.obj
 0002:00127af0       ?GetParamCount@CShader@Modulate_DX9@@UBEHXZ 10240af0 f i modulate_dx9.obj
 0002:00127b50       ?GetParamInfo@CShader@Modulate@@UBEABUShaderParamInfo_t@@H@Z 10240b50 f i modulate_dx9.obj
 0002:00127bf0       ?GetParamInfo@CShader@Modulate_DX9@@UBEABUShaderParamInfo_t@@H@Z 10240bf0 f i modulate_dx9.obj
 0002:00127c90       ?Grow@?$CUtlMemory@PAVCShaderParam@Modulate_DX9@@H@@QAEXH@Z 10240c90 f i modulate_dx9.obj
 0002:00128300       ?GrowVector@?$CUtlVector@PAVCShaderParam@Modulate_DX9@@V?$CUtlMemory@PAVCShaderParam@Modulate_DX9@@H@@@@IAEXH@Z 10241300 f i modulate_dx9.obj
 0002:00128420       ?InsertBefore@?$CUtlVector@PAVCShaderParam@Modulate_DX9@@V?$CUtlMemory@PAVCShaderParam@Modulate_DX9@@H@@@@QAEHHABQAVCShaderParam@Modulate_DX9@@@Z 10241420 f i modulate_dx9.obj
 0002:001286a0       ?IsExternallyAllocated@?$CUtlMemory@PAVCShaderParam@Modulate@@H@@QBE_NXZ 102416a0 f i modulate_dx9.obj
 0002:00128710       ?IsExternallyAllocated@?$CUtlMemory@PAVCShaderParam@Modulate_DX9@@H@@QBE_NXZ 10241710 f i modulate_dx9.obj
 0002:00128780       ?IsIdxValid@?$CUtlMemory@PAVCShaderParam@Modulate@@H@@QBE_NH@Z 10241780 f i modulate_dx9.obj
 0002:00128800       ?IsIdxValid@?$CUtlMemory@PAVCShaderParam@Modulate_DX9@@H@@QBE_NH@Z 10241800 f i modulate_dx9.obj
 0002:00128880       ?IsReadOnly@?$CUtlMemory@PAVCShaderParam@Modulate@@H@@QBE_NXZ 10241880 f i modulate_dx9.obj
 0002:001288f0       ?IsReadOnly@?$CUtlMemory@PAVCShaderParam@Modulate_DX9@@H@@QBE_NXZ 102418f0 f i modulate_dx9.obj
 0002:00128960       ?IsTranslucent@CShader@Modulate_DX9@@UBE_NPAPAVIMaterialVar@@@Z 10241960 f i modulate_dx9.obj
 0002:00128a50       ?IsValidIndex@?$CUtlVector@PAVCShaderParam@Modulate_DX9@@V?$CUtlMemory@PAVCShaderParam@Modulate_DX9@@H@@@@QBE_NH@Z 10241a50 f i modulate_dx9.obj
 0002:00128ac0       ?NeedsPowerOfTwoFrameBufferTexture@CShader@Modulate_DX9@@UBE_NPAPAVIMaterialVar@@_N@Z 10241ac0 f i modulate_dx9.obj
 0002:00128bc0       ?NumAllocated@?$CUtlMemory@PAVCShaderParam@Modulate_DX9@@H@@QBEHXZ 10241bc0 f i modulate_dx9.obj
 0002:00128c00       ?OnDrawElements@CShader@Modulate@@UAEXPAPAVIMaterialVar@@PAVIShaderShadow@@PAVIShaderDynamicAPI@@W4VertexCompressionType_t@@PAPAVCBasePerMaterialContextData@@@Z 10241c00 f i modulate_dx9.obj
 0002:00128c40       ?OnDrawElements@CShader@Modulate_DX9@@UAEXPAPAVIMaterialVar@@PAVIShaderShadow@@PAVIShaderDynamicAPI@@W4VertexCompressionType_t@@PAPAVCBasePerMaterialContextData@@@Z 10241c40 f i modulate_dx9.obj
 0002:0012a430       ?OnInitShaderInstance@CShader@Modulate@@UAEXPAPAVIMaterialVar@@PAVIShaderInit@@PBD@Z 10243430 f i modulate_dx9.obj
 0002:0012a470       ?OnInitShaderInstance@CShader@Modulate_DX9@@UAEXPAPAVIMaterialVar@@PAVIShaderInit@@PBD@Z 10243470 f i modulate_dx9.obj
 0002:0012a590       ?OnInitShaderParams@CShader@Modulate_DX9@@UAEXPAPAVIMaterialVar@@PBD@Z 10243590 f i modulate_dx9.obj
 0002:0012a710       ?Purge@?$CUtlMemory@PAVCShaderParam@Modulate@@H@@QAEXXZ 10243710 f i modulate_dx9.obj
 0002:0012a7c0       ?Purge@?$CUtlMemory@PAVCShaderParam@Modulate_DX9@@H@@QAEXXZ 102437c0 f i modulate_dx9.obj
 0002:0012a870       ?Purge@?$CUtlVector@PAVCShaderParam@Modulate@@V?$CUtlMemory@PAVCShaderParam@Modulate@@H@@@@QAEXXZ 10243870 f i modulate_dx9.obj
 0002:0012a8e0       ?Purge@?$CUtlVector@PAVCShaderParam@Modulate_DX9@@V?$CUtlMemory@PAVCShaderParam@Modulate_DX9@@H@@@@QAEXXZ 102438e0 f i modulate_dx9.obj
 0002:0012a950       ?RemoveAll@?$CUtlVector@PAVCShaderParam@Modulate@@V?$CUtlMemory@PAVCShaderParam@Modulate@@H@@@@QAEXXZ 10243950 f i modulate_dx9.obj
 0002:0012a9e0       ?RemoveAll@?$CUtlVector@PAVCShaderParam@Modulate_DX9@@V?$CUtlMemory@PAVCShaderParam@Modulate_DX9@@H@@@@QAEXXZ 102439e0 f i modulate_dx9.obj
 0002:0012aa70       ?ResetDbgInfo@?$CUtlVector@PAVCShaderParam@Modulate@@V?$CUtlMemory@PAVCShaderParam@Modulate@@H@@@@IAEXXZ 10243a70 f i modulate_dx9.obj
 0002:0012aad0       ?ResetDbgInfo@?$CUtlVector@PAVCShaderParam@Modulate_DX9@@V?$CUtlMemory@PAVCShaderParam@Modulate_DX9@@H@@@@IAEXXZ 10243ad0 f i modulate_dx9.obj
 0002:0012ab30       ?SetCOMPRESSED_VERTS@unlitgeneric_vs20_Dynamic_Index@@QAEXH@Z 10243b30 f i modulate_dx9.obj
 0002:0012ac50       ?SetCOMPRESSED_VERTS@unlitgeneric_vs30_Dynamic_Index@@QAEXH@Z 10243c50 f i modulate_dx9.obj
 0002:0012ad70       ?SetSKINNING@unlitgeneric_vs20_Dynamic_Index@@QAEX_N@Z 10243d70 f i modulate_dx9.obj
 0002:0012adf0       ?SetSKINNING@unlitgeneric_vs30_Dynamic_Index@@QAEX_N@Z 10243df0 f i modulate_dx9.obj
 0002:0012ae70       ?SetTESSELLATION@unlitgeneric_vs20_Dynamic_Index@@QAEXH@Z 10243e70 f i modulate_dx9.obj
 0002:0012afa0       ?SetTESSELLATION@unlitgeneric_vs30_Dynamic_Index@@QAEXH@Z 10243fa0 f i modulate_dx9.obj
 0002:0012b0d0       ?SetVERTEXCOLOR@unlitgeneric_vs20_Static_Index@@QAEXH@Z 102440d0 f i modulate_dx9.obj
 0002:0012b1f0       ?SetVERTEXCOLOR@unlitgeneric_vs30_Static_Index@@QAEXH@Z 102441f0 f i modulate_dx9.obj
 0002:0012b310       ?SetWRITE_DEPTH_TO_DESTALPHA@modulate_ps20b_Dynamic_Index@@QAEX_N@Z 10244310 f i modulate_dx9.obj
 0002:0012b390       ?SetWRITE_DEPTH_TO_DESTALPHA@modulate_ps30_Dynamic_Index@@QAEX_N@Z 10244390 f i modulate_dx9.obj
 0002:0012b410       ?SetupVarsCloakBlendedPass@CShader@Modulate_DX9@@QAEXAAUCloakBlendedPassVars_t@@@Z 10244410 f i modulate_dx9.obj
 0002:0012b4a0       ?ShiftElementsRight@?$CUtlVector@PAVCShaderParam@Modulate_DX9@@V?$CUtlMemory@PAVCShaderParam@Modulate_DX9@@H@@@@IAEXHH@Z 102444a0 f i modulate_dx9.obj
 0002:0012b640       ?ValidateGrowSize@?$CUtlMemory@PAVCShaderParam@Modulate@@H@@IAEXXZ 10244640 f i modulate_dx9.obj
 0002:0012b680       ?ValidateGrowSize@?$CUtlMemory@PAVCShaderParam@Modulate_DX9@@H@@IAEXXZ 10244680 f i modulate_dx9.obj
 0002:0012b6c0       ??$CopyConstruct@PAVCShaderParam@MonitorScreen_DX9@@@@YAPAPAVCShaderParam@MonitorScreen_DX9@@PAPAV01@ABQAV01@@Z 102446c0 f i MonitorScreen_dx9.obj
 0002:0012b760       ??$Destruct@PAVCShaderParam@MonitorScreen@@@@YAXPAPAVCShaderParam@MonitorScreen@@@Z 10244760 f i MonitorScreen_dx9.obj
 0002:0012b7c0       ??$Destruct@PAVCShaderParam@MonitorScreen_DX9@@@@YAXPAPAVCShaderParam@MonitorScreen_DX9@@@Z 102447c0 f i MonitorScreen_dx9.obj
 0002:0012b820       ??$MemAllocClassName@V?$CUtlMemory@PAVCShaderParam@MonitorScreen@@H@@@@YAPBDPAV?$CUtlMemory@PAVCShaderParam@MonitorScreen@@H@@@Z 10244820 f i MonitorScreen_dx9.obj
 0002:0012b8a0       ??$MemAllocClassName@V?$CUtlMemory@PAVCShaderParam@MonitorScreen_DX9@@H@@@@YAPBDPAV?$CUtlMemory@PAVCShaderParam@MonitorScreen_DX9@@H@@@Z 102448a0 f i MonitorScreen_dx9.obj
 0002:0012b920       ??$MemAllocClassName@V?$CUtlVector@PAVCShaderParam@MonitorScreen_DX9@@V?$CUtlMemory@PAVCShaderParam@MonitorScreen_DX9@@H@@@@@@YAPBDPAV?$CUtlVector@PAVCShaderParam@MonitorScreen_DX9@@V?$CUtlMemory@PAVCShaderParam@MonitorScreen_DX9@@H@@@@@Z 10244920 f i MonitorScreen_dx9.obj
 0002:0012b9a0       ??0?$CUtlMemory@PAVCShaderParam@MonitorScreen@@H@@QAE@HH@Z 102449a0 f i MonitorScreen_dx9.obj
 0002:0012bb90       ??0?$CUtlMemory@PAVCShaderParam@MonitorScreen_DX9@@H@@QAE@HH@Z 10244b90 f i MonitorScreen_dx9.obj
 0002:0012bd80       ??0?$CUtlVector@PAVCShaderParam@MonitorScreen@@V?$CUtlMemory@PAVCShaderParam@MonitorScreen@@H@@@@QAE@HH@Z 10244d80 f i MonitorScreen_dx9.obj
 0002:0012be00       ??0?$CUtlVector@PAVCShaderParam@MonitorScreen_DX9@@V?$CUtlMemory@PAVCShaderParam@MonitorScreen_DX9@@H@@@@QAE@HH@Z 10244e00 f i MonitorScreen_dx9.obj
 0002:0012be80       ??0CShader@MonitorScreen@@QAE@XZ 10244e80 f i MonitorScreen_dx9.obj
 0002:0012bee0       ??0CShader@MonitorScreen_DX9@@QAE@XZ 10244ee0 f i MonitorScreen_dx9.obj
 0002:0012bf40       ??0CShaderParam@MonitorScreen_DX9@@QAE@PBDW4ShaderParamType_t@@00H@Z 10244f40 f i MonitorScreen_dx9.obj
 0002:0012c000       ??0monitorscreen_ps20b_Dynamic_Index@@QAE@PAVIShaderDynamicAPI@@@Z 10245000 f i MonitorScreen_dx9.obj
 0002:0012c0c0       ??0monitorscreen_ps20b_Static_Index@@QAE@PAVIShaderShadow@@PAPAVIMaterialVar@@@Z 102450c0 f i MonitorScreen_dx9.obj
 0002:0012c110       ??0unlittwotexture_vs20_Dynamic_Index@@QAE@PAVIShaderDynamicAPI@@@Z 10245110 f i MonitorScreen_dx9.obj
 0002:0012c1f0       ??0unlittwotexture_vs20_Static_Index@@QAE@PAVIShaderShadow@@PAPAVIMaterialVar@@@Z 102451f0 f i MonitorScreen_dx9.obj
 0002:0012c2b0       ??1?$CUtlMemory@PAVCShaderParam@MonitorScreen@@H@@QAE@XZ 102452b0 f i MonitorScreen_dx9.obj
 0002:0012c300       ??1?$CUtlMemory@PAVCShaderParam@MonitorScreen_DX9@@H@@QAE@XZ 10245300 f i MonitorScreen_dx9.obj
 0002:0012c350       ??1?$CUtlVector@PAVCShaderParam@MonitorScreen@@V?$CUtlMemory@PAVCShaderParam@MonitorScreen@@H@@@@QAE@XZ 10245350 f i MonitorScreen_dx9.obj
 0002:0012c3b0       ??1?$CUtlVector@PAVCShaderParam@MonitorScreen_DX9@@V?$CUtlMemory@PAVCShaderParam@MonitorScreen_DX9@@H@@@@QAE@XZ 102453b0 f i MonitorScreen_dx9.obj
 0002:0012c410       ??A?$CUtlMemory@PAVCShaderParam@MonitorScreen@@H@@QAEAAPAVCShaderParam@MonitorScreen@@H@Z 10245410 f i MonitorScreen_dx9.obj
 0002:0012c610       ??A?$CUtlMemory@PAVCShaderParam@MonitorScreen_DX9@@H@@QAEAAPAVCShaderParam@MonitorScreen_DX9@@H@Z 10245610 f i MonitorScreen_dx9.obj
 0002:0012c810       ??A?$CUtlVector@PAVCShaderParam@MonitorScreen@@V?$CUtlMemory@PAVCShaderParam@MonitorScreen@@H@@@@QAEAAPAVCShaderParam@MonitorScreen@@H@Z 10245810 f i MonitorScreen_dx9.obj
 0002:0012c940       ??A?$CUtlVector@PAVCShaderParam@MonitorScreen_DX9@@V?$CUtlMemory@PAVCShaderParam@MonitorScreen_DX9@@H@@@@QAEAAPAVCShaderParam@MonitorScreen_DX9@@H@Z 10245940 f i MonitorScreen_dx9.obj
 0002:0012ca70       ??BCShaderParam@MonitorScreen_DX9@@QAEHXZ 10245a70 f i MonitorScreen_dx9.obj
 0002:0012cab0       ?AddToTail@?$CUtlVector@PAVCShaderParam@MonitorScreen_DX9@@V?$CUtlMemory@PAVCShaderParam@MonitorScreen_DX9@@H@@@@QAEHABQAVCShaderParam@MonitorScreen_DX9@@@Z 10245ab0 f i MonitorScreen_dx9.obj
 0002:0012cc20       ?Base@?$CUtlMemory@PAVCShaderParam@MonitorScreen@@H@@QAEPAPAVCShaderParam@MonitorScreen@@XZ 10245c20 f i MonitorScreen_dx9.obj
 0002:0012cd40       ?Base@?$CUtlMemory@PAVCShaderParam@MonitorScreen_DX9@@H@@QAEPAPAVCShaderParam@MonitorScreen_DX9@@XZ 10245d40 f i MonitorScreen_dx9.obj
 0002:0012ce60       ?Base@?$CUtlVector@PAVCShaderParam@MonitorScreen@@V?$CUtlMemory@PAVCShaderParam@MonitorScreen@@H@@@@QAEPAPAVCShaderParam@MonitorScreen@@XZ 10245e60 f i MonitorScreen_dx9.obj
 0002:0012ceb0       ?Base@?$CUtlVector@PAVCShaderParam@MonitorScreen_DX9@@V?$CUtlMemory@PAVCShaderParam@MonitorScreen_DX9@@H@@@@QAEPAPAVCShaderParam@MonitorScreen_DX9@@XZ 10245eb0 f i MonitorScreen_dx9.obj
 0002:0012cf00       ?Count@?$CUtlVector@PAVCShaderParam@MonitorScreen@@V?$CUtlMemory@PAVCShaderParam@MonitorScreen@@H@@@@QBEHXZ 10245f00 f i MonitorScreen_dx9.obj
 0002:0012cf40       ?Count@?$CUtlVector@PAVCShaderParam@MonitorScreen_DX9@@V?$CUtlMemory@PAVCShaderParam@MonitorScreen_DX9@@H@@@@QBEHXZ 10245f40 f i MonitorScreen_dx9.obj
 0002:0012cf80       ?Element@?$CUtlVector@PAVCShaderParam@MonitorScreen@@V?$CUtlMemory@PAVCShaderParam@MonitorScreen@@H@@@@QAEAAPAVCShaderParam@MonitorScreen@@H@Z 10245f80 f i MonitorScreen_dx9.obj
 0002:0012d0b0       ?Element@?$CUtlVector@PAVCShaderParam@MonitorScreen_DX9@@V?$CUtlMemory@PAVCShaderParam@MonitorScreen_DX9@@H@@@@QAEAAPAVCShaderParam@MonitorScreen_DX9@@H@Z 102460b0 f i MonitorScreen_dx9.obj
 0002:0012d1e0       ?GetFallbackShader@CShader@MonitorScreen@@UBEPBDPAPAVIMaterialVar@@@Z 102461e0 f i MonitorScreen_dx9.obj
 0002:0012d220       ?GetFallbackShader@CShader@MonitorScreen_DX9@@UBEPBDPAPAVIMaterialVar@@@Z 10246220 f i MonitorScreen_dx9.obj
 0002:0012d2c0       ?GetFlags@CShader@MonitorScreen@@UBEHXZ 102462c0 f i MonitorScreen_dx9.obj
 0002:0012d300       ?GetFlags@CShader@MonitorScreen_DX9@@UBEHXZ 10246300 f i MonitorScreen_dx9.obj
 0002:0012d340       ?GetIndex@monitorscreen_ps20b_Dynamic_Index@@QAEHXZ 10246340 f i MonitorScreen_dx9.obj
 0002:0012d4a0       ?GetIndex@monitorscreen_ps20b_Static_Index@@QAEHXZ 102464a0 f i MonitorScreen_dx9.obj
 0002:0012d5c0       ?GetIndex@unlittwotexture_vs20_Dynamic_Index@@QAEHXZ 102465c0 f i MonitorScreen_dx9.obj
 0002:0012d760       ?GetIndex@unlittwotexture_vs20_Static_Index@@QAEHXZ 10246760 f i MonitorScreen_dx9.obj
 0002:0012d8c0       ?GetInfo@CShaderParam@MonitorScreen@@QBEABUShaderParamInfo_t@@XZ 102468c0 f i MonitorScreen_dx9.obj
 0002:0012d900       ?GetInfo@CShaderParam@MonitorScreen_DX9@@QBEABUShaderParamInfo_t@@XZ 10246900 f i MonitorScreen_dx9.obj
 0002:0012d940       ?GetName@CShader@MonitorScreen@@UBEPBDXZ 10246940 f i MonitorScreen_dx9.obj
 0002:0012d980       ?GetName@CShader@MonitorScreen_DX9@@UBEPBDXZ 10246980 f i MonitorScreen_dx9.obj
 0002:0012d9c0       ?GetParamCount@CShader@MonitorScreen@@UBEHXZ 102469c0 f i MonitorScreen_dx9.obj
 0002:0012da20       ?GetParamCount@CShader@MonitorScreen_DX9@@UBEHXZ 10246a20 f i MonitorScreen_dx9.obj
 0002:0012da80       ?GetParamInfo@CShader@MonitorScreen@@UBEABUShaderParamInfo_t@@H@Z 10246a80 f i MonitorScreen_dx9.obj
 0002:0012db20       ?GetParamInfo@CShader@MonitorScreen_DX9@@UBEABUShaderParamInfo_t@@H@Z 10246b20 f i MonitorScreen_dx9.obj
 0002:0012dbc0       ?Grow@?$CUtlMemory@PAVCShaderParam@MonitorScreen_DX9@@H@@QAEXH@Z 10246bc0 f i MonitorScreen_dx9.obj
 0002:0012e230       ?GrowVector@?$CUtlVector@PAVCShaderParam@MonitorScreen_DX9@@V?$CUtlMemory@PAVCShaderParam@MonitorScreen_DX9@@H@@@@IAEXH@Z 10247230 f i MonitorScreen_dx9.obj
 0002:0012e350       ?InsertBefore@?$CUtlVector@PAVCShaderParam@MonitorScreen_DX9@@V?$CUtlMemory@PAVCShaderParam@MonitorScreen_DX9@@H@@@@QAEHHABQAVCShaderParam@MonitorScreen_DX9@@@Z 10247350 f i MonitorScreen_dx9.obj
 0002:0012e5d0       ?IsExternallyAllocated@?$CUtlMemory@PAVCShaderParam@MonitorScreen@@H@@QBE_NXZ 102475d0 f i MonitorScreen_dx9.obj
 0002:0012e640       ?IsExternallyAllocated@?$CUtlMemory@PAVCShaderParam@MonitorScreen_DX9@@H@@QBE_NXZ 10247640 f i MonitorScreen_dx9.obj
 0002:0012e6b0       ?IsIdxValid@?$CUtlMemory@PAVCShaderParam@MonitorScreen@@H@@QBE_NH@Z 102476b0 f i MonitorScreen_dx9.obj
 0002:0012e730       ?IsIdxValid@?$CUtlMemory@PAVCShaderParam@MonitorScreen_DX9@@H@@QBE_NH@Z 10247730 f i MonitorScreen_dx9.obj
 0002:0012e7b0       ?IsReadOnly@?$CUtlMemory@PAVCShaderParam@MonitorScreen@@H@@QBE_NXZ 102477b0 f i MonitorScreen_dx9.obj
 0002:0012e820       ?IsReadOnly@?$CUtlMemory@PAVCShaderParam@MonitorScreen_DX9@@H@@QBE_NXZ 10247820 f i MonitorScreen_dx9.obj
 0002:0012e890       ?IsValidIndex@?$CUtlVector@PAVCShaderParam@MonitorScreen_DX9@@V?$CUtlMemory@PAVCShaderParam@MonitorScreen_DX9@@H@@@@QBE_NH@Z 10247890 f i MonitorScreen_dx9.obj
 0002:0012e900       ?NumAllocated@?$CUtlMemory@PAVCShaderParam@MonitorScreen_DX9@@H@@QBEHXZ 10247900 f i MonitorScreen_dx9.obj
 0002:0012e940       ?OnDrawElements@CShader@MonitorScreen@@UAEXPAPAVIMaterialVar@@PAVIShaderShadow@@PAVIShaderDynamicAPI@@W4VertexCompressionType_t@@PAPAVCBasePerMaterialContextData@@@Z 10247940 f i MonitorScreen_dx9.obj
 0002:0012e980       ?OnDrawElements@CShader@MonitorScreen_DX9@@UAEXPAPAVIMaterialVar@@PAVIShaderShadow@@PAVIShaderDynamicAPI@@W4VertexCompressionType_t@@PAPAVCBasePerMaterialContextData@@@Z 10247980 f i MonitorScreen_dx9.obj
 0002:0012f4f0       ?OnInitShaderInstance@CShader@MonitorScreen@@UAEXPAPAVIMaterialVar@@PAVIShaderInit@@PBD@Z 102484f0 f i MonitorScreen_dx9.obj
 0002:0012f530       ?OnInitShaderInstance@CShader@MonitorScreen_DX9@@UAEXPAPAVIMaterialVar@@PAVIShaderInit@@PBD@Z 10248530 f i MonitorScreen_dx9.obj
 0002:0012f630       ?OnInitShaderParams@CShader@MonitorScreen_DX9@@UAEXPAPAVIMaterialVar@@PBD@Z 10248630 f i MonitorScreen_dx9.obj
 0002:0012f8f0       ?Purge@?$CUtlMemory@PAVCShaderParam@MonitorScreen@@H@@QAEXXZ 102488f0 f i MonitorScreen_dx9.obj
 0002:0012f9a0       ?Purge@?$CUtlMemory@PAVCShaderParam@MonitorScreen_DX9@@H@@QAEXXZ 102489a0 f i MonitorScreen_dx9.obj
 0002:0012fa50       ?Purge@?$CUtlVector@PAVCShaderParam@MonitorScreen@@V?$CUtlMemory@PAVCShaderParam@MonitorScreen@@H@@@@QAEXXZ 10248a50 f i MonitorScreen_dx9.obj
 0002:0012fac0       ?Purge@?$CUtlVector@PAVCShaderParam@MonitorScreen_DX9@@V?$CUtlMemory@PAVCShaderParam@MonitorScreen_DX9@@H@@@@QAEXXZ 10248ac0 f i MonitorScreen_dx9.obj
 0002:0012fb30       ?RemoveAll@?$CUtlVector@PAVCShaderParam@MonitorScreen@@V?$CUtlMemory@PAVCShaderParam@MonitorScreen@@H@@@@QAEXXZ 10248b30 f i MonitorScreen_dx9.obj
 0002:0012fbc0       ?RemoveAll@?$CUtlVector@PAVCShaderParam@MonitorScreen_DX9@@V?$CUtlMemory@PAVCShaderParam@MonitorScreen_DX9@@H@@@@QAEXXZ 10248bc0 f i MonitorScreen_dx9.obj
 0002:0012fc50       ?ResetDbgInfo@?$CUtlVector@PAVCShaderParam@MonitorScreen@@V?$CUtlMemory@PAVCShaderParam@MonitorScreen@@H@@@@IAEXXZ 10248c50 f i MonitorScreen_dx9.obj
 0002:0012fcb0       ?ResetDbgInfo@?$CUtlVector@PAVCShaderParam@MonitorScreen_DX9@@V?$CUtlMemory@PAVCShaderParam@MonitorScreen_DX9@@H@@@@IAEXXZ 10248cb0 f i MonitorScreen_dx9.obj
 0002:0012fd10       ?SetCOMPRESSED_VERTS@unlittwotexture_vs20_Dynamic_Index@@QAEXH@Z 10248d10 f i MonitorScreen_dx9.obj
 0002:0012fe30       ?SetSKINNING@unlittwotexture_vs20_Dynamic_Index@@QAEX_N@Z 10248e30 f i MonitorScreen_dx9.obj
 0002:0012feb0       ?SetTEXTURE2@monitorscreen_ps20b_Static_Index@@QAEXH@Z 10248eb0 f i MonitorScreen_dx9.obj
 0002:0012ffd0       ?SetWORLD_NORMAL@unlittwotexture_vs20_Dynamic_Index@@QAEXH@Z 10248fd0 f i MonitorScreen_dx9.obj
 0002:00130100       ?SetWRITE_DEPTH_TO_DESTALPHA@monitorscreen_ps20b_Dynamic_Index@@QAEX_N@Z 10249100 f i MonitorScreen_dx9.obj
 0002:00130180       ?ShiftElementsRight@?$CUtlVector@PAVCShaderParam@MonitorScreen_DX9@@V?$CUtlMemory@PAVCShaderParam@MonitorScreen_DX9@@H@@@@IAEXHH@Z 10249180 f i MonitorScreen_dx9.obj
 0002:00130320       ?ValidateGrowSize@?$CUtlMemory@PAVCShaderParam@MonitorScreen@@H@@IAEXXZ 10249320 f i MonitorScreen_dx9.obj
 0002:00130360       ?ValidateGrowSize@?$CUtlMemory@PAVCShaderParam@MonitorScreen_DX9@@H@@IAEXXZ 10249360 f i MonitorScreen_dx9.obj
 0002:001303a0       ??$CopyConstruct@PAVCShaderParam@MorphAccumulate_DX9@@@@YAPAPAVCShaderParam@MorphAccumulate_DX9@@PAPAV01@ABQAV01@@Z 102493a0 f i morphaccumulate_dx9.obj
 0002:00130440       ??$Destruct@PAVCShaderParam@MorphAccumulate@@@@YAXPAPAVCShaderParam@MorphAccumulate@@@Z 10249440 f i morphaccumulate_dx9.obj
 0002:001304a0       ??$Destruct@PAVCShaderParam@MorphAccumulate_DX9@@@@YAXPAPAVCShaderParam@MorphAccumulate_DX9@@@Z 102494a0 f i morphaccumulate_dx9.obj
 0002:00130500       ??$MemAllocClassName@V?$CUtlMemory@PAVCShaderParam@MorphAccumulate@@H@@@@YAPBDPAV?$CUtlMemory@PAVCShaderParam@MorphAccumulate@@H@@@Z 10249500 f i morphaccumulate_dx9.obj
 0002:00130580       ??$MemAllocClassName@V?$CUtlMemory@PAVCShaderParam@MorphAccumulate_DX9@@H@@@@YAPBDPAV?$CUtlMemory@PAVCShaderParam@MorphAccumulate_DX9@@H@@@Z 10249580 f i morphaccumulate_dx9.obj
